
Discarded input sections

 .data          0x0000000000000000        0x0 arch/arm/cpu/armv8/start.o
 .bss           0x0000000000000000        0x0 arch/arm/cpu/armv8/start.o
 .text.timer_read_counter
                0x0000000000000000        0xc arch/arm/cpu/armv8/built-in.o
 .text.usec2ticks
                0x0000000000000000       0x44 arch/arm/cpu/armv8/built-in.o
 .text.timer_get_boot_us
                0x0000000000000000       0x14 arch/arm/cpu/armv8/built-in.o
 .text.set_one_region
                0x0000000000000000       0xd8 arch/arm/cpu/armv8/built-in.o
 .text.dcache_status
                0x0000000000000000       0x34 arch/arm/cpu/armv8/built-in.o
 .text.arch_get_page_table
                0x0000000000000000       0x20 arch/arm/cpu/armv8/built-in.o
 .text.mmu_set_region_dcache_behaviour
                0x0000000000000000       0xa8 arch/arm/cpu/armv8/built-in.o
 .text.mmu_change_region_attr
                0x0000000000000000       0xe8 arch/arm/cpu/armv8/built-in.o
 .text.icache_status
                0x0000000000000000       0x34 arch/arm/cpu/armv8/built-in.o
 .text.enable_caches
                0x0000000000000000       0x14 arch/arm/cpu/armv8/built-in.o
 .text.__asm_switch_ttbr
                0x0000000000000000       0xe0 arch/arm/cpu/armv8/built-in.o
 .text.armv8_switch_to_el1
                0x0000000000000000       0xd0 arch/arm/cpu/armv8/built-in.o
 .text.armv8_el2_to_aarch32
                0x0000000000000000        0x4 arch/arm/cpu/armv8/built-in.o
 .text.smc_call
                0x0000000000000000       0x44 arch/arm/cpu/armv8/built-in.o
 .text.psci_system_reset
                0x0000000000000000       0x20 arch/arm/cpu/armv8/built-in.o
 .text.psci_system_off
                0x0000000000000000       0x20 arch/arm/cpu/armv8/built-in.o
 .text.reset_misc
                0x0000000000000000        0xc arch/arm/cpu/armv8/built-in.o
 .rodata.arch_get_page_table.str1.1
                0x0000000000000000       0x1e arch/arm/cpu/armv8/built-in.o
 .rodata.mmu_set_region_dcache_behaviour.str1.1
                0x0000000000000000       0x20 arch/arm/cpu/armv8/built-in.o
 .rodata.set_one_region.str1.1
                0x0000000000000000       0x2e arch/arm/cpu/armv8/built-in.o
 .eh_frame      0x0000000000000000      0x524 arch/arm/cpu/armv8/built-in.o
 .data          0x0000000000000000        0x0 arch/arm/cpu/armv8/built-in.o
 .bss           0x0000000000000000        0x0 arch/arm/cpu/armv8/built-in.o
 .text.setjmp   0x0000000000000000       0x28 arch/arm/lib/built-in.o
 .text.longjmp  0x0000000000000000       0x40 arch/arm/lib/built-in.o
 .text.board_fdt_fixup
                0x0000000000000000        0x8 arch/arm/lib/built-in.o
 .text.board_quiesce_devices
                0x0000000000000000        0x4 arch/arm/lib/built-in.o
 .text.armv7_boot_nonsec_default
                0x0000000000000000        0x8 arch/arm/lib/built-in.o
 .text.dump_stack
                0x0000000000000000       0x3c arch/arm/lib/built-in.o
 .text.enable_caches
                0x0000000000000000        0xc arch/arm/lib/built-in.o
 .text.invalidate_dcache_range
                0x0000000000000000        0x4 arch/arm/lib/built-in.o
 .text.flush_dcache_range
                0x0000000000000000        0x4 arch/arm/lib/built-in.o
 .text.flush_dcache_all
                0x0000000000000000        0xc arch/arm/lib/built-in.o
 .text.check_cache_range
                0x0000000000000000       0x3c arch/arm/lib/built-in.o
 .text.fdt_psci
                0x0000000000000000        0x8 arch/arm/lib/built-in.o
 .rodata.check_cache_range.str1.1
                0x0000000000000000       0x35 arch/arm/lib/built-in.o
 .rodata.enable_caches.str1.1
                0x0000000000000000       0x1d arch/arm/lib/built-in.o
 .eh_frame      0x0000000000000000      0x418 arch/arm/lib/built-in.o
 .data          0x0000000000000000        0x0 arch/arm/lib/built-in.o
 .__efi_runtime_rel_start
                0x0000000000000000        0x0 arch/arm/lib/built-in.o
 .__efi_runtime_rel_stop
                0x0000000000000000        0x0 arch/arm/lib/built-in.o
 .__efi_runtime_start
                0x0000000000000000        0x0 arch/arm/lib/built-in.o
 .__efi_runtime_stop
                0x0000000000000000        0x0 arch/arm/lib/built-in.o
 .__end         0x0000000000000000        0x0 arch/arm/lib/built-in.o
 .__secure_end  0x0000000000000000        0x0 arch/arm/lib/built-in.o
 .__secure_stack_end
                0x0000000000000000        0x0 arch/arm/lib/built-in.o
 .__secure_stack_start
                0x0000000000000000        0x0 arch/arm/lib/built-in.o
 .__secure_start
                0x0000000000000000        0x0 arch/arm/lib/built-in.o
 .bss           0x0000000000000000        0x0 arch/arm/lib/built-in.o
 .text.rockchip_set_bootdev
                0x0000000000000000        0xc arch/arm/mach-rockchip/built-in.o
 .text.board_run_recovery_wipe_data
                0x0000000000000000      0x120 arch/arm/mach-rockchip/built-in.o
 .text.soc_clk_dump
                0x0000000000000000        0x8 arch/arm/mach-rockchip/built-in.o
 .text.rk_board_init
                0x0000000000000000        0x8 arch/arm/mach-rockchip/built-in.o
 .text.iomem_show_by_compatible
                0x0000000000000000       0x14 arch/arm/mach-rockchip/built-in.o
 .text.board_mmc_dm_reinit
                0x0000000000000000        0x8 arch/arm/mach-rockchip/built-in.o
 .text.psci_cpu_on
                0x0000000000000000       0x30 arch/arm/mach-rockchip/built-in.o
 .text.sip_smc_set_suspend_mode
                0x0000000000000000       0x30 arch/arm/mach-rockchip/built-in.o
 .text.sip_smc_amp_cfg
                0x0000000000000000       0x30 arch/arm/mach-rockchip/built-in.o
 .text.sip_smc_dram
                0x0000000000000000       0x28 arch/arm/mach-rockchip/built-in.o
 .text.sip_smc_request_share_mem
                0x0000000000000000       0x28 arch/arm/mach-rockchip/built-in.o
 .text.sip_smc_get_sip_version
                0x0000000000000000       0x28 arch/arm/mach-rockchip/built-in.o
 .text.sip_smc_set_sip_version
                0x0000000000000000       0x64 arch/arm/mach-rockchip/built-in.o
 .text.flash_vendor_dev_ops_register
                0x0000000000000000       0x28 arch/arm/mach-rockchip/built-in.o
 .text.resource_create_ram_list
                0x0000000000000000       0x98 arch/arm/mach-rockchip/built-in.o
 .text.get_page_size
                0x0000000000000000       0x38 arch/arm/mach-rockchip/built-in.o
 .text.get_ddr_bw
                0x0000000000000000       0x28 arch/arm/mach-rockchip/built-in.o
 .text.rockchip_setup_ddr_param
                0x0000000000000000       0x40 arch/arm/mach-rockchip/built-in.o
 .text.rockchip_get_cru
                0x0000000000000000       0x30 arch/arm/mach-rockchip/built-in.o
 .text.rockchip_get_pmucru
                0x0000000000000000       0x3c arch/arm/mach-rockchip/built-in.o
 .text.atags_is_available
                0x0000000000000000       0x1c arch/arm/mach-rockchip/built-in.o
 .text.atags_set_tag
                0x0000000000000000      0x178 arch/arm/mach-rockchip/built-in.o
 .rodata.__func__.8658
                0x0000000000000000       0x1d arch/arm/mach-rockchip/built-in.o
 .rodata.board_run_recovery_wipe_data.str1.1
                0x0000000000000000       0xce arch/arm/mach-rockchip/built-in.o
 .rodata.__func__.6087
                0x0000000000000000       0x18 arch/arm/mach-rockchip/built-in.o
 .rodata.sip_smc_set_sip_version.str1.1
                0x0000000000000000       0x2a arch/arm/mach-rockchip/built-in.o
 .rodata.boot_devices
                0x0000000000000000       0x58 arch/arm/mach-rockchip/built-in.o
 .rodata.CSWTCH.4
                0x0000000000000000        0x8 arch/arm/mach-rockchip/built-in.o
 .eh_frame      0x0000000000000000      0xff0 arch/arm/mach-rockchip/built-in.o
 .data          0x0000000000000000        0x0 arch/arm/mach-rockchip/built-in.o
 .bss           0x0000000000000000        0x0 arch/arm/mach-rockchip/built-in.o
 .text          0x0000000000000000        0x0 board/rockchip/evb_rk3399/built-in.o
 .eh_frame      0x0000000000000000       0xb8 board/rockchip/evb_rk3399/built-in.o
 .data          0x0000000000000000        0x0 board/rockchip/evb_rk3399/built-in.o
 .bss           0x0000000000000000        0x0 board/rockchip/evb_rk3399/built-in.o
 .text          0x0000000000000000        0x0 cmd/built-in.o
 .text.bootz_setup
                0x0000000000000000       0x20 cmd/built-in.o
 .rodata.bootz_setup.str1.1
                0x0000000000000000       0x34 cmd/built-in.o
 .eh_frame      0x0000000000000000     0x2624 cmd/built-in.o
 .data          0x0000000000000000        0x0 cmd/built-in.o
 .bss           0x0000000000000000        0x0 cmd/built-in.o
 .text          0x0000000000000000        0x0 common/built-in.o
 .text.board_init_f_boot_flags
                0x0000000000000000       0x24 common/built-in.o
 .text.hash_progressive_lookup_algo
                0x0000000000000000       0x7c common/built-in.o
 .text.hash_parse_string
                0x0000000000000000       0x7c common/built-in.o
 .text.unset_local_var
                0x0000000000000000       0xbc common/built-in.o
 .text.autoboot_command_fail_handle
                0x0000000000000000        0x4 common/built-in.o
 .text.arch_cpu_init
                0x0000000000000000        0x8 common/built-in.o
 .text.dram_init_banksize
                0x0000000000000000       0x30 common/built-in.o
 .text.coloured_LED_init
                0x0000000000000000        0x4 common/built-in.o
 .text.red_led_on
                0x0000000000000000        0x4 common/built-in.o
 .text.red_led_off
                0x0000000000000000        0x4 common/built-in.o
 .text.green_led_on
                0x0000000000000000        0x4 common/built-in.o
 .text.green_led_off
                0x0000000000000000        0x4 common/built-in.o
 .text.yellow_led_on
                0x0000000000000000        0x4 common/built-in.o
 .text.yellow_led_off
                0x0000000000000000        0x4 common/built-in.o
 .text.blue_led_on
                0x0000000000000000        0x4 common/built-in.o
 .text.blue_led_off
                0x0000000000000000        0x4 common/built-in.o
 .text.board_get_usable_ram_top
                0x0000000000000000        0xc common/built-in.o
 .text.arch_reserve_stacks
                0x0000000000000000        0x8 common/built-in.o
 .text.interrupt_debugger_init
                0x0000000000000000        0x8 common/built-in.o
 .text.board_flash_wp_on
                0x0000000000000000        0x8 common/built-in.o
 .text.fixup_cpu
                0x0000000000000000        0x8 common/built-in.o
 .text.board_do_bootm
                0x0000000000000000        0x8 common/built-in.o
 .text.bootm_board_start
                0x0000000000000000        0x8 common/built-in.o
 .text.arch_preboot_os
                0x0000000000000000        0x4 common/built-in.o
 .text.fdt_read_prop
                0x0000000000000000       0x48 common/built-in.o
 .text.fdt_getprop_u32_default_node
                0x0000000000000000       0x4c common/built-in.o
 .text.fdt_getprop_u32_default
                0x0000000000000000       0x58 common/built-in.o
 .text.do_fixup_by_prop
                0x0000000000000000       0xc8 common/built-in.o
 .text.do_fixup_by_prop_u32
                0x0000000000000000       0x28 common/built-in.o
 .text.do_fixup_by_compat
                0x0000000000000000       0xa8 common/built-in.o
 .text.do_fixup_by_compat_u32
                0x0000000000000000       0x28 common/built-in.o
 .text.fdt_record_loadable
                0x0000000000000000      0x174 common/built-in.o
 .text.fdt_bootargs_append_ab
                0x0000000000000000      0x1c4 common/built-in.o
 .text.fdt_del_node_and_alias
                0x0000000000000000       0x5c common/built-in.o
 .text.fdt_node_offset_by_compat_reg
                0x0000000000000000       0xa0 common/built-in.o
 .text.fdt_alloc_phandle
                0x0000000000000000       0x6c common/built-in.o
 .text.fdt_set_phandle
                0x0000000000000000       0x68 common/built-in.o
 .text.fdt_create_phandle
                0x0000000000000000       0x78 common/built-in.o
 .text.fdt_set_node_status
                0x0000000000000000       0xdc common/built-in.o
 .text.fdt_set_status_by_alias
                0x0000000000000000       0x30 common/built-in.o
 .text.fdt_add_edid
                0x0000000000000000       0xc0 common/built-in.o
 .text.fdt_verify_alias_address
                0x0000000000000000       0xdc common/built-in.o
 .text.fdt_read_range
                0x0000000000000000      0x154 common/built-in.o
 .text.fdt_setup_simplefb_node
                0x0000000000000000      0x1f8 common/built-in.o
 .text.fdt_fixup_display
                0x0000000000000000       0xe8 common/built-in.o
 .text.mdio_register_seq
                0x0000000000000000       0x48 common/built-in.o
 .text.usb_set_protocol
                0x0000000000000000       0x4c common/built-in.o
 .text.usb_set_idle
                0x0000000000000000       0x4c common/built-in.o
 .text.usb_get_report
                0x0000000000000000       0x5c common/built-in.o
 .text.usb_get_class_descriptor
                0x0000000000000000       0x5c common/built-in.o
 .text.board_usb_init
                0x0000000000000000        0x8 common/built-in.o
 .text.usb_hub_probe
                0x0000000000000000       0x54 common/built-in.o
 .text.iomux_printdevs
                0x0000000000000000       0x7c common/built-in.o
 .text.edid_check_checksum
                0x0000000000000000       0x30 common/built-in.o
 .text.edid_get_ranges
                0x0000000000000000       0xac common/built-in.o
 .text.edid_get_timing
                0x0000000000000000      0x2ac common/built-in.o
 .text.hdmi_avi_infoframe_pack
                0x0000000000000000      0x198 common/built-in.o
 .text.hdmi_spd_infoframe_init
                0x0000000000000000       0x6c common/built-in.o
 .text.hdmi_spd_infoframe_pack
                0x0000000000000000       0xa0 common/built-in.o
 .text.hdmi_audio_infoframe_init
                0x0000000000000000       0x3c common/built-in.o
 .text.hdmi_audio_infoframe_pack
                0x0000000000000000       0xe4 common/built-in.o
 .text.hdmi_drm_infoframe_init
                0x0000000000000000       0x3c common/built-in.o
 .text.hdmi_drm_infoframe_pack
                0x0000000000000000      0x148 common/built-in.o
 .text.hdmi_infoframe_pack
                0x0000000000000000       0x74 common/built-in.o
 .text.hdmi_infoframe_unpack
                0x0000000000000000      0x370 common/built-in.o
 .text.splash_screen_prepare
                0x0000000000000000        0x8 common/built-in.o
 .text.menu_default_choice
                0x0000000000000000       0x20 common/built-in.o
 .text.cli_simple_parse_line
                0x0000000000000000       0x9c common/built-in.o
 .text.cli_simple_run_command
                0x0000000000000000      0x148 common/built-in.o
 .text.cli_simple_loop
                0x0000000000000000       0x90 common/built-in.o
 .text.cli_simple_run_command_list
                0x0000000000000000       0x74 common/built-in.o
 .text.fgetc    0x0000000000000000       0x44 common/built-in.o
 .text.ftstc    0x0000000000000000       0x14 common/built-in.o
 .text.fputc    0x0000000000000000       0x14 common/built-in.o
 .text.fputs    0x0000000000000000       0x7c common/built-in.o
 .text.fclear   0x0000000000000000       0x10 common/built-in.o
 .text.fprintf  0x0000000000000000       0xb8 common/built-in.o
 .text.stdio_print_current_devices
                0x0000000000000000       0xbc common/built-in.o
 .text.valloc   0x0000000000000000        0xc common/built-in.o
 .text.pvalloc  0x0000000000000000       0x10 common/built-in.o
 .text.cfree    0x0000000000000000        0x4 common/built-in.o
 .text.malloc_usable_size
                0x0000000000000000       0x40 common/built-in.o
 .text.mallopt  0x0000000000000000       0x5c common/built-in.o
 .text.memalign_simple
                0x0000000000000000       0x64 common/built-in.o
 .text.genimg_get_short_name
                0x0000000000000000       0x28 common/built-in.o
 .text.genimg_get_cat_name
                0x0000000000000000       0x78 common/built-in.o
 .text.genimg_get_cat_short_name
                0x0000000000000000       0x78 common/built-in.o
 .text.genimg_get_cat_count
                0x0000000000000000       0x1c common/built-in.o
 .text.genimg_get_cat_desc
                0x0000000000000000       0x1c common/built-in.o
 .text.genimg_get_type_short_name
                0x0000000000000000       0x10 common/built-in.o
 .text.genimg_get_comp_short_name
                0x0000000000000000       0x10 common/built-in.o
 .text.genimg_get_os_short_name
                0x0000000000000000       0x10 common/built-in.o
 .text.genimg_get_arch_short_name
                0x0000000000000000       0x10 common/built-in.o
 .text.android_image_set_comp
                0x0000000000000000        0xc common/built-in.o
 .text.android_image_parse_kernel_comp
                0x0000000000000000       0x14 common/built-in.o
 .text.android_image_get_ksize
                0x0000000000000000       0x20 common/built-in.o
 .text.android_image_set_kload
                0x0000000000000000       0x20 common/built-in.o
 .text.android_image_get_fdt
                0x0000000000000000       0x7c common/built-in.o
 .text.android_avb_boot_flow
                0x0000000000000000       0xb8 common/built-in.o
 .text.android_boot_flow
                0x0000000000000000       0xa4 common/built-in.o
 .text.arch_fixup_fdt
                0x0000000000000000        0x8 common/built-in.o
 .text.fit_image_set_address
                0x0000000000000000       0x70 common/built-in.o
 .text.fit_get_subimage_count
                0x0000000000000000       0x5c common/built-in.o
 .text.fit_get_timestamp
                0x0000000000000000       0x5c common/built-in.o
 .text.fit_get_totalsize
                0x0000000000000000       0x4c common/built-in.o
 .text.fit_image_is_preload
                0x0000000000000000       0x48 common/built-in.o
 .text.fit_image_get_comp_addr
                0x0000000000000000       0x10 common/built-in.o
 .text.fit_image_set_load
                0x0000000000000000       0x10 common/built-in.o
 .text.fit_image_set_entry
                0x0000000000000000       0x10 common/built-in.o
 .text.fit_image_get_rollback_index
                0x0000000000000000       0x48 common/built-in.o
 .text.fit_set_timestamp
                0x0000000000000000       0x44 common/built-in.o
 .text.fit_set_totalsize
                0x0000000000000000       0x44 common/built-in.o
 .text.fit_set_version
                0x0000000000000000       0x44 common/built-in.o
 .text.calculate_hash
                0x0000000000000000        0x4 common/built-in.o
 .text.fit_all_image_verify
                0x0000000000000000      0x110 common/built-in.o
 .text.fit_conf_find_compat
                0x0000000000000000      0x1a8 common/built-in.o
 .text.fit_conf_get_prop_node_count
                0x0000000000000000        0x4 common/built-in.o
 .text.fit_board_verify_required_sigs
                0x0000000000000000        0x8 common/built-in.o
 .text.get_ram_size
                0x0000000000000000       0xf4 common/built-in.o
 .text.stdio_init
                0x0000000000000000       0x1c common/built-in.o
 .text.android_dt_get_count
                0x0000000000000000        0xc common/built-in.o
 .text.board_run_command
                0x0000000000000000        0x8 common/built-in.o
 .text.run_command_repeatable
                0x0000000000000000       0x20 common/built-in.o
 .text.hex1_bin
                0x0000000000000000       0x44 common/built-in.o
 .text.hex2_bin
                0x0000000000000000       0x40 common/built-in.o
 .text.srec_decode
                0x0000000000000000      0x228 common/built-in.o
 .text.CYGACC_COMM_IF_GETC_TIMEOUT.isra.0
                0x0000000000000000       0x54 common/built-in.o
 .text.xyzModem_flush
                0x0000000000000000       0x1c common/built-in.o
 .text.xyzModem_get_hdr
                0x0000000000000000      0x200 common/built-in.o
 .text.xyzModem_stream_open
                0x0000000000000000      0x23c common/built-in.o
 .text.xyzModem_stream_read
                0x0000000000000000      0x254 common/built-in.o
 .text.xyzModem_stream_close
                0x0000000000000000       0x3c common/built-in.o
 .text.xyzModem_stream_terminate
                0x0000000000000000       0xa4 common/built-in.o
 .text.xyzModem_error
                0x0000000000000000       0x28 common/built-in.o
 .text.trusty_write_oem_unlock
                0x0000000000000000       0x40 common/built-in.o
 .text.trusty_read_oem_unlock
                0x0000000000000000       0x5c common/built-in.o
 .rodata.fdt_set_node_status
                0x0000000000000000        0x4 common/built-in.o
 .rodata.__func__.6948
                0x0000000000000000       0x14 common/built-in.o
 .rodata.fdt_add_edid.str1.1
                0x0000000000000000       0x3b common/built-in.o
 .rodata.fdt_bootargs_append_ab.str1.1
                0x0000000000000000       0x45 common/built-in.o
 .rodata.fdt_create_phandle.str1.1
                0x0000000000000000       0x1a common/built-in.o
 .rodata.fdt_fixup_display.str1.1
                0x0000000000000000       0x1c common/built-in.o
 .rodata.fdt_read_range.str1.1
                0x0000000000000000        0xf common/built-in.o
 .rodata.fdt_set_node_status.str1.1
                0x0000000000000000       0x3a common/built-in.o
 .rodata.fdt_set_phandle.str1.1
                0x0000000000000000       0x16 common/built-in.o
 .rodata.fdt_setup_simplefb_node.str1.1
                0x0000000000000000       0x2c common/built-in.o
 .rodata.fdt_verify_alias_address.str1.1
                0x0000000000000000       0xcd common/built-in.o
 .rodata.mdio_register_seq.str1.1
                0x0000000000000000        0x6 common/built-in.o
 .rodata.iomux_printdevs.str1.1
                0x0000000000000000        0x6 common/built-in.o
 .rodata.hdmi_infoframe_pack
                0x0000000000000000        0x7 common/built-in.o
 .rodata.hdmi_infoframe_unpack
                0x0000000000000000        0x8 common/built-in.o
 .rodata.hdmi_infoframe_pack.str1.1
                0x0000000000000000       0x17 common/built-in.o
 .rodata.cli_simple_loop.str1.1
                0x0000000000000000       0x11 common/built-in.o
 .rodata.cli_simple_parse_line.str1.1
                0x0000000000000000       0x1f common/built-in.o
 .rodata.cli_simple_run_command.str1.1
                0x0000000000000000       0x16 common/built-in.o
 .rodata.stdio_print_current_devices.str1.1
                0x0000000000000000       0x74 common/built-in.o
 .rodata.mallopt
                0x0000000000000000        0x4 common/built-in.o
 .rodata.memalign_simple.str1.1
                0x0000000000000000       0x11 common/built-in.o
 .rodata.genimg_get_short_name.str1.1
                0x0000000000000000        0x8 common/built-in.o
 .rodata.table_info
                0x0000000000000000       0x60 common/built-in.o
 .rodata.unknown_str.6479
                0x0000000000000000        0x9 common/built-in.o
 .rodata.android_image_get_fdt.str1.1
                0x0000000000000000       0x1c common/built-in.o
 .rodata.__func__.7384
                0x0000000000000000       0x16 common/built-in.o
 .rodata.__func__.7391
                0x0000000000000000       0x12 common/built-in.o
 .rodata.android_avb_boot_flow.str1.1
                0x0000000000000000       0x41 common/built-in.o
 .rodata.fit_get_timestamp.str1.1
                0x0000000000000000        0xa common/built-in.o
 .rodata.fit_get_totalsize.str1.1
                0x0000000000000000        0xa common/built-in.o
 .rodata.fit_image_get_comp_addr.str1.1
                0x0000000000000000        0x5 common/built-in.o
 .rodata.fit_image_get_rollback_index.str1.1
                0x0000000000000000        0xf common/built-in.o
 .rodata.fit_image_is_preload.str1.1
                0x0000000000000000        0x8 common/built-in.o
 .rodata.fit_set_version.str1.1
                0x0000000000000000        0x8 common/built-in.o
 .rodata.srec_decode
                0x0000000000000000        0xa common/built-in.o
 .rodata.CSWTCH.14
                0x0000000000000000       0x40 common/built-in.o
 .rodata.xyzModem_error.str1.1
                0x0000000000000000        0xe common/built-in.o
 .rodata.xyzModem_stream_close.str1.1
                0x0000000000000000       0x4b common/built-in.o
 .rodata.xyzModem_stream_open.str1.1
                0x0000000000000000        0x2 common/built-in.o
 .rodata.trusty_write_oem_unlock.str1.1
                0x0000000000000000        0xb common/built-in.o
 .eh_frame      0x0000000000000000     0x5f8c common/built-in.o
 .data          0x0000000000000000        0x0 common/built-in.o
 .bss           0x0000000000000000        0x0 common/built-in.o
 .bss.lastcommand.5975
                0x0000000000000000      0x401 common/built-in.o
 .bss.msg.6480  0x0000000000000000       0x1e common/built-in.o
 .bss.save_addr
                0x0000000000000000        0x8 common/built-in.o
 .bss.save_size
                0x0000000000000000        0x8 common/built-in.o
 .bss.xyz       0x0000000000000000      0x448 common/built-in.o
 .text          0x0000000000000000        0x0 disk/built-in.o
 .eh_frame      0x0000000000000000      0x8c0 disk/built-in.o
 .data          0x0000000000000000        0x0 disk/built-in.o
 .bss           0x0000000000000000        0x0 disk/built-in.o
 .text          0x0000000000000000        0x0 drivers/built-in.o
 .text.clk_get_phase
                0x0000000000000000       0x20 drivers/built-in.o
 .text.clk_enable_bulk
                0x0000000000000000       0x5c drivers/built-in.o
 .text.clk_get_bulk
                0x0000000000000000       0xc0 drivers/built-in.o
 .text.clk_disable_bulk
                0x0000000000000000       0x5c drivers/built-in.o
 .text.rk3036_pll_get_rate.isra.0
                0x0000000000000000       0xcc drivers/built-in.o
 .text.gcd      0x0000000000000000       0x2c drivers/built-in.o
 .text.rk3036_pll_set_rate.isra.3
                0x0000000000000000      0x2dc drivers/built-in.o
 .text.rockchip_pll_get_rate
                0x0000000000000000       0x50 drivers/built-in.o
 .text.rockchip_pll_set_rate
                0x0000000000000000       0x94 drivers/built-in.o
 .text.rockchip_get_cpu_settings
                0x0000000000000000       0x24 drivers/built-in.o
 .text._device_find_global_by_of_offset
                0x0000000000000000       0x68 drivers/built-in.o
 .text.device_get_child
                0x0000000000000000       0x5c drivers/built-in.o
 .text.device_find_child_by_seq
                0x0000000000000000       0x58 drivers/built-in.o
 .text.device_get_child_by_seq
                0x0000000000000000       0x60 drivers/built-in.o
 .text.device_find_child_by_of_offset
                0x0000000000000000       0x44 drivers/built-in.o
 .text.device_get_child_by_of_offset
                0x0000000000000000       0x40 drivers/built-in.o
 .text.device_get_global_by_of_offset
                0x0000000000000000       0x48 drivers/built-in.o
 .text.dev_get_uclass_name
                0x0000000000000000       0x14 drivers/built-in.o
 .text.device_has_children
                0x0000000000000000       0x14 drivers/built-in.o
 .text.of_machine_is_compatible
                0x0000000000000000       0x2c drivers/built-in.o
 .text.devfdt_get_addr_name
                0x0000000000000000       0x50 drivers/built-in.o
 .text.devfdt_get_addr
                0x0000000000000000        0x8 drivers/built-in.o
 .text.devfdt_get_addr_ptr
                0x0000000000000000        0x8 drivers/built-in.o
 .text.devfdt_map_physmem
                0x0000000000000000       0x20 drivers/built-in.o
 .text.dm_fixup_for_gd_move
                0x0000000000000000       0x20 drivers/built-in.o
 .text.dm_set_translation_offset
                0x0000000000000000       0x28 drivers/built-in.o
 .text.dm_uninit
                0x0000000000000000       0x28 drivers/built-in.o
 .text.uclass_destroy
                0x0000000000000000       0x98 drivers/built-in.o
 .text.uclass_get_name
                0x0000000000000000       0x30 drivers/built-in.o
 .text.uclass_get_by_name
                0x0000000000000000       0x54 drivers/built-in.o
 .text.uclass_find_device_by_of_offset
                0x0000000000000000       0x78 drivers/built-in.o
 .text.uclass_get_device_by_of_offset
                0x0000000000000000       0x38 drivers/built-in.o
 .text.uclass_first_device_check
                0x0000000000000000       0x40 drivers/built-in.o
 .text.uclass_next_device_check
                0x0000000000000000       0x30 drivers/built-in.o
 .text.list_count_items
                0x0000000000000000       0x28 drivers/built-in.o
 .text.simple_bus_translate
                0x0000000000000000       0x50 drivers/built-in.o
 .text.regmap_uninit
                0x0000000000000000       0x3c drivers/built-in.o
 .text.of_find_compatible_node
                0x0000000000000000       0x58 drivers/built-in.o
 .text.of_property_read_u64
                0x0000000000000000       0x44 drivers/built-in.o
 .text.of_alias_get_dev
                0x0000000000000000       0x6c drivers/built-in.o
 .text.of_get_stdout
                0x0000000000000000        0xc drivers/built-in.o
 .text.dev_read_s32_default
                0x0000000000000000        0x8 drivers/built-in.o
 .text.dev_read_next_subnode
                0x0000000000000000        0x4 drivers/built-in.o
 .text.dev_read_string_count
                0x0000000000000000        0x8 drivers/built-in.o
 .text.dev_read_addr_cells
                0x0000000000000000        0x8 drivers/built-in.o
 .text.dev_read_size_cells
                0x0000000000000000        0x8 drivers/built-in.o
 .text.dev_read_u8_array_ptr
                0x0000000000000000        0x8 drivers/built-in.o
 .text.dev_read_enabled
                0x0000000000000000       0x50 drivers/built-in.o
 .text.dev_read_resource_byname
                0x0000000000000000        0x8 drivers/built-in.o
 .text.dev_translate_address
                0x0000000000000000        0x8 drivers/built-in.o
 .text.of_read_fmap_entry
                0x0000000000000000       0xd8 drivers/built-in.o
 .text.ofnode_read_u64
                0x0000000000000000       0x54 drivers/built-in.o
 .text.decode_timing_property
                0x0000000000000000       0x78 drivers/built-in.o
 .text.ofnode_get_addr
                0x0000000000000000        0x8 drivers/built-in.o
 .text.ofnode_read_string_count
                0x0000000000000000       0x50 drivers/built-in.o
 .text.ofnode_get_chosen_prop
                0x0000000000000000       0x28 drivers/built-in.o
 .text.ofnode_get_chosen_node
                0x0000000000000000       0x2c drivers/built-in.o
 .text.ofnode_decode_display_timing
                0x0000000000000000      0x300 drivers/built-in.o
 .text.ofnode_read_u8_array_ptr
                0x0000000000000000       0x7c drivers/built-in.o
 .text.ofnode_read_pci_addr
                0x0000000000000000       0xac drivers/built-in.o
 .text.ofnode_read_addr_cells
                0x0000000000000000       0x3c drivers/built-in.o
 .text.ofnode_read_size_cells
                0x0000000000000000       0x3c drivers/built-in.o
 .text.ofnode_translate_address
                0x0000000000000000       0x44 drivers/built-in.o
 .text.crypto_hmac_init
                0x0000000000000000       0x34 drivers/built-in.o
 .text.crypto_hmac_update
                0x0000000000000000       0x2c drivers/built-in.o
 .text.crypto_hmac_final
                0x0000000000000000       0x20 drivers/built-in.o
 .text.crypto_sha_regions_csum
                0x0000000000000000       0xc4 drivers/built-in.o
 .text.crypto_rsa_verify
                0x0000000000000000       0x20 drivers/built-in.o
 .text.crypto_cipher
                0x0000000000000000       0x24 drivers/built-in.o
 .text.crypto_mac
                0x0000000000000000       0x20 drivers/built-in.o
 .text.crypto_ae
                0x0000000000000000       0x20 drivers/built-in.o
 .text._input_send_keycodes
                0x0000000000000000      0x3fc drivers/built-in.o
 .text.input_tstc
                0x0000000000000000       0x48 drivers/built-in.o
 .text.input_getc
                0x0000000000000000       0x5c drivers/built-in.o
 .text.input_send_keycodes
                0x0000000000000000        0x8 drivers/built-in.o
 .text.input_add_keycode
                0x0000000000000000       0x80 drivers/built-in.o
 .text.input_add_table
                0x0000000000000000       0x38 drivers/built-in.o
 .text.input_set_delays
                0x0000000000000000        0x8 drivers/built-in.o
 .text.input_allow_repeats
                0x0000000000000000        0x8 drivers/built-in.o
 .text.input_leds_changed
                0x0000000000000000       0x18 drivers/built-in.o
 .text.input_add_tables
                0x0000000000000000       0x70 drivers/built-in.o
 .text.input_init
                0x0000000000000000       0x34 drivers/built-in.o
 .text.input_stdio_register
                0x0000000000000000       0x58 drivers/built-in.o
 .text.create_keymap
                0x0000000000000000       0xa0 drivers/built-in.o
 .text.key_matrix_decode
                0x0000000000000000       0xdc drivers/built-in.o
 .text.key_matrix_decode_fdt
                0x0000000000000000       0xb0 drivers/built-in.o
 .text.key_matrix_init
                0x0000000000000000       0x50 drivers/built-in.o
 .text.generic_phy_reset
                0x0000000000000000       0x28 drivers/built-in.o
 .text.generic_phy_validate
                0x0000000000000000       0x28 drivers/built-in.o
 .text.otg_phy_init
                0x0000000000000000      0x11c drivers/built-in.o
 .text.pinctrl_decode_pin_config
                0x0000000000000000       0x58 drivers/built-in.o
 .text.pinctrl_get_periph_id
                0x0000000000000000       0x1c drivers/built-in.o
 .text.pinctrl_get_pins_count
                0x0000000000000000       0x1c drivers/built-in.o
 .text.pinctrl_generic_set_state_subnode
                0x0000000000000000      0x2b4 drivers/built-in.o
 .text.pinctrl_generic_set_state
                0x0000000000000000       0x6c drivers/built-in.o
 .text.rockchip_translate_drive_value
                0x0000000000000000       0x40 drivers/built-in.o
 .text.rockchip_translate_pull_value
                0x0000000000000000       0x34 drivers/built-in.o
 .text.sdram_print_dram_type
                0x0000000000000000       0x78 drivers/built-in.o
 .text.sdram_get_cs_cap
                0x0000000000000000       0xac drivers/built-in.o
 .text.sdram_print_ddr_info
                0x0000000000000000      0x204 drivers/built-in.o
 .text.sdram_copy_to_reg
                0x0000000000000000       0x2c drivers/built-in.o
 .text.sdram_org_config
                0x0000000000000000      0x1ac drivers/built-in.o
 .text.sdram_org_config_v3
                0x0000000000000000      0x298 drivers/built-in.o
 .text.sdram_detect_bw
                0x0000000000000000        0x8 drivers/built-in.o
 .text.sdram_detect_cs
                0x0000000000000000        0x8 drivers/built-in.o
 .text.sdram_detect_col
                0x0000000000000000       0x8c drivers/built-in.o
 .text.sdram_detect_bank
                0x0000000000000000       0x68 drivers/built-in.o
 .text.sdram_detect_bg
                0x0000000000000000       0x64 drivers/built-in.o
 .text.sdram_detect_dbw
                0x0000000000000000      0x11c drivers/built-in.o
 .text.sdram_detect_row
                0x0000000000000000       0x94 drivers/built-in.o
 .text.sdram_detect_row_3_4
                0x0000000000000000       0x6c drivers/built-in.o
 .text.sdram_detect_high_row
                0x0000000000000000       0x18 drivers/built-in.o
 .text.sdram_detect_cs1_row
                0x0000000000000000       0xe0 drivers/built-in.o
 .text.arch_interrupt_init
                0x0000000000000000        0x4 drivers/built-in.o
 .text.gpio_to_irq
                0x0000000000000000      0x108 drivers/built-in.o
 .text.hard_gpio_to_irq
                0x0000000000000000       0x38 drivers/built-in.o
 .text.adc_data_mask
                0x0000000000000000       0x38 drivers/built-in.o
 .text.adc_stop
                0x0000000000000000       0x3c drivers/built-in.o
 .text.adc_start_channels
                0x0000000000000000       0x74 drivers/built-in.o
 .text.adc_channels_data
                0x0000000000000000       0xb4 drivers/built-in.o
 .text.adc_channels_single_shot
                0x0000000000000000       0xb8 drivers/built-in.o
 .text.adc_vdd_value
                0x0000000000000000       0x48 drivers/built-in.o
 .text.adc_vss_value
                0x0000000000000000       0x48 drivers/built-in.o
 .text.blk_get_from_parent
                0x0000000000000000       0x5c drivers/built-in.o
 .text.blk_unbind_all
                0x0000000000000000       0xa8 drivers/built-in.o
 .text.misc_write
                0x0000000000000000       0x1c drivers/built-in.o
 .text.misc_ioctl
                0x0000000000000000       0x1c drivers/built-in.o
 .text.misc_call
                0x0000000000000000       0x1c drivers/built-in.o
 .text.misc_get_device_by_capability
                0x0000000000000000       0x88 drivers/built-in.o
 .text.misc_otp_get_device
                0x0000000000000000        0x4 drivers/built-in.o
 .text.misc_otp_read
                0x0000000000000000        0x4 drivers/built-in.o
 .text.misc_otp_write
                0x0000000000000000        0x4 drivers/built-in.o
 .text.mmc_switch
                0x0000000000000000       0x10 drivers/built-in.o
 .text.cpu_mmc_init
                0x0000000000000000        0x8 drivers/built-in.o
 .text.board_mmc_init
                0x0000000000000000        0x8 drivers/built-in.o
 .text.mmc_set_preinit
                0x0000000000000000        0x8 drivers/built-in.o
 .text.mmc_get_next_devnum
                0x0000000000000000        0x8 drivers/built-in.o
 .text.mmc_unbind
                0x0000000000000000       0x34 drivers/built-in.o
 .text.dwmci_memcpy_fromio
                0x0000000000000000        0x4 drivers/built-in.o
 .text.dwmci_memcpy_toio
                0x0000000000000000        0x4 drivers/built-in.o
 .text.reset_cpu
                0x0000000000000000       0x10 drivers/built-in.o
 .text.display_read_edid
                0x0000000000000000       0x20 drivers/built-in.o
 .text.display_enable
                0x0000000000000000       0x58 drivers/built-in.o
 .text.display_read_timing
                0x0000000000000000       0x74 drivers/built-in.o
 .text.display_in_use
                0x0000000000000000       0x18 drivers/built-in.o
 .text.panel_enable_backlight
                0x0000000000000000       0x1c drivers/built-in.o
 .text.video_set_flush_dcache
                0x0000000000000000       0x24 drivers/built-in.o
 .text.video_sync_all
                0x0000000000000000       0x3c drivers/built-in.o
 .text.video_get_xsize
                0x0000000000000000       0x18 drivers/built-in.o
 .text.video_get_ysize
                0x0000000000000000       0x18 drivers/built-in.o
 .text.fb_put_byte
                0x0000000000000000       0x24 drivers/built-in.o
 .text.fb_put_word
                0x0000000000000000       0x44 drivers/built-in.o
 .text.video_bmp_display
                0x0000000000000000      0x574 drivers/built-in.o
 .text.get_cubic_lut_buffer
                0x0000000000000000        0xc drivers/built-in.o
 .text.can_direct_logo
                0x0000000000000000       0x10 drivers/built-in.o
 .text.rockchip_show_fbbase
                0x0000000000000000       0x60 drivers/built-in.o
 .text.mipi_dsi_detach
                0x0000000000000000       0x24 drivers/built-in.o
 .text.mipi_dsi_shutdown_peripheral
                0x0000000000000000       0x64 drivers/built-in.o
 .text.mipi_dsi_turn_on_peripheral
                0x0000000000000000       0x64 drivers/built-in.o
 .text.mipi_dsi_set_maximum_return_packet_size
                0x0000000000000000       0x64 drivers/built-in.o
 .text.mipi_dsi_generic_read
                0x0000000000000000       0x60 drivers/built-in.o
 .text.mipi_dsi_dcs_write
                0x0000000000000000       0x94 drivers/built-in.o
 .text.mipi_dsi_dcs_read
                0x0000000000000000       0x4c drivers/built-in.o
 .text.mipi_dsi_dcs_nop
                0x0000000000000000       0x28 drivers/built-in.o
 .text.mipi_dsi_dcs_soft_reset
                0x0000000000000000       0x2c drivers/built-in.o
 .text.mipi_dsi_dcs_get_power_mode
                0x0000000000000000       0x38 drivers/built-in.o
 .text.mipi_dsi_dcs_get_pixel_format
                0x0000000000000000       0x38 drivers/built-in.o
 .text.mipi_dsi_dcs_enter_sleep_mode
                0x0000000000000000       0x2c drivers/built-in.o
 .text.mipi_dsi_dcs_exit_sleep_mode
                0x0000000000000000       0x2c drivers/built-in.o
 .text.mipi_dsi_dcs_set_display_off
                0x0000000000000000       0x2c drivers/built-in.o
 .text.mipi_dsi_dcs_set_display_on
                0x0000000000000000       0x2c drivers/built-in.o
 .text.mipi_dsi_dcs_set_column_address
                0x0000000000000000       0x38 drivers/built-in.o
 .text.mipi_dsi_dcs_set_page_address
                0x0000000000000000       0x38 drivers/built-in.o
 .text.mipi_dsi_dcs_set_tear_off
                0x0000000000000000       0x2c drivers/built-in.o
 .text.mipi_dsi_dcs_set_tear_on
                0x0000000000000000       0x2c drivers/built-in.o
 .text.mipi_dsi_dcs_set_pixel_format
                0x0000000000000000       0x2c drivers/built-in.o
 .text.mipi_dsi_dcs_set_tear_scanline
                0x0000000000000000       0x3c drivers/built-in.o
 .text.mipi_dsi_dcs_set_display_brightness
                0x0000000000000000       0x2c drivers/built-in.o
 .text.mipi_dsi_dcs_get_display_brightness
                0x0000000000000000       0x38 drivers/built-in.o
 .text.drm_dp_channel_eq_ok
                0x0000000000000000       0x54 drivers/built-in.o
 .text.drm_dp_clock_recovery_ok
                0x0000000000000000       0x44 drivers/built-in.o
 .text.drm_dp_get_adjust_request_voltage
                0x0000000000000000       0x24 drivers/built-in.o
 .text.drm_dp_get_adjust_request_pre_emphasis
                0x0000000000000000       0x30 drivers/built-in.o
 .text.drm_dp_link_train_clock_recovery_delay
                0x0000000000000000       0x78 drivers/built-in.o
 .text.drm_dp_link_train_channel_eq_delay
                0x0000000000000000       0x68 drivers/built-in.o
 .text.drm_dp_link_rate_to_bw_code
                0x0000000000000000       0x80 drivers/built-in.o
 .text.dw_hdmi_set_sample_rate
                0x0000000000000000       0x10 drivers/built-in.o
 .text.dw_hdmi_audio_enable
                0x0000000000000000       0x14 drivers/built-in.o
 .text.dw_hdmi_audio_disable
                0x0000000000000000       0x10 drivers/built-in.o
 .text.analogix_dp_mute_hpd_interrupt
                0x0000000000000000       0x48 drivers/built-in.o
 .text.analogix_dp_unmute_hpd_interrupt
                0x0000000000000000       0x30 drivers/built-in.o
 .text.analogix_dp_get_irq_type
                0x0000000000000000       0x5c drivers/built-in.o
 .text.analogix_dp_disable_scrambling
                0x0000000000000000       0x2c drivers/built-in.o
 .text.video_bridge_set_backlight
                0x0000000000000000       0x1c drivers/built-in.o
 .text.video_bridge_attach
                0x0000000000000000       0x1c drivers/built-in.o
 .text.video_bridge_check_attached
                0x0000000000000000       0x58 drivers/built-in.o
 .text.video_bridge_set_active
                0x0000000000000000       0x7c drivers/built-in.o
 .text.reset_request
                0x0000000000000000       0x14 drivers/built-in.o
 .rodata.__func__.7630
                0x0000000000000000       0x14 drivers/built-in.o
 .rodata.__func__.7709
                0x0000000000000000       0x16 drivers/built-in.o
 .rodata.__func__.7721
                0x0000000000000000       0x16 drivers/built-in.o
 .rodata.rk3036_pll_set_rate.isra.3.str1.1
                0x0000000000000000       0x49 drivers/built-in.o
 .rodata.rockchip_pll_get_rate.str1.1
                0x0000000000000000       0x26 drivers/built-in.o
 .rodata.devfdt_get_addr_name.str1.1
                0x0000000000000000        0xa drivers/built-in.o
 .rodata.of_read_fmap_entry.str1.1
                0x0000000000000000       0x1b drivers/built-in.o
 .rodata.__func__.7470
                0x0000000000000000       0x10 drivers/built-in.o
 .rodata.ofnode_decode_display_timing.str1.1
                0x0000000000000000       0xca drivers/built-in.o
 .rodata.ofnode_get_chosen_prop.str1.1
                0x0000000000000000        0x8 drivers/built-in.o
 .rodata.ofnode_read_u64.str1.1
                0x0000000000000000       0x13 drivers/built-in.o
 .rodata.input_stdio_register.str1.1
                0x0000000000000000        0x6 drivers/built-in.o
 .rodata.kbd_plain_xlate
                0x0000000000000000       0x64 drivers/built-in.o
 .rodata.kbd_plain_xlate_german
                0x0000000000000000       0x84 drivers/built-in.o
 .rodata.kbd_to_ansi364
                0x0000000000000000       0x40 drivers/built-in.o
 .rodata.key_matrix_decode_fdt.str1.1
                0x0000000000000000       0x1d drivers/built-in.o
 .rodata.__func__.9079
                0x0000000000000000        0xd drivers/built-in.o
 .rodata.pinctrl_decode_pin_config.str1.1
                0x0000000000000000       0x1c drivers/built-in.o
 .rodata.pinctrl_generic_set_state_subnode.str1.1
                0x0000000000000000       0x15 drivers/built-in.o
 .rodata.rockchip_pinctrl_ops
                0x0000000000000000       0x88 drivers/built-in.o
 .rodata.sdram_print_dram_type
                0x0000000000000000        0x9 drivers/built-in.o
 .rodata.sdram_detect_col.str1.1
                0x0000000000000000        0xb drivers/built-in.o
 .rodata.sdram_detect_row.str1.1
                0x0000000000000000        0xa drivers/built-in.o
 .rodata.sdram_print_ddr_info.str1.1
                0x0000000000000000       0x5f drivers/built-in.o
 .rodata.sdram_print_dram_type.str1.1
                0x0000000000000000       0x36 drivers/built-in.o
 .rodata.gpio_to_irq.str1.1
                0x0000000000000000       0x70 drivers/built-in.o
 .rodata.__func__.7560
                0x0000000000000000       0x13 drivers/built-in.o
 .rodata.__func__.7582
                0x0000000000000000       0x12 drivers/built-in.o
 .rodata.video_bmp_display.str1.1
                0x0000000000000000       0x56 drivers/built-in.o
 .rodata.drm_dp_link_rate_to_bw_code.str1.1
                0x0000000000000000       0x23 drivers/built-in.o
 .rodata.drm_dp_link_train_clock_recovery_delay.str1.1
                0x0000000000000000       0x27 drivers/built-in.o
 .eh_frame      0x0000000000000000     0x8aec drivers/built-in.o
 .data          0x0000000000000000        0x0 drivers/built-in.o
 .data.kbd_ctrl_xlate
                0x0000000000000000       0x64 drivers/built-in.o
 .data.kbd_entry
                0x0000000000000000       0xe0 drivers/built-in.o
 .data.kbd_right_alt_xlate_german
                0x0000000000000000       0x58 drivers/built-in.o
 .data.kbd_shift_xlate
                0x0000000000000000       0x64 drivers/built-in.o
 .data.kbd_shift_xlate_german
                0x0000000000000000       0x84 drivers/built-in.o
 .bss           0x0000000000000000        0x0 drivers/built-in.o
 .bss.rockchip_auto_table
                0x0000000000000000       0x30 drivers/built-in.o
 .text          0x0000000000000000        0x0 drivers/gpio/built-in.o
 .text.get_function
                0x0000000000000000       0xb4 drivers/gpio/built-in.o
 .text.gpio_to_device
                0x0000000000000000       0x88 drivers/gpio/built-in.o
 .text.dm_gpio_lookup_name
                0x0000000000000000      0x110 drivers/gpio/built-in.o
 .text.gpio_lookup_name
                0x0000000000000000       0x7c drivers/gpio/built-in.o
 .text.gpio_request
                0x0000000000000000       0x34 drivers/gpio/built-in.o
 .text.gpio_requestf
                0x0000000000000000       0x9c drivers/gpio/built-in.o
 .text._dm_gpio_free
                0x0000000000000000       0x84 drivers/gpio/built-in.o
 .text.gpio_free
                0x0000000000000000       0x28 drivers/gpio/built-in.o
 .text.gpio_direction_input
                0x0000000000000000       0x48 drivers/gpio/built-in.o
 .text.gpio_direction_output
                0x0000000000000000       0x58 drivers/gpio/built-in.o
 .text.dm_gpio_get_open_drain
                0x0000000000000000       0x5c drivers/gpio/built-in.o
 .text.dm_gpio_set_open_drain
                0x0000000000000000       0x5c drivers/gpio/built-in.o
 .text.dm_gpio_set_dir
                0x0000000000000000        0x8 drivers/gpio/built-in.o
 .text.gpio_get_value
                0x0000000000000000       0x24 drivers/gpio/built-in.o
 .text.gpio_set_value
                0x0000000000000000       0x34 drivers/gpio/built-in.o
 .text.gpio_get_bank_info
                0x0000000000000000       0x2c drivers/gpio/built-in.o
 .text.gpio_get_function
                0x0000000000000000        0xc drivers/gpio/built-in.o
 .text.gpio_get_raw_function
                0x0000000000000000        0xc drivers/gpio/built-in.o
 .text.gpio_get_status
                0x0000000000000000      0x130 drivers/gpio/built-in.o
 .text.gpio_claim_vector
                0x0000000000000000       0xac drivers/gpio/built-in.o
 .text.gpio_get_values_as_int
                0x0000000000000000       0x68 drivers/gpio/built-in.o
 .text.dm_gpio_get_values_as_int
                0x0000000000000000       0x74 drivers/gpio/built-in.o
 .text.gpio_request_by_name_nodev
                0x0000000000000000       0x74 drivers/gpio/built-in.o
 .text.gpio_get_list_count
                0x0000000000000000       0x28 drivers/gpio/built-in.o
 .text.dm_gpio_free
                0x0000000000000000       0x10 drivers/gpio/built-in.o
 .text.gpio_free_list
                0x0000000000000000       0x5c drivers/gpio/built-in.o
 .text.gpio_free_list_nodev
                0x0000000000000000       0x10 drivers/gpio/built-in.o
 .text.gpio_request_list_by_name_nodev
                0x0000000000000000       0xcc drivers/gpio/built-in.o
 .text.gpio_request_list_by_name
                0x0000000000000000        0x8 drivers/gpio/built-in.o
 .text.gpio_get_number
                0x0000000000000000       0x24 drivers/gpio/built-in.o
 .rodata.dm_gpio_get_open_drain.str1.1
                0x0000000000000000        0xf drivers/gpio/built-in.o
 .rodata.dm_gpio_set_open_drain.str1.1
                0x0000000000000000        0xf drivers/gpio/built-in.o
 .rodata.gpio_direction_input.str1.1
                0x0000000000000000        0xa drivers/gpio/built-in.o
 .rodata.gpio_direction_output.str1.1
                0x0000000000000000        0xb drivers/gpio/built-in.o
 .rodata.gpio_function
                0x0000000000000000       0x28 drivers/gpio/built-in.o
 .rodata.gpio_get_status.str1.1
                0x0000000000000000       0x19 drivers/gpio/built-in.o
 .eh_frame      0x0000000000000000      0x7a4 drivers/gpio/built-in.o
 .data          0x0000000000000000        0x0 drivers/gpio/built-in.o
 .bss           0x0000000000000000        0x0 drivers/gpio/built-in.o
 .text          0x0000000000000000        0x0 drivers/i2c/built-in.o
 .text.i2c_dump_msgs
                0x0000000000000000       0xac drivers/i2c/built-in.o
 .text.dm_i2c_xfer
                0x0000000000000000       0x40 drivers/i2c/built-in.o
 .text.dm_i2c_reg_read
                0x0000000000000000       0x24 drivers/i2c/built-in.o
 .text.dm_i2c_reg_write
                0x0000000000000000       0x20 drivers/i2c/built-in.o
 .text.i2c_get_chip
                0x0000000000000000      0x100 drivers/i2c/built-in.o
 .text.i2c_get_chip_for_busnum
                0x0000000000000000       0x4c drivers/i2c/built-in.o
 .text.dm_i2c_probe
                0x0000000000000000       0xa4 drivers/i2c/built-in.o
 .text.dm_i2c_get_bus_speed
                0x0000000000000000       0x44 drivers/i2c/built-in.o
 .text.i2c_set_chip_flags
                0x0000000000000000       0x60 drivers/i2c/built-in.o
 .text.i2c_get_chip_flags
                0x0000000000000000       0x2c drivers/i2c/built-in.o
 .text.i2c_set_chip_offset_len
                0x0000000000000000       0x38 drivers/i2c/built-in.o
 .text.i2c_get_chip_offset_len
                0x0000000000000000       0x18 drivers/i2c/built-in.o
 .text.i2c_deblock
                0x0000000000000000       0x1c drivers/i2c/built-in.o
 .rodata.i2c_dump_msgs.str1.1
                0x0000000000000000       0x1b drivers/i2c/built-in.o
 .eh_frame      0x0000000000000000      0x45c drivers/i2c/built-in.o
 .data          0x0000000000000000        0x0 drivers/i2c/built-in.o
 .bss           0x0000000000000000        0x0 drivers/i2c/built-in.o
 .text          0x0000000000000000        0x0 drivers/mtd/built-in.o
 .text.mtd_check_oob_ops
                0x0000000000000000       0xac drivers/mtd/built-in.o
 .text.mtd_ooblayout_ecc
                0x0000000000000000       0x80 drivers/mtd/built-in.o
 .text.mtd_ooblayout_free
                0x0000000000000000       0x80 drivers/mtd/built-in.o
 .text.mtd_ooblayout_find_region
                0x0000000000000000       0xa4 drivers/mtd/built-in.o
 .text.mtd_ooblayout_get_bytes
                0x0000000000000000       0xb0 drivers/mtd/built-in.o
 .text.mtd_ooblayout_set_bytes
                0x0000000000000000       0xb0 drivers/mtd/built-in.o
 .text.idr_remove
                0x0000000000000000       0x1c drivers/mtd/built-in.o
 .text.idr_find
                0x0000000000000000       0x20 drivers/mtd/built-in.o
 .text.idr_get_next
                0x0000000000000000       0x3c drivers/mtd/built-in.o
 .text.idr_alloc
                0x0000000000000000       0x48 drivers/mtd/built-in.o
 .text.__mtd_next_device
                0x0000000000000000       0x24 drivers/mtd/built-in.o
 .text.mtd_dev_list_updated
                0x0000000000000000       0x18 drivers/mtd/built-in.o
 .text.del_mtd_device
                0x0000000000000000       0x78 drivers/mtd/built-in.o
 .text.__get_mtd_device
                0x0000000000000000       0x40 drivers/mtd/built-in.o
 .text.get_mtd_device
                0x0000000000000000       0xa0 drivers/mtd/built-in.o
 .text.get_mtd_device_nm
                0x0000000000000000       0x64 drivers/mtd/built-in.o
 .text.__put_mtd_device
                0x0000000000000000       0x54 drivers/mtd/built-in.o
 .text.put_mtd_device
                0x0000000000000000        0x4 drivers/mtd/built-in.o
 .text.mtd_erase
                0x0000000000000000       0x84 drivers/mtd/built-in.o
 .text.mtd_get_unmapped_area
                0x0000000000000000       0x34 drivers/mtd/built-in.o
 .text.mtd_read
                0x0000000000000000       0xc4 drivers/mtd/built-in.o
 .text.mtd_write
                0x0000000000000000       0xa8 drivers/mtd/built-in.o
 .text.mtd_panic_write
                0x0000000000000000       0x58 drivers/mtd/built-in.o
 .text.mtd_read_oob
                0x0000000000000000       0xac drivers/mtd/built-in.o
 .text.mtd_write_oob
                0x0000000000000000       0x88 drivers/mtd/built-in.o
 .text.mtd_ooblayout_find_eccregion
                0x0000000000000000        0xc drivers/mtd/built-in.o
 .text.mtd_ooblayout_get_eccbytes
                0x0000000000000000        0xc drivers/mtd/built-in.o
 .text.mtd_ooblayout_set_eccbytes
                0x0000000000000000        0xc drivers/mtd/built-in.o
 .text.mtd_ooblayout_get_databytes
                0x0000000000000000        0xc drivers/mtd/built-in.o
 .text.mtd_ooblayout_set_databytes
                0x0000000000000000        0xc drivers/mtd/built-in.o
 .text.mtd_ooblayout_count_freebytes
                0x0000000000000000       0x58 drivers/mtd/built-in.o
 .text.mtd_ooblayout_count_eccbytes
                0x0000000000000000       0x58 drivers/mtd/built-in.o
 .text.mtd_get_fact_prot_info
                0x0000000000000000       0x20 drivers/mtd/built-in.o
 .text.mtd_read_fact_prot_reg
                0x0000000000000000       0x24 drivers/mtd/built-in.o
 .text.mtd_get_user_prot_info
                0x0000000000000000       0x20 drivers/mtd/built-in.o
 .text.mtd_read_user_prot_reg
                0x0000000000000000       0x24 drivers/mtd/built-in.o
 .text.mtd_write_user_prot_reg
                0x0000000000000000       0x58 drivers/mtd/built-in.o
 .text.mtd_lock_user_prot_reg
                0x0000000000000000       0x20 drivers/mtd/built-in.o
 .text.mtd_lock
                0x0000000000000000       0x44 drivers/mtd/built-in.o
 .text.mtd_unlock
                0x0000000000000000       0x44 drivers/mtd/built-in.o
 .text.add_mtd_device
                0x0000000000000000      0x220 drivers/mtd/built-in.o
 .text.mtd_is_locked
                0x0000000000000000       0x44 drivers/mtd/built-in.o
 .text.mtd_block_isreserved
                0x0000000000000000       0x2c drivers/mtd/built-in.o
 .text.mtd_block_isbad
                0x0000000000000000       0x2c drivers/mtd/built-in.o
 .text.mtd_block_markbad
                0x0000000000000000       0x3c drivers/mtd/built-in.o
 .text.mtd_search_alternate_name
                0x0000000000000000       0xf4 drivers/mtd/built-in.o
 .text.mtd_probe_devices
                0x0000000000000000        0x8 drivers/mtd/built-in.o
 .rodata.__func__.8741
                0x0000000000000000        0xf drivers/mtd/built-in.o
 .rodata.__func__.8780
                0x0000000000000000       0x11 drivers/mtd/built-in.o
 .rodata.__put_mtd_device.str1.1
                0x0000000000000000       0x2f drivers/mtd/built-in.o
 .rodata.add_mtd_device.str1.1
                0x0000000000000000       0x28 drivers/mtd/built-in.o
 .rodata.del_mtd_device.str1.1
                0x0000000000000000       0x30 drivers/mtd/built-in.o
 .rodata.mtd_search_alternate_name.str1.1
                0x0000000000000000        0x7 drivers/mtd/built-in.o
 .eh_frame      0x0000000000000000      0x660 drivers/mtd/built-in.o
 .data          0x0000000000000000        0x0 drivers/mtd/built-in.o
 .bss           0x0000000000000000        0x0 drivers/mtd/built-in.o
 .bss.mtd_idr   0x0000000000000000      0x408 drivers/mtd/built-in.o
 .bss.mtd_table
                0x0000000000000000      0x100 drivers/mtd/built-in.o
 .text          0x0000000000000000        0x0 drivers/mtd/spi/built-in.o
 .text.spl_flash_get_sw_write_prot
                0x0000000000000000       0x1c drivers/mtd/spi/built-in.o
 .text.spi_flash_free
                0x0000000000000000       0x10 drivers/mtd/spi/built-in.o
 .text.spi_flash_probe
                0x0000000000000000       0x2c drivers/mtd/spi/built-in.o
 .eh_frame      0x0000000000000000       0xdc drivers/mtd/spi/built-in.o
 .data          0x0000000000000000        0x0 drivers/mtd/spi/built-in.o
 .bss           0x0000000000000000        0x0 drivers/mtd/spi/built-in.o
 .text          0x0000000000000000        0x0 drivers/net/built-in.o
 .eh_frame      0x0000000000000000      0x6f0 drivers/net/built-in.o
 .data          0x0000000000000000        0x0 drivers/net/built-in.o
 .bss           0x0000000000000000        0x0 drivers/net/built-in.o
 .text          0x0000000000000000        0x0 drivers/net/phy/built-in.o
 .text.phy_register
                0x0000000000000000       0x24 drivers/net/phy/built-in.o
 .text.miiphy_reset
                0x0000000000000000       0x30 drivers/net/phy/built-in.o
 .text.phy_connect
                0x0000000000000000       0x68 drivers/net/phy/built-in.o
 .rodata.phy_connect.str1.1
                0x0000000000000000       0x23 drivers/net/phy/built-in.o
 .eh_frame      0x0000000000000000      0x340 drivers/net/phy/built-in.o
 .data          0x0000000000000000        0x0 drivers/net/phy/built-in.o
 .bss           0x0000000000000000        0x0 drivers/net/phy/built-in.o
 .text          0x0000000000000000        0x0 drivers/power/built-in.o
 .eh_frame      0x0000000000000000      0x20c drivers/power/built-in.o
 .data          0x0000000000000000        0x0 drivers/power/built-in.o
 .bss           0x0000000000000000        0x0 drivers/power/built-in.o
 .text          0x0000000000000000        0x0 drivers/power/charge/built-in.o
 .eh_frame      0x0000000000000000      0x100 drivers/power/charge/built-in.o
 .data          0x0000000000000000        0x0 drivers/power/charge/built-in.o
 .bss           0x0000000000000000        0x0 drivers/power/charge/built-in.o
 .text          0x0000000000000000        0x0 drivers/power/fuel_gauge/built-in.o
 .text.rk817_bat_debug_info
                0x0000000000000000        0x4 drivers/power/fuel_gauge/built-in.o
 .eh_frame      0x0000000000000000      0x630 drivers/power/fuel_gauge/built-in.o
 .data          0x0000000000000000        0x0 drivers/power/fuel_gauge/built-in.o
 .bss           0x0000000000000000        0x0 drivers/power/fuel_gauge/built-in.o
 .text          0x0000000000000000        0x0 drivers/power/io-domain/built-in.o
 .eh_frame      0x0000000000000000      0x180 drivers/power/io-domain/built-in.o
 .data          0x0000000000000000        0x0 drivers/power/io-domain/built-in.o
 .bss           0x0000000000000000        0x0 drivers/power/io-domain/built-in.o
 .text          0x0000000000000000        0x0 drivers/power/pmic/built-in.o
 .text.pmic_get
                0x0000000000000000       0x10 drivers/power/pmic/built-in.o
 .text.pmic_reg_count
                0x0000000000000000       0x40 drivers/power/pmic/built-in.o
 .eh_frame      0x0000000000000000      0x3a0 drivers/power/pmic/built-in.o
 .data          0x0000000000000000        0x0 drivers/power/pmic/built-in.o
 .bss           0x0000000000000000        0x0 drivers/power/pmic/built-in.o
 .text          0x0000000000000000        0x0 drivers/power/regulator/built-in.o
 .text.regulator_mode
                0x0000000000000000       0x3c drivers/power/regulator/built-in.o
 .text.regulator_get_suspend_value
                0x0000000000000000       0x40 drivers/power/regulator/built-in.o
 .text.regulator_set_value_force
                0x0000000000000000       0x48 drivers/power/regulator/built-in.o
 .text.regulator_get_current
                0x0000000000000000       0x40 drivers/power/regulator/built-in.o
 .text.regulator_get_suspend_enable
                0x0000000000000000       0x40 drivers/power/regulator/built-in.o
 .text.regulator_get_mode
                0x0000000000000000       0x40 drivers/power/regulator/built-in.o
 .text.regulator_set_mode
                0x0000000000000000       0x48 drivers/power/regulator/built-in.o
 .text.regulator_autoset_by_name
                0x0000000000000000       0x3c drivers/power/regulator/built-in.o
 .text.regulator_list_autoset
                0x0000000000000000       0xa0 drivers/power/regulator/built-in.o
 .text.rk8xx_spl_configure_buck
                0x0000000000000000       0x40 drivers/power/regulator/built-in.o
 .text.rk818_spl_configure_usb_input_current
                0x0000000000000000       0x38 drivers/power/regulator/built-in.o
 .text.rk818_spl_configure_usb_chrg_shutdown
                0x0000000000000000       0x38 drivers/power/regulator/built-in.o
 .rodata.rk818_chrg_cur_input_array
                0x0000000000000000       0x18 drivers/power/regulator/built-in.o
 .rodata.rk818_chrg_shutdown_vsel_array
                0x0000000000000000       0x20 drivers/power/regulator/built-in.o
 .eh_frame      0x0000000000000000      0xb94 drivers/power/regulator/built-in.o
 .data          0x0000000000000000        0x0 drivers/power/regulator/built-in.o
 .bss           0x0000000000000000        0x0 drivers/power/regulator/built-in.o
 .text          0x0000000000000000        0x0 drivers/serial/built-in.o
 .text.serial_dev_putc
                0x0000000000000000       0x10 drivers/serial/built-in.o
 .text.serial_dev_puts
                0x0000000000000000        0xc drivers/serial/built-in.o
 .text.serial_dev_getc
                0x0000000000000000       0x10 drivers/serial/built-in.o
 .text.serial_dev_tstc
                0x0000000000000000       0x10 drivers/serial/built-in.o
 .text.serial_dev_setbrg
                0x0000000000000000       0x1c drivers/serial/built-in.o
 .text.serial_dev_clear
                0x0000000000000000        0xc drivers/serial/built-in.o
 .text.ns16550_calc_divisor
                0x0000000000000000       0x10 drivers/serial/built-in.o
 .text.NS16550_reinit
                0x0000000000000000       0x5c drivers/serial/built-in.o
 .text.NS16550_putc
                0x0000000000000000       0x38 drivers/serial/built-in.o
 .text.NS16550_getc
                0x0000000000000000       0x34 drivers/serial/built-in.o
 .text.NS16550_tstc
                0x0000000000000000       0x20 drivers/serial/built-in.o
 .text.printhex2
                0x0000000000000000       0x5c drivers/serial/built-in.o
 .text.printhex4
                0x0000000000000000       0x5c drivers/serial/built-in.o
 .text.printhex8
                0x0000000000000000       0x5c drivers/serial/built-in.o
 .text.printdec
                0x0000000000000000       0xac drivers/serial/built-in.o
 .eh_frame      0x0000000000000000      0x5b8 drivers/serial/built-in.o
 .data          0x0000000000000000        0x0 drivers/serial/built-in.o
 .bss           0x0000000000000000        0x0 drivers/serial/built-in.o
 .text          0x0000000000000000        0x0 drivers/spi/built-in.o
 .text.dm_spi_claim_bus
                0x0000000000000000       0xc4 drivers/spi/built-in.o
 .text.dm_spi_release_bus
                0x0000000000000000       0x1c drivers/spi/built-in.o
 .text.dm_spi_xfer
                0x0000000000000000       0x30 drivers/spi/built-in.o
 .text.spi_claim_bus
                0x0000000000000000        0x8 drivers/spi/built-in.o
 .text.spi_release_bus
                0x0000000000000000        0x8 drivers/spi/built-in.o
 .text.spi_xfer
                0x0000000000000000        0x8 drivers/spi/built-in.o
 .text.spi_chip_select
                0x0000000000000000       0x24 drivers/spi/built-in.o
 .text.spi_cs_info
                0x0000000000000000       0x78 drivers/spi/built-in.o
 .text.spi_cs_is_valid
                0x0000000000000000       0x44 drivers/spi/built-in.o
 .text.spi_setup_slave
                0x0000000000000000       0x30 drivers/spi/built-in.o
 .text.spi_free_slave
                0x0000000000000000       0x2c drivers/spi/built-in.o
 .eh_frame      0x0000000000000000      0x2c8 drivers/spi/built-in.o
 .data          0x0000000000000000        0x0 drivers/spi/built-in.o
 .bss           0x0000000000000000        0x0 drivers/spi/built-in.o
 .text          0x0000000000000000        0x0 drivers/usb/common/built-in.o
 .text.usb_get_maximum_speed
                0x0000000000000000       0x7c drivers/usb/common/built-in.o
 .text.usb_get_phy_mode
                0x0000000000000000       0x7c drivers/usb/common/built-in.o
 .rodata.speed_names
                0x0000000000000000       0x30 drivers/usb/common/built-in.o
 .rodata.usb_get_maximum_speed.str1.1
                0x0000000000000000       0x2b drivers/usb/common/built-in.o
 .eh_frame      0x0000000000000000       0x90 drivers/usb/common/built-in.o
 .data          0x0000000000000000        0x0 drivers/usb/common/built-in.o
 .bss           0x0000000000000000        0x0 drivers/usb/common/built-in.o
 .text          0x0000000000000000        0x0 drivers/usb/dwc3/built-in.o
 .text.dwc3_core_exit_mode
                0x0000000000000000       0x64 drivers/usb/dwc3/built-in.o
 .text.dwc3_uboot_exit
                0x0000000000000000       0x88 drivers/usb/dwc3/built-in.o
 .text.dwc3_of_parse
                0x0000000000000000      0x264 drivers/usb/dwc3/built-in.o
 .text.dwc3_init
                0x0000000000000000       0xac drivers/usb/dwc3/built-in.o
 .text.dwc3_remove
                0x0000000000000000       0x38 drivers/usb/dwc3/built-in.o
 .text.dwc3_gadget_get_link_state
                0x0000000000000000       0x14 drivers/usb/dwc3/built-in.o
 .text.dwc3_gadget_exit
                0x0000000000000000       0x48 drivers/usb/dwc3/built-in.o
 .rodata.dwc3_of_parse.str1.1
                0x0000000000000000      0x1b4 drivers/usb/dwc3/built-in.o
 .eh_frame      0x0000000000000000      0xb30 drivers/usb/dwc3/built-in.o
 .data          0x0000000000000000        0x0 drivers/usb/dwc3/built-in.o
 .bss           0x0000000000000000        0x0 drivers/usb/dwc3/built-in.o
 .text          0x0000000000000000        0x0 drivers/usb/eth/built-in.o
 .text.usb_ocp_read
                0x0000000000000000        0x8 drivers/usb/eth/built-in.o
 .eh_frame      0x0000000000000000     0x12e0 drivers/usb/eth/built-in.o
 .data          0x0000000000000000        0x0 drivers/usb/eth/built-in.o
 .bss           0x0000000000000000        0x0 drivers/usb/eth/built-in.o
 .text          0x0000000000000000        0x0 drivers/usb/gadget/built-in.o
 .text.usb_gadget_config_buf
                0x0000000000000000       0xa4 drivers/usb/gadget/built-in.o
 .text.usb_function_deactivate
                0x0000000000000000       0x60 drivers/usb/gadget/built-in.o
 .text.usb_function_activate
                0x0000000000000000       0x4c drivers/usb/gadget/built-in.o
 .text.usb_string_ids_tab
                0x0000000000000000       0x38 drivers/usb/gadget/built-in.o
 .text.usb_string_ids_n
                0x0000000000000000       0x2c drivers/usb/gadget/built-in.o
 .text.board_usb_init
                0x0000000000000000        0x8 drivers/usb/gadget/built-in.o
 .text.board_usb_cleanup
                0x0000000000000000        0x8 drivers/usb/gadget/built-in.o
 .text.fb_set_reboot_flag
                0x0000000000000000        0x8 drivers/usb/gadget/built-in.o
 .eh_frame      0x0000000000000000     0x1008 drivers/usb/gadget/built-in.o
 .data          0x0000000000000000        0x0 drivers/usb/gadget/built-in.o
 .bss           0x0000000000000000        0x0 drivers/usb/gadget/built-in.o
 .text          0x0000000000000000        0x0 drivers/usb/gadget/udc/built-in.o
 .text.usb_del_gadget_udc
                0x0000000000000000       0x64 drivers/usb/gadget/udc/built-in.o
 .rodata.usb_del_gadget_udc.str1.1
                0x0000000000000000       0x18 drivers/usb/gadget/udc/built-in.o
 .eh_frame      0x0000000000000000      0x17c drivers/usb/gadget/udc/built-in.o
 .data          0x0000000000000000        0x0 drivers/usb/gadget/udc/built-in.o
 .bss           0x0000000000000000        0x0 drivers/usb/gadget/udc/built-in.o
 .text          0x0000000000000000        0x0 drivers/usb/host/built-in.o
 .text.create_int_queue
                0x0000000000000000       0x3c drivers/usb/host/built-in.o
 .text.poll_int_queue
                0x0000000000000000       0x2c drivers/usb/host/built-in.o
 .text.destroy_int_queue
                0x0000000000000000       0x2c drivers/usb/host/built-in.o
 .text.usb_setup_ehci_gadget
                0x0000000000000000       0x7c drivers/usb/host/built-in.o
 .text.usb_detect_change
                0x0000000000000000       0xa8 drivers/usb/host/built-in.o
 .text.rh_check_port_status
                0x0000000000000000       0x5c drivers/usb/host/built-in.o
 .text.dwc3_set_fladj
                0x0000000000000000       0x18 drivers/usb/host/built-in.o
 .eh_frame      0x0000000000000000     0x1378 drivers/usb/host/built-in.o
 .data          0x0000000000000000        0x0 drivers/usb/host/built-in.o
 .bss           0x0000000000000000        0x0 drivers/usb/host/built-in.o
 .text          0x0000000000000000        0x0 env/built-in.o
 .text.set_board_env
                0x0000000000000000       0x7c env/built-in.o
 .text.env_import
                0x0000000000000000       0xc8 env/built-in.o
 .text.env_export
                0x0000000000000000       0x80 env/built-in.o
 .text.env_relocate
                0x0000000000000000       0x10 env/built-in.o
 .text.env_load
                0x0000000000000000       0x34 env/built-in.o
 .text.env_save
                0x0000000000000000       0x34 env/built-in.o
 .text.env_flags_parse_varaccess_from_binflags
                0x0000000000000000       0x60 env/built-in.o
 .rodata.env_export.str1.1
                0x0000000000000000       0x27 env/built-in.o
 .rodata.env_import.str1.1
                0x0000000000000000       0x3f env/built-in.o
 .rodata.set_board_env.str1.1
                0x0000000000000000       0x1b env/built-in.o
 .rodata.env_flags_parse_varaccess_from_binflags.str1.1
                0x0000000000000000       0x2c env/built-in.o
 .eh_frame      0x0000000000000000      0x550 env/built-in.o
 .data          0x0000000000000000        0x0 env/built-in.o
 .bss           0x0000000000000000        0x0 env/built-in.o
 .text          0x0000000000000000        0x0 fs/built-in.o
 .text.fs_uuid  0x0000000000000000       0x28 fs/built-in.o
 .text.do_fs_uuid
                0x0000000000000000       0xa4 fs/built-in.o
 .text.fat_register_device
                0x0000000000000000       0x80 fs/built-in.o
 .text.file_fat_read
                0x0000000000000000       0x2c fs/built-in.o
 .rodata.fat_register_device.str1.1
                0x0000000000000000       0x2b fs/built-in.o
 .eh_frame      0x0000000000000000      0xeb4 fs/built-in.o
 .data          0x0000000000000000        0x0 fs/built-in.o
 .bss           0x0000000000000000        0x0 fs/built-in.o
 .bss.ext4fs_symlinknest
                0x0000000000000000        0x4 fs/built-in.o
 .bss.g_parent_inode
                0x0000000000000000        0x8 fs/built-in.o
 .text.fdt_nop_property
                0x0000000000000000       0x48 lib/built-in.o
 .text.fdt_nop_node
                0x0000000000000000       0x68 lib/built-in.o
 .text._fdt_sw_check_header
                0x0000000000000000       0x1c lib/built-in.o
 .text._fdt_grab_space
                0x0000000000000000       0x58 lib/built-in.o
 .text.fdt_create
                0x0000000000000000       0x70 lib/built-in.o
 .text.fdt_resize
                0x0000000000000000       0xe0 lib/built-in.o
 .text.fdt_add_reservemap_entry
                0x0000000000000000       0x74 lib/built-in.o
 .text.fdt_finish_reservemap
                0x0000000000000000        0xc lib/built-in.o
 .text.fdt_begin_node
                0x0000000000000000       0x84 lib/built-in.o
 .text.fdt_end_node
                0x0000000000000000       0x44 lib/built-in.o
 .text.fdt_property_placeholder
                0x0000000000000000      0x124 lib/built-in.o
 .text.fdt_property
                0x0000000000000000       0x50 lib/built-in.o
 .text.fdt_finish
                0x0000000000000000      0x10c lib/built-in.o
 .text.fdt_set_name
                0x0000000000000000       0xac lib/built-in.o
 .text.fdt_appendprop
                0x0000000000000000       0xec lib/built-in.o
 .text.fdt_create_empty_tree
                0x0000000000000000       0x78 lib/built-in.o
 .text.fdt_node_offset_by_prop_value
                0x0000000000000000       0xb4 lib/built-in.o
 .text.fdt_node_offset_by_phandle_node
                0x0000000000000000       0xa8 lib/built-in.o
 .text.fdt_add_region
                0x0000000000000000       0x78 lib/built-in.o
 .text.fdt_find_regions
                0x0000000000000000      0x350 lib/built-in.o
 .text.fdt_add_alias_regions
                0x0000000000000000      0x1b0 lib/built-in.o
 .text.fdt_next_region
                0x0000000000000000      0x4dc lib/built-in.o
 .text.fdt_first_region
                0x0000000000000000       0x30 lib/built-in.o
 .text.utf16_strlen
                0x0000000000000000       0x1c lib/built-in.o
 .text.utf16_strcpy
                0x0000000000000000       0x18 lib/built-in.o
 .text.utf16_strdup
                0x0000000000000000       0x48 lib/built-in.o
 .text.crc7     0x0000000000000000       0x30 lib/built-in.o
 .text.crc8     0x0000000000000000       0x48 lib/built-in.o
 .text.crc16_ccitt
                0x0000000000000000       0x38 lib/built-in.o
 .text.errno_str
                0x0000000000000000       0x24 lib/built-in.o
 .text.fdtdec_get_uint
                0x0000000000000000       0x40 lib/built-in.o
 .text.lmb_dump_all
                0x0000000000000000        0x4 lib/built-in.o
 .text.lmb_is_reserved
                0x0000000000000000       0x4c lib/built-in.o
 .text.board_lmb_reserve
                0x0000000000000000        0x4 lib/built-in.o
 .text.arch_lmb_reserve
                0x0000000000000000        0x4 lib/built-in.o
 .text.sysmem_can_alloc
                0x0000000000000000       0xa0 lib/built-in.o
 .text.board_bidram_parse_fn
                0x0000000000000000        0x8 lib/built-in.o
 .text.board_bidram_reserve
                0x0000000000000000        0x8 lib/built-in.o
 .text.ldiv     0x0000000000000000       0x2c lib/built-in.o
 .text.byteReverse
                0x0000000000000000        0x4 lib/built-in.o
 .text.md5      0x0000000000000000       0x64 lib/built-in.o
 .text.rc4_encode
                0x0000000000000000       0xe0 lib/built-in.o
 .text.sha256_csum
                0x0000000000000000       0x4c lib/built-in.o
 .text.merge    0x0000000000000000       0x8c lib/built-in.o
 .text.list_sort
                0x0000000000000000      0x1a4 lib/built-in.o
 .text.optee_get_shm_config
                0x0000000000000000       0x50 lib/built-in.o
 .text.TEEC_RegisterSharedMemory
                0x0000000000000000       0x70 lib/built-in.o
 .text.TEEC_RequestCancellation
                0x0000000000000000       0x24 lib/built-in.o
 .text.trusty_read_vbootkey_hash
                0x0000000000000000       0x14 lib/built-in.o
 .text.tee_uuid_to_octets
                0x0000000000000000       0x54 lib/built-in.o
 .text.TEEC_SMC_RequestCancellation
                0x0000000000000000        0x8 lib/built-in.o
 .text.OpteeRpcFree
                0x0000000000000000       0x1c lib/built-in.o
 .text.is_uuid_equal
                0x0000000000000000       0x58 lib/built-in.o
 .text.OpteeRpcCmdLoadTa
                0x0000000000000000       0xb8 lib/built-in.o
 .text.OpteeRpcCmdFreeTa
                0x0000000000000000       0x48 lib/built-in.o
 .text.OpteeRpcCmdGetTime
                0x0000000000000000        0x8 lib/built-in.o
 .text.OpteeRpcCmdWaitMutex
                0x0000000000000000        0x8 lib/built-in.o
 .text.avb_crc32
                0x0000000000000000       0x40 lib/built-in.o
 .text.avb_property_descriptor_validate_and_byteswap
                0x0000000000000000      0x2f4 lib/built-in.o
 .text.property_lookup_desc_foreach
                0x0000000000000000       0xfc lib/built-in.o
 .text.avb_property_lookup
                0x0000000000000000       0x80 lib/built-in.o
 .text.avb_property_lookup_uint64
                0x0000000000000000      0x108 lib/built-in.o
 .text.abort    0x0000000000000000        0x4 lib/built-in.o
 .text.avb_print
                0x0000000000000000       0x10 lib/built-in.o
 .text.avb_slot_verify_result_to_string
                0x0000000000000000       0x64 lib/built-in.o
 .text.avb_htobe32
                0x0000000000000000        0x8 lib/built-in.o
 .text.avb_htobe64
                0x0000000000000000        0x8 lib/built-in.o
 .text.sha256_str
                0x0000000000000000       0x34 lib/built-in.o
 .text.sha512   0x0000000000000000       0x60 lib/built-in.o
 .text.verify_permanent_attributes
                0x0000000000000000       0xb4 lib/built-in.o
 .text.verify_certificate
                0x0000000000000000      0x1c4 lib/built-in.o
 .text.verify_pik_certificate
                0x0000000000000000       0x8c lib/built-in.o
 .text.avb_atx_validate_vbmeta_public_key
                0x0000000000000000      0x39c lib/built-in.o
 .text.avb_atx_validate_unlock_credential
                0x0000000000000000      0x368 lib/built-in.o
 .text.load_top_level_vbmeta_header
                0x0000000000000000      0x4e0 lib/built-in.o
 .text.avb_user_verification_get
                0x0000000000000000       0xb0 lib/built-in.o
 .text.avb_user_verification_set
                0x0000000000000000      0x114 lib/built-in.o
 .text.avb_user_verity_get
                0x0000000000000000       0xb0 lib/built-in.o
 .text.avb_user_verity_set
                0x0000000000000000      0x114 lib/built-in.o
 .text.rk_avb_get_pub_key
                0x0000000000000000       0x48 lib/built-in.o
 .text.rk_avb_read_vbootkey_hash
                0x0000000000000000       0x34 lib/built-in.o
 .text.rk_avb_close_optee_client
                0x0000000000000000       0x34 lib/built-in.o
 .text.rk_auth_unlock
                0x0000000000000000       0xa4 lib/built-in.o
 .text.avb_ab_mark_slot_unbootable
                0x0000000000000000       0x58 lib/built-in.o
 .text.avb_ab_mark_slot_successful
                0x0000000000000000       0x84 lib/built-in.o
 .text.rk_get_lastboot
                0x0000000000000000       0x70 lib/built-in.o
 .text.rk_avb_ab_have_bootable_slot
                0x0000000000000000       0x28 lib/built-in.o
 .text.rk_avb_append_part_slot
                0x0000000000000000       0x94 lib/built-in.o
 .text.sha1_csum
                0x0000000000000000       0x4c lib/built-in.o
 .text.sha1_hmac
                0x0000000000000000      0x144 lib/built-in.o
 .text.sha1_self_test
                0x0000000000000000        0x8 lib/built-in.o
 .text.inflateInit_
                0x0000000000000000       0x10 lib/built-in.o
 .text.fdtdec_get_compatible
                0x0000000000000000       0x10 lib/built-in.o
 .text.fdtdec_get_uint64
                0x0000000000000000       0x40 lib/built-in.o
 .text.fdtdec_lookup
                0x0000000000000000       0x68 lib/built-in.o
 .text.fdtdec_next_compatible
                0x0000000000000000       0x10 lib/built-in.o
 .text.fdtdec_next_compatible_subnode
                0x0000000000000000       0x7c lib/built-in.o
 .text.fdtdec_next_alias
                0x0000000000000000       0xb0 lib/built-in.o
 .text.fdtdec_add_aliases_for_id
                0x0000000000000000      0x258 lib/built-in.o
 .text.fdtdec_find_aliases_for_id
                0x0000000000000000       0x58 lib/built-in.o
 .text.fdtdec_get_chosen_prop
                0x0000000000000000       0x48 lib/built-in.o
 .text.fdtdec_get_chosen_node
                0x0000000000000000       0x3c lib/built-in.o
 .text.fdtdec_check_fdt
                0x0000000000000000       0x18 lib/built-in.o
 .text.fdtdec_lookup_phandle
                0x0000000000000000       0x44 lib/built-in.o
 .text.decode_timing_property
                0x0000000000000000       0x8c lib/built-in.o
 .text.fdtdec_get_int_array_count
                0x0000000000000000       0x68 lib/built-in.o
 .text.fdtdec_locate_array
                0x0000000000000000       0x28 lib/built-in.o
 .text.fdtdec_get_bool
                0x0000000000000000       0x20 lib/built-in.o
 .text.fdtdec_get_child_count
                0x0000000000000000       0x40 lib/built-in.o
 .text.fdtdec_get_byte_array
                0x0000000000000000       0x48 lib/built-in.o
 .text.fdtdec_locate_byte_array
                0x0000000000000000       0x24 lib/built-in.o
 .text.fdtdec_get_config_bool
                0x0000000000000000       0x54 lib/built-in.o
 .text.fdtdec_decode_region
                0x0000000000000000       0x5c lib/built-in.o
 .text.fdtdec_get_addr
                0x0000000000000000        0x8 lib/built-in.o
 .text.fdt_get_named_resource
                0x0000000000000000       0x68 lib/built-in.o
 .text.fdtdec_decode_memory_region
                0x0000000000000000      0x130 lib/built-in.o
 .text.fdtdec_decode_display_timing
                0x0000000000000000      0x304 lib/built-in.o
 .text.fdtdec_setup_memory_size
                0x0000000000000000       0x5c lib/built-in.o
 .text.fdtdec_setup_memory_banksize
                0x0000000000000000      0x128 lib/built-in.o
 .text.print_freq
                0x0000000000000000      0x138 lib/built-in.o
 .text.iter_div_u64_rem
                0x0000000000000000       0x28 lib/built-in.o
 .text.copy_from_user
                0x0000000000000000       0x18 lib/built-in.o
 .text.get_mem  0x0000000000000000       0x2c lib/built-in.o
 .text.kmem_cache_alloc
                0x0000000000000000        0xc lib/built-in.o
 .text.membuff_purge
                0x0000000000000000        0xc lib/built-in.o
 .text.membuff_putraw
                0x0000000000000000       0xb4 lib/built-in.o
 .text.membuff_putbyte
                0x0000000000000000       0x3c lib/built-in.o
 .text.membuff_getraw
                0x0000000000000000       0x80 lib/built-in.o
 .text.membuff_getbyte
                0x0000000000000000       0x3c lib/built-in.o
 .text.membuff_peekbyte
                0x0000000000000000       0x3c lib/built-in.o
 .text.membuff_get
                0x0000000000000000       0x90 lib/built-in.o
 .text.membuff_put
                0x0000000000000000       0x88 lib/built-in.o
 .text.membuff_isempty
                0x0000000000000000       0x10 lib/built-in.o
 .text.membuff_avail
                0x0000000000000000       0x54 lib/built-in.o
 .text.membuff_size
                0x0000000000000000       0x10 lib/built-in.o
 .text.membuff_makecontig
                0x0000000000000000       0xa4 lib/built-in.o
 .text.membuff_free
                0x0000000000000000       0x3c lib/built-in.o
 .text.membuff_readline
                0x0000000000000000       0xa4 lib/built-in.o
 .text.membuff_extend_by
                0x0000000000000000       0xe0 lib/built-in.o
 .text.membuff_init
                0x0000000000000000       0x10 lib/built-in.o
 .text.membuff_new
                0x0000000000000000       0x48 lib/built-in.o
 .text.membuff_uninit
                0x0000000000000000        0xc lib/built-in.o
 .text.membuff_dispose
                0x0000000000000000       0x28 lib/built-in.o
 .text.strswab  0x0000000000000000       0x3c lib/built-in.o
 .text.strlcpy  0x0000000000000000       0x50 lib/built-in.o
 .text.memscan  0x0000000000000000       0x24 lib/built-in.o
 .text.table_compute_checksum
                0x0000000000000000       0x2c lib/built-in.o
 .text.get_ticks
                0x0000000000000000       0x44 lib/built-in.o
 .text.print_hex_dump_bytes
                0x0000000000000000        0x4 lib/built-in.o
 .text.vsnprintf
                0x0000000000000000       0x50 lib/built-in.o
 .text.scnprintf
                0x0000000000000000       0x74 lib/built-in.o
 .text.__assert_fail
                0x0000000000000000       0x18 lib/built-in.o
 .text.print_grouped_ull
                0x0000000000000000       0x90 lib/built-in.o
 .text.str2long
                0x0000000000000000       0x50 lib/built-in.o
 .text.panic_str
                0x0000000000000000       0x18 lib/built-in.o
 .text.strmhz   0x0000000000000000       0x6c lib/built-in.o
 .rodata.fdt_create_empty_tree.str1.1
                0x0000000000000000        0x1 lib/built-in.o
 .rodata.fdt_find_regions
                0x0000000000000000       0x12 lib/built-in.o
 .rodata.fdt_next_region
                0x0000000000000000       0x12 lib/built-in.o
 .rodata.fdt_add_alias_regions.str1.1
                0x0000000000000000        0x8 lib/built-in.o
 .rodata.crc7_syndrome_table
                0x0000000000000000      0x100 lib/built-in.o
 .rodata.crc16_tab
                0x0000000000000000      0x200 lib/built-in.o
 .rodata.errno_message
                0x0000000000000000      0x3e8 lib/built-in.o
 .rodata.errno_str.str1.1
                0x0000000000000000        0x8 lib/built-in.o
 .rodata.sysmem_can_alloc.str1.1
                0x0000000000000000       0x37 lib/built-in.o
 .rodata.sha256_der_prefix
                0x0000000000000000       0x13 lib/built-in.o
 .rodata.list_sort.str1.1
                0x0000000000000000       0x34 lib/built-in.o
 .rodata.iavb_crc32_tab
                0x0000000000000000      0x400 lib/built-in.o
 .rodata.avb_property_descriptor_validate_and_byteswap.str1.1
                0x0000000000000000       0xa8 lib/built-in.o
 .rodata.avb_property_lookup_uint64.str1.1
                0x0000000000000000       0x17 lib/built-in.o
 .rodata.property_lookup_desc_foreach.str1.1
                0x0000000000000000       0x24 lib/built-in.o
 .rodata.CSWTCH.47
                0x0000000000000000       0x48 lib/built-in.o
 .rodata.avb_slot_verify_result_to_string.str1.1
                0x0000000000000000       0x33 lib/built-in.o
 .rodata.avb_atx_validate_unlock_credential.str1.1
                0x0000000000000000       0xe7 lib/built-in.o
 .rodata.verify_certificate.str1.1
                0x0000000000000000       0x85 lib/built-in.o
 .rodata.verify_pik_certificate.str1.1
                0x0000000000000000       0x41 lib/built-in.o
 .rodata.avb_user_verification_get.str1.1
                0x0000000000000000       0x30 lib/built-in.o
 .rodata.avb_user_verification_set.str1.1
                0x0000000000000000       0x25 lib/built-in.o
 .rodata.load_top_level_vbmeta_header.str1.1
                0x0000000000000000      0x1f6 lib/built-in.o
 .rodata.avb_user_verity_get.str1.1
                0x0000000000000000       0x30 lib/built-in.o
 .rodata.avb_user_verity_set.str1.1
                0x0000000000000000       0x25 lib/built-in.o
 .rodata.rk_avb_close_optee_client.str1.1
                0x0000000000000000       0x26 lib/built-in.o
 .rodata.rk_avb_read_vbootkey_hash.str1.1
                0x0000000000000000       0x22 lib/built-in.o
 .rodata.__func__.6610
                0x0000000000000000       0x18 lib/built-in.o
 .rodata.avb_ab_mark_slot_successful.str1.1
                0x0000000000000000       0x2c lib/built-in.o
 .rodata.rk_avb_append_part_slot.str1.1
                0x0000000000000000       0x21 lib/built-in.o
 .rodata.sha1_der_prefix
                0x0000000000000000        0xf lib/built-in.o
 .rodata.z_errmsg
                0x0000000000000000       0x50 lib/built-in.o
 .rodata.compat_names
                0x0000000000000000      0x148 lib/built-in.o
 .rodata.fdtdec_decode_display_timing.str1.1
                0x0000000000000000       0xca lib/built-in.o
 .rodata.fdtdec_decode_memory_region.str1.1
                0x0000000000000000       0x25 lib/built-in.o
 .rodata.fdtdec_get_chosen_prop.str1.1
                0x0000000000000000        0x8 lib/built-in.o
 .rodata.fdtdec_next_alias.str1.1
                0x0000000000000000        0x7 lib/built-in.o
 .rodata.fdtdec_setup_memory_banksize.str1.1
                0x0000000000000000       0x13 lib/built-in.o
 .rodata.names.6033
                0x0000000000000000        0x3 lib/built-in.o
 .rodata.hex_asc_upper
                0x0000000000000000       0x11 lib/built-in.o
 .rodata.__assert_fail.str1.1
                0x0000000000000000       0x22 lib/built-in.o
 .rodata.print_grouped_ull.str1.1
                0x0000000000000000        0xb lib/built-in.o
 .rodata.strmhz.str1.1
                0x0000000000000000        0xb lib/built-in.o
 .eh_frame      0x0000000000000000     0x65f0 lib/built-in.o
 .data.cur      0x0000000000000000        0x4 lib/built-in.o
 .data.current  0x0000000000000000        0x8 lib/built-in.o
 .bss           0x0000000000000000        0x0 lib/built-in.o
 .text          0x0000000000000000        0x0 net/built-in.o
 .text.add_ip_checksums
                0x0000000000000000       0x40 net/built-in.o
 .text.eth_init_state_only
                0x0000000000000000       0x38 net/built-in.o
 .text.eth_is_active
                0x0000000000000000       0x34 net/built-in.o
 .text.net_get_udp_handler
                0x0000000000000000        0xc net/built-in.o
 .text.net_set_arp_handler
                0x0000000000000000       0x18 net/built-in.o
 .text.random_port
                0x0000000000000000       0x20 net/built-in.o
 .text.vlan_to_string
                0x0000000000000000       0x44 net/built-in.o
 .text.env_get_vlan
                0x0000000000000000       0x14 net/built-in.o
 .rodata.vlan_to_string.str1.1
                0x0000000000000000        0x8 net/built-in.o
 .eh_frame      0x0000000000000000     0x1120 net/built-in.o
 .data          0x0000000000000000        0x0 net/built-in.o
 .data.tftp_timeout_ms
                0x0000000000000000        0x8 net/built-in.o
 .bss           0x0000000000000000        0x0 net/built-in.o
 .bss.net_busy_flag
                0x0000000000000000        0x4 net/built-in.o
 .text          0x0000000000000000        0x0 test/built-in.o
 .eh_frame      0x0000000000000000      0x468 test/built-in.o
 .data          0x0000000000000000        0x0 test/built-in.o
 .bss           0x0000000000000000        0x0 test/built-in.o
 .text          0x0000000000000000        0x0 test/dm/built-in.o
 .eh_frame      0x0000000000000000       0xc0 test/dm/built-in.o
 .data          0x0000000000000000        0x0 test/dm/built-in.o
 .bss           0x0000000000000000        0x0 test/dm/built-in.o

Memory Configuration

Name             Origin             Length             Attributes
*default*        0x0000000000000000 0xffffffffffffffff

Linker script and memory map

Address of section .text set to 0x200000
                0x0000000000000000                . = 0x0
                0x0000000000000000                . = ALIGN (0x8)

.text           0x0000000000200000    0xa3a50
 *(.__image_copy_start)
 .__image_copy_start
                0x0000000000200000        0x0 arch/arm/lib/built-in.o
                0x0000000000200000                __image_copy_start
 arch/arm/cpu/armv8/start.o(.text*)
 .text          0x0000000000200000      0x158 arch/arm/cpu/armv8/start.o
                0x0000000000200000                _start
                0x0000000000200008                _TEXT_BASE
                0x0000000000200010                _end_ofs
                0x0000000000200018                _bss_start_ofs
                0x0000000000200020                _bss_end_ofs
                0x000000000020002c                save_boot_params_ret
                0x0000000000200094                apply_core_errata
                0x00000000002000b8                lowlevel_init
                0x00000000002000f4                smp_kick_all_cpus
                0x0000000000200100                c_runtime_cpu_setup
                0x0000000000200138                save_boot_params
 *(.text*)
 *fill*         0x0000000000200158      0x6a8 
 .text          0x0000000000200800      0x6d4 arch/arm/cpu/armv8/built-in.o
                0x0000000000200800                vectors
                0x0000000000200cec                __arm_smccc_smc
                0x0000000000200d18                __arm_smccc_hvc
                0x0000000000200d48                cpu_suspend
                0x0000000000200de8                cpu_do_suspend
                0x0000000000200e54                cpu_resume
                0x0000000000200e74                cpu_do_resume
 .text.sdelay   0x0000000000200ed4        0xc arch/arm/cpu/armv8/built-in.o
                0x0000000000200ed4                sdelay
 .text.cleanup_before_linux
                0x0000000000200ee0       0x28 arch/arm/cpu/armv8/built-in.o
                0x0000000000200ee0                cleanup_before_linux
 .text.get_tbclk
                0x0000000000200f08        0x8 arch/arm/cpu/armv8/built-in.o
                0x0000000000200f08                get_tbclk
 .text.get_ticks
                0x0000000000200f10       0x10 arch/arm/cpu/armv8/built-in.o
                0x0000000000200f10                get_ticks
 .text.count_required_pts
                0x0000000000200f20       0xf8 arch/arm/cpu/armv8/built-in.o
 .text.create_table
                0x0000000000201018       0x70 arch/arm/cpu/armv8/built-in.o
 .text.split_block
                0x0000000000201088       0x90 arch/arm/cpu/armv8/built-in.o
 .text.get_tcr  0x0000000000201118       0xe4 arch/arm/cpu/armv8/built-in.o
                0x0000000000201118                get_tcr
 .text.find_pte
                0x00000000002011fc       0x8c arch/arm/cpu/armv8/built-in.o
 .text.get_page_table_size
                0x0000000000201288       0x48 arch/arm/cpu/armv8/built-in.o
                0x0000000000201288                get_page_table_size
 .text.setup_pgtables
                0x00000000002012d0      0x16c arch/arm/cpu/armv8/built-in.o
                0x00000000002012d0                setup_pgtables
 .text.mmu_setup
                0x000000000020143c      0x13c arch/arm/cpu/armv8/built-in.o
                0x000000000020143c                mmu_setup
 .text.invalidate_dcache_all
                0x0000000000201578       0x14 arch/arm/cpu/armv8/built-in.o
                0x0000000000201578                invalidate_dcache_all
 .text.flush_dcache_all
                0x000000000020158c       0x14 arch/arm/cpu/armv8/built-in.o
                0x000000000020158c                flush_dcache_all
 .text.invalidate_dcache_range
                0x00000000002015a0        0x4 arch/arm/cpu/armv8/built-in.o
                0x00000000002015a0                invalidate_dcache_range
 .text.flush_dcache_range
                0x00000000002015a4        0x4 arch/arm/cpu/armv8/built-in.o
                0x00000000002015a4                flush_dcache_range
 .text.dcache_enable
                0x00000000002015a8      0x110 arch/arm/cpu/armv8/built-in.o
                0x00000000002015a8                dcache_enable
 .text.dcache_disable
                0x00000000002016b8       0x84 arch/arm/cpu/armv8/built-in.o
                0x00000000002016b8                dcache_disable
 .text.icache_disable
                0x000000000020173c       0x64 arch/arm/cpu/armv8/built-in.o
                0x000000000020173c                icache_disable
 .text.invalidate_icache_all
                0x00000000002017a0       0x14 arch/arm/cpu/armv8/built-in.o
                0x00000000002017a0                invalidate_icache_all
 .text.icache_enable
                0x00000000002017b4       0x74 arch/arm/cpu/armv8/built-in.o
                0x00000000002017b4                icache_enable
 .text.__asm_dcache_level
                0x0000000000201828       0x64 arch/arm/cpu/armv8/built-in.o
                0x0000000000201828                __asm_dcache_level
 .text.__asm_dcache_all
                0x000000000020188c       0x60 arch/arm/cpu/armv8/built-in.o
                0x000000000020188c                __asm_dcache_all
 .text.__asm_flush_dcache_all
                0x00000000002018ec        0x8 arch/arm/cpu/armv8/built-in.o
                0x00000000002018ec                __asm_flush_dcache_all
 .text.__asm_invalidate_dcache_all
                0x00000000002018f4        0x8 arch/arm/cpu/armv8/built-in.o
                0x00000000002018f4                __asm_invalidate_dcache_all
 .text.__asm_flush_dcache_range
                0x00000000002018fc       0x34 arch/arm/cpu/armv8/built-in.o
                0x00000000002018fc                __asm_flush_dcache_range
 .text.__asm_invalidate_dcache_range
                0x0000000000201930       0x30 arch/arm/cpu/armv8/built-in.o
                0x0000000000201930                __asm_invalidate_dcache_range
 .text.__asm_invalidate_icache_all
                0x0000000000201960        0xc arch/arm/cpu/armv8/built-in.o
                0x0000000000201960                __asm_invalidate_icache_all
 .text.__asm_invalidate_l3_dcache
                0x000000000020196c        0x8 arch/arm/cpu/armv8/built-in.o
                0x000000000020196c                __asm_invalidate_l3_dcache
 .text.__asm_flush_l3_dcache
                0x0000000000201974        0x8 arch/arm/cpu/armv8/built-in.o
                0x0000000000201974                __asm_flush_l3_dcache
 .text.__asm_invalidate_l3_icache
                0x000000000020197c        0x8 arch/arm/cpu/armv8/built-in.o
                0x000000000020197c                __asm_invalidate_l3_icache
 .text.__asm_invalidate_tlb_all
                0x0000000000201984       0x4c arch/arm/cpu/armv8/built-in.o
                0x0000000000201984                __asm_invalidate_tlb_all
 .text.armv8_switch_to_el2
                0x00000000002019d0       0xb8 arch/arm/cpu/armv8/built-in.o
                0x00000000002019d0                armv8_switch_to_el2
 .text.cpu_suspend_save
                0x0000000000201a88       0x2c arch/arm/cpu/armv8/built-in.o
                0x0000000000201a88                cpu_suspend_save
 *fill*         0x0000000000201ab4        0x4 
 .text          0x0000000000201ab8      0x28c arch/arm/lib/built-in.o
                0x0000000000201ab8                _main
                0x0000000000201b38                relocate_code
                0x0000000000201c0c                gic_init_secure
                0x0000000000201c40                gic_init_secure_percpu
                0x0000000000201d20                gic_kick_secondary_cpus
                0x0000000000201d30                gic_wait_for_interrupt
 .text.arch_fixup_fdt
                0x0000000000201d44       0x94 arch/arm/lib/built-in.o
                0x0000000000201d44                arch_fixup_fdt
 .text.arch_lmb_reserve
                0x0000000000201dd8       0x14 arch/arm/lib/built-in.o
                0x0000000000201dd8                arch_lmb_reserve
 .text.setup_board_tags
                0x0000000000201dec        0x4 arch/arm/lib/built-in.o
                0x0000000000201dec                setup_board_tags
 .text.boot_prep_linux
                0x0000000000201df0       0xd0 arch/arm/lib/built-in.o
 .text.update_os_arch_secondary_cores
                0x0000000000201ec0        0x4 arch/arm/lib/built-in.o
                0x0000000000201ec0                update_os_arch_secondary_cores
 .text.boot_jump_linux
                0x0000000000201ec4      0x104 arch/arm/lib/built-in.o
 .text.do_bootm_linux
                0x0000000000201fc8       0x7c arch/arm/lib/built-in.o
                0x0000000000201fc8                do_bootm_linux
 .text.boot_prep_vxworks
                0x0000000000202044       0x50 arch/arm/lib/built-in.o
                0x0000000000202044                boot_prep_vxworks
 .text.boot_jump_vxworks
                0x0000000000202094        0xc arch/arm/lib/built-in.o
                0x0000000000202094                boot_jump_vxworks
 .text.bootz_setup
                0x00000000002020a0       0x7c arch/arm/lib/built-in.o
                0x00000000002020a0                bootz_setup
 .text.arch_reserve_stacks
                0x000000000020211c       0x10 arch/arm/lib/built-in.o
                0x000000000020211c                arch_reserve_stacks
 .text.show_regs
                0x000000000020212c      0x25c arch/arm/lib/built-in.o
                0x000000000020212c                show_regs
 .text.do_bad_sync
                0x0000000000202388       0x30 arch/arm/lib/built-in.o
                0x0000000000202388                do_bad_sync
 .text.do_bad_irq
                0x00000000002023b8       0x30 arch/arm/lib/built-in.o
                0x00000000002023b8                do_bad_irq
 .text.do_bad_fiq
                0x00000000002023e8       0x30 arch/arm/lib/built-in.o
                0x00000000002023e8                do_bad_fiq
 .text.do_bad_error
                0x0000000000202418       0x30 arch/arm/lib/built-in.o
                0x0000000000202418                do_bad_error
 .text.do_sync  0x0000000000202448       0x30 arch/arm/lib/built-in.o
                0x0000000000202448                do_sync
 .text.do_fiq   0x0000000000202478       0x30 arch/arm/lib/built-in.o
                0x0000000000202478                do_fiq
 .text.do_error
                0x00000000002024a8       0x30 arch/arm/lib/built-in.o
                0x00000000002024a8                do_error
 .text.dump_core_stack
                0x00000000002024d8       0xdc arch/arm/lib/built-in.o
                0x00000000002024d8                dump_core_stack
 .text.flush_cache
                0x00000000002025b4        0x8 arch/arm/lib/built-in.o
                0x00000000002025b4                flush_cache
 *fill*         0x00000000002025bc        0x4 
 .text          0x00000000002025c0       0x28 arch/arm/mach-rockchip/built-in.o
                0x00000000002025c0                armv8_el2_to_aarch32
 .text.fit_board_verify_required_sigs
                0x00000000002025e8       0x4c arch/arm/mach-rockchip/built-in.o
                0x00000000002025e8                fit_board_verify_required_sigs
 .text.rockchip_rockusb_get_chip_info
                0x0000000000202634       0x2c arch/arm/mach-rockchip/built-in.o
                0x0000000000202634                rockchip_rockusb_get_chip_info
 .text.get_bcb_recovery_msg
                0x0000000000202660        0xc arch/arm/mach-rockchip/built-in.o
                0x0000000000202660                get_bcb_recovery_msg
 .text.rockchip_get_boot_mode
                0x000000000020266c      0x3ac arch/arm/mach-rockchip/built-in.o
                0x000000000020266c                rockchip_get_boot_mode
 .text.setup_boot_mode
                0x0000000000202a18       0xd4 arch/arm/mach-rockchip/built-in.o
                0x0000000000202a18                setup_boot_mode
 .text.boot_devtype_init
                0x0000000000202aec      0x148 arch/arm/mach-rockchip/built-in.o
 .text.crypto_csum
                0x0000000000202c34       0x60 arch/arm/mach-rockchip/built-in.o
 .text.rockchip_get_bootdev
                0x0000000000202c94      0x2a8 arch/arm/mach-rockchip/built-in.o
                0x0000000000202c94                rockchip_get_bootdev
 .text.rockchip_dnl_key_pressed
                0x0000000000202f3c       0x18 arch/arm/mach-rockchip/built-in.o
                0x0000000000202f3c                rockchip_dnl_key_pressed
 .text.setup_download_mode
                0x0000000000202f54       0xd8 arch/arm/mach-rockchip/built-in.o
                0x0000000000202f54                setup_download_mode
 .text.rockchip_read_dtb_file
                0x000000000020302c      0x138 arch/arm/mach-rockchip/built-in.o
                0x000000000020302c                rockchip_read_dtb_file
 .text.rockchip_set_serialno
                0x0000000000203164      0x198 arch/arm/mach-rockchip/built-in.o
 .text.rk_board_late_init
                0x00000000002032fc        0x8 arch/arm/mach-rockchip/built-in.o
                0x00000000002032fc                rk_board_late_init
 .text.rk_board_fdt_fixup
                0x0000000000203304        0x8 arch/arm/mach-rockchip/built-in.o
                0x0000000000203304                rk_board_fdt_fixup
 .text.set_armclk_rate
                0x000000000020330c        0x8 arch/arm/mach-rockchip/built-in.o
                0x000000000020330c                set_armclk_rate
 .text.fb_set_reboot_flag
                0x0000000000203314       0x38 arch/arm/mach-rockchip/built-in.o
                0x0000000000203314                fb_set_reboot_flag
 .text.board_late_init
                0x000000000020334c      0x368 arch/arm/mach-rockchip/built-in.o
                0x000000000020334c                board_late_init
 .text.board_init
                0x00000000002036b4       0xd4 arch/arm/mach-rockchip/built-in.o
                0x00000000002036b4                board_init
 .text.interrupt_debugger_init
                0x0000000000203788        0x8 arch/arm/mach-rockchip/built-in.o
                0x0000000000203788                interrupt_debugger_init
 .text.board_fdt_fixup
                0x0000000000203790       0x24 arch/arm/mach-rockchip/built-in.o
                0x0000000000203790                board_fdt_fixup
 .text.arch_preboot_os
                0x00000000002037b4       0x14 arch/arm/mach-rockchip/built-in.o
                0x00000000002037b4                arch_preboot_os
 .text.enable_caches
                0x00000000002037c8       0x14 arch/arm/mach-rockchip/built-in.o
                0x00000000002037c8                enable_caches
 .text.board_lmb_reserve
                0x00000000002037dc       0xa4 arch/arm/mach-rockchip/built-in.o
                0x00000000002037dc                board_lmb_reserve
 .text.board_bidram_reserve
                0x0000000000203880       0x58 arch/arm/mach-rockchip/built-in.o
                0x0000000000203880                board_bidram_reserve
 .text.board_bidram_parse_fn
                0x00000000002038d8        0xc arch/arm/mach-rockchip/built-in.o
                0x00000000002038d8                board_bidram_parse_fn
 .text.board_init_f_boot_flags
                0x00000000002038e4       0x84 arch/arm/mach-rockchip/built-in.o
                0x00000000002038e4                board_init_f_boot_flags
 .text.bootm_board_start
                0x0000000000203968       0xd0 arch/arm/mach-rockchip/built-in.o
                0x0000000000203968                bootm_board_start
 .text.board_do_bootm
                0x0000000000203a38      0x170 arch/arm/mach-rockchip/built-in.o
                0x0000000000203a38                board_do_bootm
 .text.autoboot_command_fail_handle
                0x0000000000203ba8        0x4 arch/arm/mach-rockchip/built-in.o
                0x0000000000203ba8                autoboot_command_fail_handle
 .text.board_quiesce_devices
                0x0000000000203bac       0x20 arch/arm/mach-rockchip/built-in.o
                0x0000000000203bac                board_quiesce_devices
 .text.iomem_show
                0x0000000000203bcc       0xc0 arch/arm/mach-rockchip/built-in.o
                0x0000000000203bcc                iomem_show
 .text.iomem_show_by_match
                0x0000000000203c8c      0x120 arch/arm/mach-rockchip/built-in.o
 .text.do_iomem_by_match
                0x0000000000203dac       0x94 arch/arm/mach-rockchip/built-in.o
 .text.is_hotkey
                0x0000000000203e40       0x84 arch/arm/mach-rockchip/built-in.o
                0x0000000000203e40                is_hotkey
 .text.hotkey_run
                0x0000000000203ec4       0xe0 arch/arm/mach-rockchip/built-in.o
                0x0000000000203ec4                hotkey_run
 .text.dtb_check_ok
                0x0000000000203fa4       0xec arch/arm/mach-rockchip/built-in.o
 .text.init_kernel_dtb
                0x0000000000204090      0x600 arch/arm/mach-rockchip/built-in.o
                0x0000000000204090                init_kernel_dtb
 .text.__invoke_sip_fn_smc
                0x0000000000204690       0x58 arch/arm/mach-rockchip/built-in.o
 .text.psci_system_suspend
                0x00000000002046e8       0x34 arch/arm/mach-rockchip/built-in.o
                0x00000000002046e8                psci_system_suspend
 .text.sip_smc_secure_reg_read
                0x000000000020471c       0x28 arch/arm/mach-rockchip/built-in.o
                0x000000000020471c                sip_smc_secure_reg_read
 .text.sip_smc_secure_reg_write
                0x0000000000204744       0x2c arch/arm/mach-rockchip/built-in.o
                0x0000000000204744                sip_smc_secure_reg_write
 .text.vendor_ops
                0x0000000000204770       0xf0 arch/arm/mach-rockchip/built-in.o
 .text.vendor_test_reset
                0x0000000000204860       0xf0 arch/arm/mach-rockchip/built-in.o
 .text.vendor_storage_init
                0x0000000000204950      0x204 arch/arm/mach-rockchip/built-in.o
                0x0000000000204950                vendor_storage_init
 .text.vendor_storage_read
                0x0000000000204b54       0xa8 arch/arm/mach-rockchip/built-in.o
                0x0000000000204b54                vendor_storage_read
 .text.vendor_storage_write
                0x0000000000204bfc      0x210 arch/arm/mach-rockchip/built-in.o
                0x0000000000204bfc                vendor_storage_write
 .text.vendor_storage_test
                0x0000000000204e0c      0x49c arch/arm/mach-rockchip/built-in.o
                0x0000000000204e0c                vendor_storage_test
 .text.add_file_to_list
                0x00000000002052a8       0xdc arch/arm/mach-rockchip/built-in.o
 .text.replace_resource_entry
                0x0000000000205384       0xf0 arch/arm/mach-rockchip/built-in.o
 .text.read_bmp.isra.0
                0x0000000000205474      0x100 arch/arm/mach-rockchip/built-in.o
 .text.read_logo_bmps
                0x0000000000205574       0x84 arch/arm/mach-rockchip/built-in.o
 .text.resource_image_check_header
                0x00000000002055f8       0x30 arch/arm/mach-rockchip/built-in.o
                0x00000000002055f8                resource_image_check_header
 .text.get_file_info
                0x0000000000205628      0x458 arch/arm/mach-rockchip/built-in.o
 .text.rockchip_read_resource_file
                0x0000000000205a80       0xf4 arch/arm/mach-rockchip/built-in.o
                0x0000000000205a80                rockchip_read_resource_file
 .text.rockchip_read_resource_dtb
                0x0000000000205b74       0xa8 arch/arm/mach-rockchip/built-in.o
                0x0000000000205b74                rockchip_read_resource_dtb
 .text.param_parse_atf_mem
                0x0000000000205c1c       0x88 arch/arm/mach-rockchip/built-in.o
                0x0000000000205c1c                param_parse_atf_mem
 .text.param_parse_optee_mem
                0x0000000000205ca4       0xd4 arch/arm/mach-rockchip/built-in.o
                0x0000000000205ca4                param_parse_optee_mem
 .text.param_parse_common_resv_mem
                0x0000000000205d78        0xc arch/arm/mach-rockchip/built-in.o
                0x0000000000205d78                param_parse_common_resv_mem
 .text.param_parse_bootdev
                0x0000000000205d84       0xe8 arch/arm/mach-rockchip/built-in.o
                0x0000000000205d84                param_parse_bootdev
 .text.param_parse_ddr_mem
                0x0000000000205e6c      0x158 arch/arm/mach-rockchip/built-in.o
                0x0000000000205e6c                param_parse_ddr_mem
 .text.rockchip_sdram_size
                0x0000000000205fc4      0x194 arch/arm/mach-rockchip/built-in.o
                0x0000000000205fc4                rockchip_sdram_size
 .text.dram_init_banksize
                0x0000000000206158       0x18 arch/arm/mach-rockchip/built-in.o
                0x0000000000206158                dram_init_banksize
 .text.dram_init
                0x0000000000206170       0x34 arch/arm/mach-rockchip/built-in.o
                0x0000000000206170                dram_init
 .text.board_get_usable_ram_top
                0x00000000002061a4       0x18 arch/arm/mach-rockchip/built-in.o
                0x00000000002061a4                board_get_usable_ram_top
 .text.rockchip_get_clk
                0x00000000002061bc       0x14 arch/arm/mach-rockchip/built-in.o
                0x00000000002061bc                rockchip_get_clk
 .text.arch_cpu_init
                0x00000000002061d0       0x60 arch/arm/mach-rockchip/built-in.o
                0x00000000002061d0                arch_cpu_init
 .text.board_debug_uart_init
                0x0000000000206230       0x38 arch/arm/mach-rockchip/built-in.o
                0x0000000000206230                board_debug_uart_init
 .text.atags_overflow
                0x0000000000206268       0x48 arch/arm/mach-rockchip/built-in.o
 .text.bad_magic
                0x00000000002062b0       0x54 arch/arm/mach-rockchip/built-in.o
 .text.js_hash  0x0000000000206304       0x4c arch/arm/mach-rockchip/built-in.o
 .text.atags_get_tag
                0x0000000000206350       0x9c arch/arm/mach-rockchip/built-in.o
                0x0000000000206350                atags_get_tag
 .text.atags_destroy
                0x00000000002063ec       0x28 arch/arm/mach-rockchip/built-in.o
                0x00000000002063ec                atags_destroy
 .text.atags_stat
                0x0000000000206414       0xc0 arch/arm/mach-rockchip/built-in.o
                0x0000000000206414                atags_stat
 .text.atags_print_tag
                0x00000000002064d4      0x6ec arch/arm/mach-rockchip/built-in.o
                0x00000000002064d4                atags_print_tag
 .text.atags_print_all_tags
                0x0000000000206bc0       0x64 arch/arm/mach-rockchip/built-in.o
                0x0000000000206bc0                atags_print_all_tags
 .text.do_dump_atags
                0x0000000000206c24       0x1c arch/arm/mach-rockchip/built-in.o
 .text.rk_board_init
                0x0000000000206c40       0x78 board/rockchip/evb_rk3399/built-in.o
                0x0000000000206c40                rk_board_init
 .text.misc_init_r
                0x0000000000206cb8      0x19c board/rockchip/evb_rk3399/built-in.o
                0x0000000000206cb8                misc_init_r
 .text.get_board_serial
                0x0000000000206e54       0x48 board/rockchip/evb_rk3399/built-in.o
                0x0000000000206e54                get_board_serial
 .text.usb_gadget_handle_interrupts
                0x0000000000206e9c       0x1c board/rockchip/evb_rk3399/built-in.o
                0x0000000000206e9c                usb_gadget_handle_interrupts
 .text.board_usb_init
                0x0000000000206eb8        0xc board/rockchip/evb_rk3399/built-in.o
                0x0000000000206eb8                board_usb_init
 .text.do_reboot_brom
                0x0000000000206ec4       0x40 cmd/built-in.o
 .text.do_go_exec
                0x0000000000206f04       0x10 cmd/built-in.o
                0x0000000000206f04                do_go_exec
 .text.do_go    0x0000000000206f14       0x88 cmd/built-in.o
 .text.do_bootm
                0x0000000000206f9c      0x114 cmd/built-in.o
                0x0000000000206f9c                do_bootm
 .text.do_bootd
                0x00000000002070b0       0x24 cmd/built-in.o
                0x00000000002070b0                do_bootd
 .text.bootm_maybe_autostart
                0x00000000002070d4       0x74 cmd/built-in.o
                0x00000000002070d4                bootm_maybe_autostart
 .text.do_help  0x0000000000207148       0x3c cmd/built-in.o
 .text.do_version
                0x0000000000207184       0x40 cmd/built-in.o
 .text.blk_common_cmd
                0x00000000002071c4      0x32c cmd/built-in.o
                0x00000000002071c4                blk_common_cmd
 .text.source   0x00000000002074f0      0x1d4 cmd/built-in.o
                0x00000000002074f0                source
 .text.do_source
                0x00000000002076c4       0x7c cmd/built-in.o
 .text.print_num
                0x0000000000207740       0x14 cmd/built-in.o
 .text.do_bdinfo
                0x0000000000207754      0x144 cmd/built-in.o
 .text.do_avb_version
                0x0000000000207898       0x38 cmd/built-in.o
                0x0000000000207898                do_avb_version
 .text.do_avb_verify_partition
                0x00000000002078d0       0xa4 cmd/built-in.o
                0x00000000002078d0                do_avb_verify_partition
 .text.do_boot_avb
                0x0000000000207974       0x90 cmd/built-in.o
 .text.do_boot_android
                0x0000000000207a04       0xf8 cmd/built-in.o
 .text.do_avb_read_rollback_index
                0x0000000000207afc       0xa8 cmd/built-in.o
                0x0000000000207afc                do_avb_read_rollback_index
 .text.do_avb_read_is_device_unlocked
                0x0000000000207ba4       0xa8 cmd/built-in.o
                0x0000000000207ba4                do_avb_read_is_device_unlocked
 .text.do_avb_write_is_device_unlocked
                0x0000000000207c4c       0xa4 cmd/built-in.o
                0x0000000000207c4c                do_avb_write_is_device_unlocked
 .text.do_avb_get_size_of_partition
                0x0000000000207cf0       0x9c cmd/built-in.o
                0x0000000000207cf0                do_avb_get_size_of_partition
 .text.do_avb_get_get_unique_guid_for_partition
                0x0000000000207d8c       0xa0 cmd/built-in.o
                0x0000000000207d8c                do_avb_get_get_unique_guid_for_partition
 .text.do_perm_attr_test
                0x0000000000207e2c       0xd4 cmd/built-in.o
                0x0000000000207e2c                do_perm_attr_test
 .text.do_avb_write_rollback_index
                0x0000000000207f00       0xb8 cmd/built-in.o
                0x0000000000207f00                do_avb_write_rollback_index
 .text.do_avb_read
                0x0000000000207fb8      0x144 cmd/built-in.o
                0x0000000000207fb8                do_avb_read
 .text.do_android_print_hdr
                0x00000000002080fc       0xbc cmd/built-in.o
 .text.read_rockchip_image
                0x00000000002081b8      0x12c cmd/built-in.o
 .text.do_boot_rockchip
                0x00000000002082e4      0x238 cmd/built-in.o
 .text.do_bootz
                0x000000000020851c       0xf4 cmd/built-in.o
                0x000000000020851c                do_bootz
 .text.do_booti
                0x0000000000208610      0x16c cmd/built-in.o
                0x0000000000208610                do_booti
 .text.do_coninfo
                0x000000000020877c       0xdc cmd/built-in.o
 .text.do_charge_display
                0x0000000000208858      0x10c cmd/built-in.o
 .text.dump_hash
                0x0000000000208964       0x74 cmd/built-in.o
 .text.do_crypto_csum
                0x00000000002089d8      0x260 cmd/built-in.o
 .text.do_dtimg
                0x0000000000208c38       0x90 cmd/built-in.o
 .text.dtimg_get_fdt.part.0
                0x0000000000208cc8      0x104 cmd/built-in.o
 .text.do_dtimg_start
                0x0000000000208dcc       0x1c cmd/built-in.o
 .text.do_dtimg_dump
                0x0000000000208de8       0x80 cmd/built-in.o
 .text.do_dtimg_size
                0x0000000000208e68       0x1c cmd/built-in.o
 .text.do_echo  0x0000000000208e84       0xd4 cmd/built-in.o
 .text.do_exit  0x0000000000208f58       0x40 cmd/built-in.o
 .text.do_ext4_size
                0x0000000000208f98        0x8 cmd/built-in.o
                0x0000000000208f98                do_ext4_size
 .text.do_ext4_load
                0x0000000000208fa0        0x8 cmd/built-in.o
                0x0000000000208fa0                do_ext4_load
 .text.do_ext4_ls
                0x0000000000208fa8        0x8 cmd/built-in.o
                0x0000000000208fa8                do_ext4_ls
 .text.do_ext2load
                0x0000000000208fb0        0x8 cmd/built-in.o
                0x0000000000208fb0                do_ext2load
 .text.do_ext2ls
                0x0000000000208fb8        0x8 cmd/built-in.o
 .text.do_fat_size
                0x0000000000208fc0        0x8 cmd/built-in.o
                0x0000000000208fc0                do_fat_size
 .text.do_fat_fsload
                0x0000000000208fc8        0x8 cmd/built-in.o
                0x0000000000208fc8                do_fat_fsload
 .text.do_fat_ls
                0x0000000000208fd0        0x8 cmd/built-in.o
 .text.do_fat_fsinfo
                0x0000000000208fd8       0x90 cmd/built-in.o
 .text.do_fat_fswrite
                0x0000000000209068      0x120 cmd/built-in.o
 .text.fdt_valid
                0x0000000000209188       0xcc cmd/built-in.o
 .text.is_printable_string
                0x0000000000209254       0x80 cmd/built-in.o
 .text.print_data
                0x00000000002092d4      0x1bc cmd/built-in.o
 .text.set_working_fdt_addr
                0x0000000000209490       0x18 cmd/built-in.o
                0x0000000000209490                set_working_fdt_addr
 .text.do_fdt   0x00000000002094a8      0xf88 cmd/built-in.o
 .text.do_size_wrapper
                0x000000000020a430        0x8 cmd/built-in.o
 .text.do_load_wrapper
                0x000000000020a438        0x8 cmd/built-in.o
 .text.do_save_wrapper
                0x000000000020a440        0x8 cmd/built-in.o
 .text.do_ls_wrapper
                0x000000000020a448        0x8 cmd/built-in.o
 .text.do_fstype_wrapper
                0x000000000020a450        0x4 cmd/built-in.o
 .text.do_download
                0x000000000020a454       0x44 cmd/built-in.o
 .text.do_mem_md
                0x000000000020a498       0xf8 cmd/built-in.o
 .text.do_mem_base
                0x000000000020a590       0x4c cmd/built-in.o
 .text.do_mem_crc
                0x000000000020a5dc       0x30 cmd/built-in.o
 .text.do_mem_loop
                0x000000000020a60c      0x128 cmd/built-in.o
 .text.do_mem_cmp
                0x000000000020a734      0x1a8 cmd/built-in.o
 .text.mod_mem.isra.2.part.3
                0x000000000020a8dc      0x1b8 cmd/built-in.o
 .text.do_mem_mm
                0x000000000020aa94       0x1c cmd/built-in.o
 .text.do_mem_mw
                0x000000000020aab0      0x108 cmd/built-in.o
 .text.do_mem_cp
                0x000000000020abb8       0xc0 cmd/built-in.o
 .text.do_mem_nm
                0x000000000020ac78       0x1c cmd/built-in.o
 .text.extract_range
                0x000000000020ac94       0xf8 cmd/built-in.o
 .text.do_mii   0x000000000020ad8c      0x8d8 cmd/built-in.o
 .text.do_mdio  0x000000000020b664      0x4a0 cmd/built-in.o
 .text.init_mmc_device
                0x000000000020bb04       0x64 cmd/built-in.o
 .text.do_mmc_rescan
                0x000000000020bb68       0x28 cmd/built-in.o
 .text.do_mmcrpmb
                0x000000000020bb90      0x120 cmd/built-in.o
 .text.do_mmcops
                0x000000000020bcb0       0xd0 cmd/built-in.o
 .text.do_mmc_dev
                0x000000000020bd80      0x14c cmd/built-in.o
 .text.do_mmcrpmb_counter
                0x000000000020becc       0x50 cmd/built-in.o
 .text.do_mmcrpmb_write
                0x000000000020bf1c      0x108 cmd/built-in.o
 .text.do_mmcrpmb_read
                0x000000000020c024      0x120 cmd/built-in.o
 .text.do_mmcrpmb_key
                0x000000000020c144       0xa4 cmd/built-in.o
 .text.do_mmc_testefuse
                0x000000000020c1e8       0x50 cmd/built-in.o
 .text.do_mmc_hwpartition
                0x000000000020c238      0x4ec cmd/built-in.o
 .text.do_mmc_list
                0x000000000020c724       0x1c cmd/built-in.o
 .text.do_mmcinfo
                0x000000000020c740      0x3b4 cmd/built-in.o
 .text.do_mmc_setdsr
                0x000000000020caf4       0xbc cmd/built-in.o
 .text.do_mmc_test_secure_storage
                0x000000000020cbb0       0xec cmd/built-in.o
 .text.do_mmc_part
                0x000000000020cc9c       0x64 cmd/built-in.o
 .text.do_mmc_erase
                0x000000000020cd00      0x104 cmd/built-in.o
 .text.do_mmc_write
                0x000000000020ce04      0x124 cmd/built-in.o
 .text.do_mmc_read
                0x000000000020cf28       0xfc cmd/built-in.o
 .text.init_rpmb
                0x000000000020d024       0xb0 cmd/built-in.o
                0x000000000020d024                init_rpmb
 .text.finish_rpmb
                0x000000000020d0d4       0x30 cmd/built-in.o
                0x000000000020d0d4                finish_rpmb
 .text.do_readcounter
                0x000000000020d104       0x28 cmd/built-in.o
                0x000000000020d104                do_readcounter
 .text.do_programkey
                0x000000000020d12c       0x28 cmd/built-in.o
                0x000000000020d12c                do_programkey
 .text.do_authenticatedread
                0x000000000020d154       0x34 cmd/built-in.o
                0x000000000020d154                do_authenticatedread
 .text.do_authenticatedwrite
                0x000000000020d188       0x28 cmd/built-in.o
                0x000000000020d188                do_authenticatedwrite
 .text.do_returnmmc
                0x000000000020d1b0        0xc cmd/built-in.o
                0x000000000020d1b0                do_returnmmc
 .text.netboot_common
                0x000000000020d1bc      0x270 cmd/built-in.o
 .text.do_bootp
                0x000000000020d42c        0xc cmd/built-in.o
 .text.do_dhcp  0x000000000020d438        0xc cmd/built-in.o
 .text.do_nfs   0x000000000020d444        0xc cmd/built-in.o
 .text.do_tftpb
                0x000000000020d450       0x54 cmd/built-in.o
                0x000000000020d450                do_tftpb
 .text.do_ping  0x000000000020d4a4       0x7c cmd/built-in.o
 .text.do_part_list
                0x000000000020d520      0x188 cmd/built-in.o
 .text.do_part_start
                0x000000000020d6a8       0xd8 cmd/built-in.o
 .text.do_part_size
                0x000000000020d780       0xd8 cmd/built-in.o
 .text.do_part  0x000000000020d858      0x114 cmd/built-in.o
 .text.eol_or_eof
                0x000000000020d96c       0x24 cmd/built-in.o
 .text.do_pxe   0x000000000020d990       0x8c cmd/built-in.o
 .text.label_print
                0x000000000020da1c       0x1c cmd/built-in.o
 .text.do_get_tftp
                0x000000000020da38       0x3c cmd/built-in.o
 .text.from_env
                0x000000000020da74       0x3c cmd/built-in.o
 .text.get_string
                0x000000000020dab0       0xe0 cmd/built-in.o
 .text.label_destroy
                0x000000000020db90       0x68 cmd/built-in.o
 .text.destroy_pxe_menu
                0x000000000020dbf8       0x68 cmd/built-in.o
 .text.get_token
                0x000000000020dc60      0x12c cmd/built-in.o
 .text.parse_sliteral
                0x000000000020dd8c       0x6c cmd/built-in.o
 .text.parse_integer
                0x000000000020ddf8       0x84 cmd/built-in.o
 .text.do_get_any
                0x000000000020de7c       0x44 cmd/built-in.o
 .text.do_get_fat
                0x000000000020dec0       0x40 cmd/built-in.o
 .text.do_get_ext2
                0x000000000020df00       0x40 cmd/built-in.o
 .text.format_mac_pxe.constprop.7
                0x000000000020df40       0x6c cmd/built-in.o
 .text.get_relfile
                0x000000000020dfac      0x138 cmd/built-in.o
 .text.get_pxe_file
                0x000000000020e0e4       0x60 cmd/built-in.o
 .text.handle_include
                0x000000000020e144       0xc8 cmd/built-in.o
 .text.parse_pxefile_top
                0x000000000020e20c      0x3e4 cmd/built-in.o
 .text.parse_pxefile
                0x000000000020e5f0       0x7c cmd/built-in.o
 .text.get_pxelinux_path
                0x000000000020e66c       0x98 cmd/built-in.o
 .text.do_pxe_get
                0x000000000020e704      0x170 cmd/built-in.o
 .text.get_relfile_envaddr
                0x000000000020e874       0x5c cmd/built-in.o
 .text.label_boot
                0x000000000020e8d0      0x578 cmd/built-in.o
 .text.handle_pxe_menu
                0x000000000020ee48      0x174 cmd/built-in.o
 .text.do_pxe_boot
                0x000000000020efbc       0xf0 cmd/built-in.o
 .text.do_sysboot
                0x000000000020f0ac      0x1fc cmd/built-in.o
 .text.rkusb_fini
                0x000000000020f2a8       0x70 cmd/built-in.o
 .text.rkusb_erase_sector
                0x000000000020f318       0x20 cmd/built-in.o
 .text.rkusb_write_sector
                0x000000000020f338       0x60 cmd/built-in.o
 .text.do_rkusb
                0x000000000020f398      0x414 cmd/built-in.o
 .text.rkusb_read_sector
                0x000000000020f7ac       0x50 cmd/built-in.o
 .text.bytes_per_second
                0x000000000020f7fc       0x4c cmd/built-in.o
 .text.do_spi_flash
                0x000000000020f848      0x7dc cmd/built-in.o
 .text.do_false
                0x0000000000210024        0x8 cmd/built-in.o
 .text.do_true  0x000000000021002c        0x8 cmd/built-in.o
 .text.do_test  0x0000000000210034      0x35c cmd/built-in.o
 .text.usb_get_class_desc
                0x0000000000210390       0xc0 cmd/built-in.o
 .text.usb_display_class_sub
                0x0000000000210450      0x18c cmd/built-in.o
 .text.usb_display_desc
                0x00000000002105dc      0x144 cmd/built-in.o
 .text.usb_show_tree_graph
                0x0000000000210720      0x234 cmd/built-in.o
 .text.usb_show_subtree
                0x0000000000210954       0x38 cmd/built-in.o
 .text.usb_for_each_root_dev
                0x000000000021098c       0x68 cmd/built-in.o
 .text.usb_display_string
                0x00000000002109f4       0x4c cmd/built-in.o
 .text.usb_display_config
                0x0000000000210a40      0x254 cmd/built-in.o
 .text.usb_show_info
                0x0000000000210c94       0x78 cmd/built-in.o
 .text.usb_find_device
                0x0000000000210d0c       0xb0 cmd/built-in.o
 .text.do_usbboot
                0x0000000000210dbc        0xc cmd/built-in.o
 .text.do_usb_start
                0x0000000000210dc8       0x30 cmd/built-in.o
 .text.usb_show_tree
                0x0000000000210df8        0xc cmd/built-in.o
                0x0000000000210df8                usb_show_tree
 .text.do_usb   0x0000000000210e04      0x404 cmd/built-in.o
 .text.common_diskboot
                0x0000000000211208      0x2a8 cmd/built-in.o
                0x0000000000211208                common_diskboot
 .text.do_fastboot
                0x00000000002114b0      0x168 cmd/built-in.o
 .text.ums_fini
                0x0000000000211618       0x70 cmd/built-in.o
 .text.ums_write_sector
                0x0000000000211688       0x20 cmd/built-in.o
 .text.ums_read_sector
                0x00000000002116a8       0x20 cmd/built-in.o
 .text.do_usb_mass_storage
                0x00000000002116c8      0x34c cmd/built-in.o
 .text.extract_val
                0x0000000000211a14       0xa0 cmd/built-in.o
 .text.extract_env
                0x0000000000211ab4       0xf8 cmd/built-in.o
 .text.set_gpt_info.isra.0.constprop.2
                0x0000000000211bac      0x46c cmd/built-in.o
 .text.do_gpt   0x0000000000212018      0x2dc cmd/built-in.o
 .text.test_secure_storage_default
                0x00000000002122f4      0x240 cmd/built-in.o
                0x00000000002122f4                test_secure_storage_default
 .text.test_secure_storage_security_partition
                0x0000000000212534      0x230 cmd/built-in.o
                0x0000000000212534                test_secure_storage_security_partition
 .text.do_rkimg_test
                0x0000000000212764      0x170 cmd/built-in.o
 .text.do_env_delete
                0x00000000002128d4       0xc0 cmd/built-in.o
 .text.do_env   0x0000000000212994       0x80 cmd/built-in.o
 .text.env_print
                0x0000000000212a14       0xc4 cmd/built-in.o
 .text.do_env_print
                0x0000000000212ad8       0xe0 cmd/built-in.o
 .text.do_env_import
                0x0000000000212bb8      0x254 cmd/built-in.o
 .text.do_env_default
                0x0000000000212e0c       0x84 cmd/built-in.o
 .text.do_env_exists
                0x0000000000212e90       0x60 cmd/built-in.o
 .text._do_env_set.isra.1
                0x0000000000212ef0      0x1b8 cmd/built-in.o
 .text.do_env_set
                0x00000000002130a8       0x20 cmd/built-in.o
 .text.get_env_id
                0x00000000002130c8        0xc cmd/built-in.o
                0x00000000002130c8                get_env_id
 .text.env_set  0x00000000002130d4       0x58 cmd/built-in.o
                0x00000000002130d4                env_set
 .text.env_set_ulong
                0x000000000021312c       0x2c cmd/built-in.o
                0x000000000021312c                env_set_ulong
 .text.env_set_hex
                0x0000000000213158       0x3c cmd/built-in.o
                0x0000000000213158                env_set_hex
 .text.do_env_export
                0x0000000000213194      0x208 cmd/built-in.o
 .text.envmatch
                0x000000000021339c       0x7c cmd/built-in.o
                0x000000000021339c                envmatch
 .text.env_get_f
                0x0000000000213418       0xe8 cmd/built-in.o
                0x0000000000213418                env_get_f
 .text.env_get  0x0000000000213500       0x70 cmd/built-in.o
                0x0000000000213500                env_get
 .text.env_exist.part.4
                0x0000000000213570      0x138 cmd/built-in.o
 .text.env_exist
                0x00000000002136a8       0x18 cmd/built-in.o
                0x00000000002136a8                env_exist
 .text.env_append
                0x00000000002136c0       0xec cmd/built-in.o
 .text.env_delete
                0x00000000002137ac       0xa4 cmd/built-in.o
                0x00000000002137ac                env_delete
 .text.env_update_filter
                0x0000000000213850      0x40c cmd/built-in.o
                0x0000000000213850                env_update_filter
 .text.env_update
                0x0000000000213c5c        0x8 cmd/built-in.o
                0x0000000000213c5c                env_update
 .text.do_env_update
                0x0000000000213c64       0x18 cmd/built-in.o
 .text.env_get_hex
                0x0000000000213c7c       0x44 cmd/built-in.o
                0x0000000000213c7c                env_get_hex
 .text.env_get_ulong
                0x0000000000213cc0       0x3c cmd/built-in.o
                0x0000000000213cc0                env_get_ulong
 .text.do_env_edit.part.7
                0x0000000000213cfc       0xb4 cmd/built-in.o
 .text.do_env_edit
                0x0000000000213db0       0x28 cmd/built-in.o
 .text.board_init_f_alloc_reserve
                0x0000000000213dd8       0x10 common/built-in.o
                0x0000000000213dd8                board_init_f_alloc_reserve
 .text.board_init_f_init_reserve
                0x0000000000213de8       0x30 common/built-in.o
                0x0000000000213de8                board_init_f_init_reserve
 .text.show_boot_progress
                0x0000000000213e18        0x8 common/built-in.o
                0x0000000000213e18                show_boot_progress
 .text.main_loop
                0x0000000000213e20       0x68 common/built-in.o
                0x0000000000213e20                main_loop
 .text.mdelay   0x0000000000213e88       0x34 common/built-in.o
 .text.dummy    0x0000000000213ebc        0x4 common/built-in.o
 .text.get_version
                0x0000000000213ec0        0x8 common/built-in.o
                0x0000000000213ec0                get_version
 .text.jumptable_init
                0x0000000000213ec8      0x1f0 common/built-in.o
                0x0000000000213ec8                jumptable_init
 .text.hash_finish_crc32
                0x00000000002140b8       0x38 common/built-in.o
 .text.hash_update_crc32
                0x00000000002140f0       0x34 common/built-in.o
 .text.hash_init_crc32
                0x0000000000214124       0x30 common/built-in.o
 .text.hash_finish_sha256
                0x0000000000214154       0x48 common/built-in.o
 .text.hash_update_sha256
                0x000000000021419c       0x24 common/built-in.o
 .text.hash_init_sha256
                0x00000000002141c0       0x34 common/built-in.o
 .text.hash_finish_sha1
                0x00000000002141f4       0x48 common/built-in.o
 .text.hash_update_sha1
                0x000000000021423c       0x24 common/built-in.o
 .text.hash_init_sha1
                0x0000000000214260       0x34 common/built-in.o
 .text.hash_lookup_algo
                0x0000000000214294       0x74 common/built-in.o
                0x0000000000214294                hash_lookup_algo
 .text.hash_block
                0x0000000000214308       0x80 common/built-in.o
                0x0000000000214308                hash_block
 .text.hash_command
                0x0000000000214388      0x1d4 common/built-in.o
                0x0000000000214388                hash_command
 .text.b_reset  0x000000000021455c       0x18 common/built-in.o
 .text.static_get
                0x0000000000214574       0x1c common/built-in.o
 .text.static_peek
                0x0000000000214590        0xc common/built-in.o
 .text.mapset   0x000000000021459c       0x20 common/built-in.o
 .text.syntax_err
                0x00000000002145bc        0xc common/built-in.o
 .text.free_pipe_list
                0x00000000002145c8       0xf0 common/built-in.o
 .text.xmalloc  0x00000000002146b8       0x28 common/built-in.o
 .text.new_pipe
                0x00000000002146e0       0x24 common/built-in.o
 .text.xrealloc
                0x0000000000214704       0x28 common/built-in.o
 .text.done_command
                0x000000000021472c       0x94 common/built-in.o
 .text.done_pipe
                0x00000000002147c0       0x50 common/built-in.o
 .text.done_word
                0x0000000000214810      0x28c common/built-in.o
 .text.is_assignment
                0x0000000000214a9c       0x4c common/built-in.o
 .text.file_get
                0x0000000000214ae8      0x1f4 common/built-in.o
 .text.do_showvar
                0x0000000000214cdc      0x10c common/built-in.o
 .text.b_addchr
                0x0000000000214de8       0x94 common/built-in.o
 .text.b_addqchr
                0x0000000000214e7c       0x58 common/built-in.o
 .text.file_peek
                0x0000000000214ed4        0xc common/built-in.o
 .text.get_local_var
                0x0000000000214ee0       0x9c common/built-in.o
                0x0000000000214ee0                get_local_var
 .text.set_local_var
                0x0000000000214f7c      0x1a4 common/built-in.o
                0x0000000000214f7c                set_local_var
 .text.insert_var_value_sub
                0x0000000000215120      0x2c0 common/built-in.o
 .text.parse_string_outer
                0x00000000002153e0       0xe4 common/built-in.o
                0x00000000002153e0                parse_string_outer
 .text.run_list_real
                0x00000000002154c4      0x728 common/built-in.o
 .text.parse_stream_outer
                0x0000000000215bec      0x660 common/built-in.o
 .text.parse_file_outer
                0x000000000021624c       0x40 common/built-in.o
                0x000000000021624c                parse_file_outer
 .text.u_boot_hush_start
                0x000000000021628c       0x58 common/built-in.o
                0x000000000021628c                u_boot_hush_start
 .text.bootdelay_process
                0x00000000002162e4       0xcc common/built-in.o
                0x00000000002162e4                bootdelay_process
 .text.autoboot_command
                0x00000000002163b0      0x114 common/built-in.o
                0x00000000002163b0                autoboot_command
 .text.log_init
                0x00000000002164c4       0x10 common/built-in.o
 .text.display_text_info
                0x00000000002164d4        0x8 common/built-in.o
 .text.setup_mon_len
                0x00000000002164dc       0x20 common/built-in.o
 .text.reserve_round_4k
                0x00000000002164fc       0x14 common/built-in.o
 .text.reserve_uboot
                0x0000000000216510       0x2c common/built-in.o
 .text.reserve_malloc
                0x000000000021653c       0x1c common/built-in.o
 .text.reserve_global_data
                0x0000000000216558       0x1c common/built-in.o
 .text.reserve_fdt
                0x0000000000216574       0x48 common/built-in.o
 .text.reserve_mmu
                0x00000000002165bc       0x4c common/built-in.o
                0x00000000002165bc                reserve_mmu
 .text.reloc_fdt
                0x0000000000216608       0x4c common/built-in.o
 .text.announce_serial
                0x0000000000216654       0x5c common/built-in.o
 .text.setup_reloc
                0x00000000002166b0       0x7c common/built-in.o
 .text.announce_dram_init
                0x000000000021672c       0x20 common/built-in.o
 .text.reserve_board
                0x000000000021674c       0x48 common/built-in.o
 .text.reserve_video
                0x0000000000216794       0x2c common/built-in.o
 .text.initf_dm
                0x00000000002167c0        0x8 common/built-in.o
 .text.initf_bootstage
                0x00000000002167c8       0x1c common/built-in.o
 .text.init_baud_rate
                0x00000000002167e4       0x4c common/built-in.o
 .text.arch_cpu_init_dm
                0x0000000000216830        0x8 common/built-in.o
                0x0000000000216830                arch_cpu_init_dm
 .text.arch_fpga_init
                0x0000000000216838        0x8 common/built-in.o
                0x0000000000216838                arch_fpga_init
 .text.mach_cpu_init
                0x0000000000216840        0x8 common/built-in.o
                0x0000000000216840                mach_cpu_init
 .text.reserve_trace
                0x0000000000216848        0x8 common/built-in.o
 .text.setup_machine
                0x0000000000216850        0x8 common/built-in.o
 .text.reserve_bootstage
                0x0000000000216858        0x8 common/built-in.o
 .text.display_new_sp
                0x0000000000216860        0x8 common/built-in.o
 .text.reloc_bootstage
                0x0000000000216868        0x8 common/built-in.o
 .text.initf_console_record
                0x0000000000216870        0x8 common/built-in.o
 .text.reserve_arch
                0x0000000000216878        0x8 common/built-in.o
                0x0000000000216878                reserve_arch
 .text.board_add_ram_info
                0x0000000000216880        0x4 common/built-in.o
                0x0000000000216880                board_add_ram_info
 .text.show_dram_config
                0x0000000000216884       0x68 common/built-in.o
 .text.setup_dest_addr
                0x00000000002168ec       0x48 common/built-in.o
 .text.reserve_stacks
                0x0000000000216934       0x1c common/built-in.o
 .text.board_init_f
                0x0000000000216950       0x2c common/built-in.o
                0x0000000000216950                board_init_f
 .text.initr_trace
                0x000000000021697c        0x8 common/built-in.o
 .text.initr_reloc
                0x0000000000216984       0x18 common/built-in.o
 .text.initr_reloc_global_data
                0x000000000021699c       0x24 common/built-in.o
 .text.initr_announce
                0x00000000002169c0       0x10 common/built-in.o
 .text.run_main_loop
                0x00000000002169d0       0x10 common/built-in.o
 .text.initr_net
                0x00000000002169e0       0x24 common/built-in.o
 .text.initr_ethaddr
                0x0000000000216a04       0x28 common/built-in.o
 .text.initr_jumptable
                0x0000000000216a2c       0x18 common/built-in.o
 .text.initr_serial
                0x0000000000216a44       0x18 common/built-in.o
 .text.initr_env_nowhere
                0x0000000000216a5c       0x1c common/built-in.o
 .text.initr_dm
                0x0000000000216a78       0x14 common/built-in.o
 .text.initr_of_live
                0x0000000000216a8c        0xc common/built-in.o
 .text.initr_enable_interrupts
                0x0000000000216a98       0x18 common/built-in.o
 .text.initr_bootstage
                0x0000000000216ab0       0x1c common/built-in.o
 .text.initr_malloc
                0x0000000000216acc       0x28 common/built-in.o
 .text.initr_caches
                0x0000000000216af4       0x18 common/built-in.o
 .text.bootstage_relocate
                0x0000000000216b0c        0x8 common/built-in.o
 .text.initr_barrier
                0x0000000000216b14        0x8 common/built-in.o
 .text.initr_console_record
                0x0000000000216b1c        0x8 common/built-in.o
 .text.power_init_board
                0x0000000000216b24        0x8 common/built-in.o
                0x0000000000216b24                power_init_board
 .text.initr_mmc
                0x0000000000216b2c        0x8 common/built-in.o
 .text.board_initr_caches_fixup
                0x0000000000216b34        0x8 common/built-in.o
                0x0000000000216b34                board_initr_caches_fixup
 .text.cpu_secondary_init_r
                0x0000000000216b3c        0x4 common/built-in.o
                0x0000000000216b3c                cpu_secondary_init_r
 .text.initr_secondary_cpu
                0x0000000000216b40       0x18 common/built-in.o
 .text.board_init_r
                0x0000000000216b58       0x24 common/built-in.o
                0x0000000000216b58                board_init_r
 .text.checkboard
                0x0000000000216b7c        0x8 common/built-in.o
                0x0000000000216b7c                checkboard
 .text.show_board_info
                0x0000000000216b84       0x3c common/built-in.o
                0x0000000000216b84                show_board_info
 .text.bootm_find_images
                0x0000000000216bc0       0xd8 common/built-in.o
                0x0000000000216bc0                bootm_find_images
 .text.bootm_parse_comp
                0x0000000000216c98       0x48 common/built-in.o
                0x0000000000216c98                bootm_parse_comp
 .text.bootm_decomp_image
                0x0000000000216ce0      0x1c8 common/built-in.o
                0x0000000000216ce0                bootm_decomp_image
 .text.bootm_disable_interrupts
                0x0000000000216ea8       0x4c common/built-in.o
                0x0000000000216ea8                bootm_disable_interrupts
 .text.do_bootm_states
                0x0000000000216ef4      0x8e4 common/built-in.o
                0x0000000000216ef4                do_bootm_states
 .text.copy_args
                0x00000000002177d8       0x70 common/built-in.o
 .text.do_bootm_rtems
                0x0000000000217848       0x60 common/built-in.o
 .text.do_bootm_plan9
                0x00000000002178a8       0xc8 common/built-in.o
 .text.do_bootm_standalone
                0x0000000000217970       0x74 common/built-in.o
 .text.do_bootm_netbsd
                0x00000000002179e4      0x128 common/built-in.o
 .text.do_bootvx_fdt
                0x0000000000217b0c      0x118 common/built-in.o
                0x0000000000217b0c                do_bootvx_fdt
 .text.do_bootm_vxworks
                0x0000000000217c24       0x3c common/built-in.o
 .text.boot_selected_os
                0x0000000000217c60       0x78 common/built-in.o
                0x0000000000217c60                boot_selected_os
 .text.bootm_os_get_boot_func
                0x0000000000217cd8       0x10 common/built-in.o
                0x0000000000217cd8                bootm_os_get_boot_func
 .text.of_bus_default_map
                0x0000000000217ce8       0xa4 common/built-in.o
 .text.fdt_pack_reg
                0x0000000000217d8c       0xd4 common/built-in.o
 .text.of_bus_default_translate
                0x0000000000217e60       0xb8 common/built-in.o
 .text.fdt_support_default_count_cells
                0x0000000000217f18       0x70 common/built-in.o
                0x0000000000217f18                fdt_support_default_count_cells
 .text.fdt_find_and_setprop
                0x0000000000217f88       0x9c common/built-in.o
                0x0000000000217f88                fdt_find_and_setprop
 .text.fdt_find_or_add_subnode
                0x0000000000218024       0x74 common/built-in.o
                0x0000000000218024                fdt_find_or_add_subnode
 .text.fdt_root
                0x0000000000218098       0x98 common/built-in.o
                0x0000000000218098                fdt_root
 .text.fdt_initrd
                0x0000000000218130      0x1b4 common/built-in.o
                0x0000000000218130                fdt_initrd
 .text.fdt_chosen
                0x00000000002182e4      0x1c0 common/built-in.o
                0x00000000002182e4                fdt_chosen
 .text.do_fixup_by_path
                0x00000000002184a4       0x4c common/built-in.o
                0x00000000002184a4                do_fixup_by_path
 .text.do_fixup_by_path_u32
                0x00000000002184f0       0x28 common/built-in.o
                0x00000000002184f0                do_fixup_by_path_u32
 .text.fdt_fixup_memory_banks
                0x0000000000218518      0x164 common/built-in.o
                0x0000000000218518                fdt_fixup_memory_banks
 .text.fdt_fixup_memory
                0x000000000021867c       0x24 common/built-in.o
                0x000000000021867c                fdt_fixup_memory
 .text.fdt_update_reserved_memory
                0x00000000002186a0       0x98 common/built-in.o
                0x00000000002186a0                fdt_update_reserved_memory
 .text.fdt_fixup_ethernet
                0x0000000000218738      0x1ac common/built-in.o
                0x0000000000218738                fdt_fixup_ethernet
 .text.fdt_shrink_to_minimum
                0x00000000002188e4       0xc8 common/built-in.o
                0x00000000002188e4                fdt_shrink_to_minimum
 .text.fdt_increase_size
                0x00000000002189ac       0x14 common/built-in.o
                0x00000000002189ac                fdt_increase_size
 .text.fdt_translate_address
                0x00000000002189c0      0x264 common/built-in.o
                0x00000000002189c0                fdt_translate_address
 .text.fdt_get_base_address
                0x0000000000218c24       0x4c common/built-in.o
                0x0000000000218c24                fdt_get_base_address
 .text.fdt_overlay_apply_verbose
                0x0000000000218c70       0x80 common/built-in.o
                0x0000000000218c70                fdt_overlay_apply_verbose
 .text.miiphy_get_dev_by_name
                0x0000000000218cf0       0x68 common/built-in.o
                0x0000000000218cf0                miiphy_get_dev_by_name
 .text.miiphy_init
                0x0000000000218d58       0x1c common/built-in.o
                0x0000000000218d58                miiphy_init
 .text.mdio_alloc
                0x0000000000218d74       0x3c common/built-in.o
                0x0000000000218d74                mdio_alloc
 .text.mdio_free
                0x0000000000218db0        0x4 common/built-in.o
                0x0000000000218db0                mdio_free
 .text.mdio_register
                0x0000000000218db4       0x8c common/built-in.o
                0x0000000000218db4                mdio_register
 .text.mdio_unregister
                0x0000000000218e40       0x30 common/built-in.o
                0x0000000000218e40                mdio_unregister
 .text.mdio_list_devices
                0x0000000000218e70       0xc8 common/built-in.o
                0x0000000000218e70                mdio_list_devices
 .text.miiphy_set_current_dev
                0x0000000000218f38       0x40 common/built-in.o
                0x0000000000218f38                miiphy_set_current_dev
 .text.miiphy_get_active_dev
                0x0000000000218f78       0x60 common/built-in.o
 .text.mdio_get_current_dev
                0x0000000000218fd8        0xc common/built-in.o
                0x0000000000218fd8                mdio_get_current_dev
 .text.mdio_phydev_for_ethname
                0x0000000000218fe4       0xa0 common/built-in.o
                0x0000000000218fe4                mdio_phydev_for_ethname
 .text.miiphy_get_current_dev
                0x0000000000219084       0x14 common/built-in.o
                0x0000000000219084                miiphy_get_current_dev
 .text.miiphy_read
                0x0000000000219098       0x5c common/built-in.o
                0x0000000000219098                miiphy_read
 .text.miiphy_write
                0x00000000002190f4       0x5c common/built-in.o
                0x00000000002190f4                miiphy_write
 .text.miiphy_listdev
                0x0000000000219150       0x90 common/built-in.o
                0x0000000000219150                miiphy_listdev
 .text.miiphy_info
                0x00000000002191e0       0xa0 common/built-in.o
                0x00000000002191e0                miiphy_info
 .text.miiphy_speed
                0x0000000000219280       0xc8 common/built-in.o
                0x0000000000219280                miiphy_speed
 .text.miiphy_duplex
                0x0000000000219348       0xc8 common/built-in.o
                0x0000000000219348                miiphy_duplex
 .text.miiphy_is_1000base_x
                0x0000000000219410        0x8 common/built-in.o
                0x0000000000219410                miiphy_is_1000base_x
 .text.usb_set_maxpacket_ep
                0x0000000000219418       0x84 common/built-in.o
 .text.usb_int_msg
                0x000000000021949c        0x4 common/built-in.o
                0x000000000021949c                usb_int_msg
 .text.usb_control_msg
                0x00000000002194a0       0xa0 common/built-in.o
                0x00000000002194a0                usb_control_msg
 .text.usb_get_descriptor
                0x0000000000219540       0x5c common/built-in.o
 .text.get_descriptor_len
                0x000000000021959c       0xa4 common/built-in.o
 .text.usb_setup_descriptor
                0x0000000000219640       0xec common/built-in.o
 .text.usb_get_string
                0x000000000021972c       0xa4 common/built-in.o
 .text.usb_string_sub
                0x00000000002197d0      0x114 common/built-in.o
 .text.usb_bulk_msg
                0x00000000002198e4       0x78 common/built-in.o
                0x00000000002198e4                usb_bulk_msg
 .text.usb_maxpacket
                0x000000000021995c       0x1c common/built-in.o
                0x000000000021995c                usb_maxpacket
 .text.usb_clear_halt
                0x0000000000219978       0xa0 common/built-in.o
                0x0000000000219978                usb_clear_halt
 .text.usb_get_configuration_len
                0x0000000000219a18       0x78 common/built-in.o
                0x0000000000219a18                usb_get_configuration_len
 .text.usb_get_configuration_no
                0x0000000000219a90       0x40 common/built-in.o
                0x0000000000219a90                usb_get_configuration_no
 .text.usb_set_interface
                0x0000000000219ad0       0xc0 common/built-in.o
                0x0000000000219ad0                usb_set_interface
 .text.usb_string
                0x0000000000219b90      0x110 common/built-in.o
                0x0000000000219b90                usb_string
 .text.usb_select_config
                0x0000000000219ca0      0x4b0 common/built-in.o
                0x0000000000219ca0                usb_select_config
 .text.usb_setup_device
                0x000000000021a150      0x124 common/built-in.o
                0x000000000021a150                usb_setup_device
 .text.board_usb_cleanup
                0x000000000021a274        0x8 common/built-in.o
                0x000000000021a274                board_usb_cleanup
 .text.usb_device_has_child_on_port
                0x000000000021a27c        0x8 common/built-in.o
                0x000000000021a27c                usb_device_has_child_on_port
 .text.usb_find_usb2_hub_address_port
                0x000000000021a284       0x90 common/built-in.o
                0x000000000021a284                usb_find_usb2_hub_address_port
 .text.usb_set_port_feature
                0x000000000021a314       0x4c common/built-in.o
 .text.usb_clear_port_feature
                0x000000000021a360       0x4c common/built-in.o
 .text.usb_get_hub_descriptor
                0x000000000021a3ac       0x64 common/built-in.o
 .text.usb_hub_reset_devices
                0x000000000021a410        0x4 common/built-in.o
                0x000000000021a410                usb_hub_reset_devices
 .text.usb_hub_is_root_hub
                0x000000000021a414       0x20 common/built-in.o
                0x000000000021a414                usb_hub_is_root_hub
 .text.usb_get_port_status
                0x000000000021a434       0xc8 common/built-in.o
                0x000000000021a434                usb_get_port_status
 .text.usb_hub_port_connect_change
                0x000000000021a4fc      0x184 common/built-in.o
                0x000000000021a4fc                usb_hub_port_connect_change
 .text.usb_hub_configure
                0x000000000021a680      0x59c common/built-in.o
 .text.usb_hub_scan
                0x000000000021ac1c       0x14 common/built-in.o
                0x000000000021ac1c                usb_hub_scan
 .text.usb_hub_post_probe
                0x000000000021ac30        0x4 common/built-in.o
 .text.usb_stor_irq
                0x000000000021ac34       0x18 common/built-in.o
 .text.usb_stor_BBB_reset
                0x000000000021ac4c      0x110 common/built-in.o
 .text.usb_stor_CB_reset
                0x000000000021ad5c       0xe0 common/built-in.o
 .text.usb_stor_BBB_clear_endpt_stall.isra.0
                0x000000000021ae3c       0x4c common/built-in.o
 .text.usb_stor_BBB_transport
                0x000000000021ae88      0x264 common/built-in.o
 .text.usb_stor_CB_comdat
                0x000000000021b0ec      0x1ec common/built-in.o
 .text.usb_stor_CBI_get_status.isra.2
                0x000000000021b2d8       0xe0 common/built-in.o
 .text.usb_stor_CB_transport
                0x000000000021b3b8      0x1f8 common/built-in.o
 .text.usb_request_sense.constprop.11
                0x000000000021b5b0       0x8c common/built-in.o
 .text.usb_stor_read
                0x000000000021b63c      0x174 common/built-in.o
 .text.usb_stor_write
                0x000000000021b7b0      0x174 common/built-in.o
 .text.usb_stor_info
                0x000000000021b924       0x88 common/built-in.o
                0x000000000021b924                usb_stor_info
 .text.usb_stor_reset
                0x000000000021b9ac        0xc common/built-in.o
                0x000000000021b9ac                usb_stor_reset
 .text.usb_stor_scan
                0x000000000021b9b8       0x4c common/built-in.o
                0x000000000021b9b8                usb_stor_scan
 .text.usb_storage_probe
                0x000000000021ba04      0x26c common/built-in.o
                0x000000000021ba04                usb_storage_probe
 .text.usb_stor_get_info
                0x000000000021bc70      0x2f0 common/built-in.o
                0x000000000021bc70                usb_stor_get_info
 .text.usb_mass_storage_probe
                0x000000000021bf60      0x198 common/built-in.o
 .text.iomux_doenv
                0x000000000021c0f8      0x1d0 common/built-in.o
                0x000000000021c0f8                iomux_doenv
 .text.cea_db_offsets
                0x000000000021c2c8       0x84 common/built-in.o
 .text.drm_add_hdmi_modes
                0x000000000021c34c       0x3c common/built-in.o
 .text.svd_to_vic
                0x000000000021c388       0x1c common/built-in.o
 .text.drm_find_edid_extension
                0x000000000021c3a4       0x4c common/built-in.o
 .text.cea_mode_alternate_clock
                0x000000000021c3f0       0x58 common/built-in.o
 .text.hdmi_mode_alternate_clock
                0x000000000021c448       0x24 common/built-in.o
 .text.find_gtf2
                0x000000000021c46c       0x20 common/built-in.o
 .text.mode_is_rb
                0x000000000021c48c       0x54 common/built-in.o
 .text.hdmi_infoframe_checksum
                0x000000000021c4e0       0x28 common/built-in.o
 .text.hdmi_infoframe_set_checksum
                0x000000000021c508       0x1c common/built-in.o
 .text.snip     0x000000000021c524       0x68 common/built-in.o
 .text.drm_mode_create
                0x000000000021c58c       0x34 common/built-in.o
 .text.drm_display_mode_from_vic_index
                0x000000000021c5c0       0x7c common/built-in.o
 .text.drm_mode_destroy
                0x000000000021c63c        0xc common/built-in.o
 .text.drm_get_vrefresh
                0x000000000021c648       0x74 common/built-in.o
 .text.valid_inferred_mode
                0x000000000021c6bc       0xf4 common/built-in.o
 .text.drm_mode_find_dmt
                0x000000000021c7b0       0xa4 common/built-in.o
 .text.cea_db_is_hdmi_vsdb
                0x000000000021c854       0x48 common/built-in.o
 .text.drm_for_each_detailed_block
                0x000000000021c89c      0x130 common/built-in.o
 .text.drm_gtf2_hbreak
                0x000000000021c9cc       0x3c common/built-in.o
 .text.drm_mode_equal_no_clocks_no_stereo
                0x000000000021ca08       0xb8 common/built-in.o
 .text.drm_match_hdmi_mode
                0x000000000021cac0       0x9c common/built-in.o
 .text.is_rb    0x000000000021cb5c       0x20 common/built-in.o
 .text.drm_monitor_supports_rb
                0x000000000021cb7c       0x40 common/built-in.o
 .text.do_established_modes
                0x000000000021cbbc       0xec common/built-in.o
 .text.drm_do_probe_ddc_edid.constprop.22
                0x000000000021cca8      0x104 common/built-in.o
 .text.drm_edid_block_valid.constprop.23
                0x000000000021cdac      0x12c common/built-in.o
 .text.bitmap_set.constprop.26
                0x000000000021ced8       0x68 common/built-in.o
 .text.drm_gtf_mode_complex.constprop.28
                0x000000000021cf40      0x170 common/built-in.o
 .text.drm_cvt_mode.constprop.31
                0x000000000021d0b0      0x2a4 common/built-in.o
 .text.do_cvt_mode
                0x000000000021d354      0x174 common/built-in.o
 .text.do_detailed_mode
                0x000000000021d4c8      0x454 common/built-in.o
 .text.mode_in_range
                0x000000000021d91c      0x1b8 common/built-in.o
 .text.do_inferred_modes
                0x000000000021dad4      0x2a4 common/built-in.o
 .text.drm_mode_std
                0x000000000021dd78      0x3d0 common/built-in.o
 .text.do_standard_modes
                0x000000000021e148       0x8c common/built-in.o
 .text.edid_check_info
                0x000000000021e1d4       0x64 common/built-in.o
                0x000000000021e1d4                edid_check_info
 .text.edid_get_drm_mode
                0x000000000021e238      0x1c8 common/built-in.o
                0x000000000021e238                edid_get_drm_mode
 .text.edid_print_info
                0x000000000021e400      0x5c4 common/built-in.o
                0x000000000021e400                edid_print_info
 .text.do_cea_modes
                0x000000000021e9c4       0xc8 common/built-in.o
                0x000000000021e9c4                do_cea_modes
 .text.drm_detect_hdmi_monitor
                0x000000000021ea8c       0x74 common/built-in.o
                0x000000000021ea8c                drm_detect_hdmi_monitor
 .text.drm_detect_monitor_audio
                0x000000000021eb00       0x88 common/built-in.o
                0x000000000021eb00                drm_detect_monitor_audio
 .text.drm_match_cea_mode
                0x000000000021eb88       0x9c common/built-in.o
                0x000000000021eb88                drm_match_cea_mode
 .text.drm_default_rgb_quant_range
                0x000000000021ec24       0x24 common/built-in.o
                0x000000000021ec24                drm_default_rgb_quant_range
 .text.drm_add_edid_modes
                0x000000000021ec48     0x1270 common/built-in.o
                0x000000000021ec48                drm_add_edid_modes
 .text.hdmi_vendor_infoframe_init
                0x000000000021feb8       0x4c common/built-in.o
                0x000000000021feb8                hdmi_vendor_infoframe_init
 .text.drm_hdmi_avi_infoframe_quant_range
                0x000000000021ff04       0x54 common/built-in.o
                0x000000000021ff04                drm_hdmi_avi_infoframe_quant_range
 .text.drm_hdmi_vendor_infoframe_from_display_mode
                0x000000000021ff58      0x114 common/built-in.o
                0x000000000021ff58                drm_hdmi_vendor_infoframe_from_display_mode
 .text.hdmi_avi_infoframe_init
                0x000000000022006c       0x3c common/built-in.o
                0x000000000022006c                hdmi_avi_infoframe_init
 .text.drm_hdmi_avi_infoframe_from_display_mode
                0x00000000002200a8       0xf4 common/built-in.o
                0x00000000002200a8                drm_hdmi_avi_infoframe_from_display_mode
 .text.hdmi_vendor_infoframe_pack
                0x000000000022019c      0x10c common/built-in.o
                0x000000000022019c                hdmi_vendor_infoframe_pack
 .text.drm_mode_equal
                0x00000000002202a8       0xac common/built-in.o
                0x00000000002202a8                drm_mode_equal
 .text.drm_mode_sort
                0x0000000000220354      0x11c common/built-in.o
                0x0000000000220354                drm_mode_sort
 .text.drm_mode_prune_invalid
                0x0000000000220470       0xb4 common/built-in.o
                0x0000000000220470                drm_mode_prune_invalid
 .text.drm_rk_filter_whitelist
                0x0000000000220524       0x78 common/built-in.o
                0x0000000000220524                drm_rk_filter_whitelist
 .text.drm_rk_select_mode
                0x000000000022059c       0x68 common/built-in.o
                0x000000000022059c                drm_rk_select_mode
 .text.drm_do_get_edid
                0x0000000000220604      0x134 common/built-in.o
                0x0000000000220604                drm_do_get_edid
 .text.drm_scdc_readb
                0x0000000000220738       0x50 common/built-in.o
                0x0000000000220738                drm_scdc_readb
 .text.drm_scdc_writeb
                0x0000000000220788       0x94 common/built-in.o
                0x0000000000220788                drm_scdc_writeb
 .text.menu_display_statusline
                0x000000000022081c        0x4 common/built-in.o
                0x000000000022081c                menu_display_statusline
 .text.menu_default_set
                0x0000000000220820       0x94 common/built-in.o
                0x0000000000220820                menu_default_set
 .text.menu_get_choice
                0x00000000002208b4      0x1ec common/built-in.o
                0x00000000002208b4                menu_get_choice
 .text.menu_item_add
                0x0000000000220aa0       0xd8 common/built-in.o
                0x0000000000220aa0                menu_item_add
 .text.menu_create
                0x0000000000220b78       0x98 common/built-in.o
                0x0000000000220b78                menu_create
 .text.menu_destroy
                0x0000000000220c10       0x80 common/built-in.o
                0x0000000000220c10                menu_destroy
 .text.delete_char.part.0
                0x0000000000220c90       0xfc common/built-in.o
 .text.cread_add_char
                0x0000000000220d8c      0x100 common/built-in.o
 .text.cli_readline_into_buffer
                0x0000000000220e8c      0x920 common/built-in.o
                0x0000000000220e8c                cli_readline_into_buffer
 .text.cli_readline
                0x00000000002217ac       0x14 common/built-in.o
                0x00000000002217ac                cli_readline
 .text.cli_simple_process_macros
                0x00000000002217c0      0x204 common/built-in.o
                0x00000000002217c0                cli_simple_process_macros
 .text.bounce_buffer_start
                0x00000000002219c4       0x88 common/built-in.o
                0x00000000002219c4                bounce_buffer_start
 .text.bounce_buffer_stop
                0x0000000000221a4c       0x5c common/built-in.o
                0x0000000000221a4c                bounce_buffer_stop
 .text.console_tstc
                0x0000000000221aa8       0x98 common/built-in.o
 .text.console_putc
                0x0000000000221b40       0x70 common/built-in.o
 .text.console_clear
                0x0000000000221bb0       0x60 common/built-in.o
 .text.on_console
                0x0000000000221c10       0xc4 common/built-in.o
 .text.serial_printf
                0x0000000000221cd4       0xb4 common/built-in.o
                0x0000000000221cd4                serial_printf
 .text.putc     0x0000000000221d88       0x40 common/built-in.o
                0x0000000000221d88                putc
 .text.puts     0x0000000000221dc8       0x30 common/built-in.o
                0x0000000000221dc8                puts
 .text.console_getc.isra.0
                0x0000000000221df8       0x30 common/built-in.o
 .text.tstc     0x0000000000221e28       0x30 common/built-in.o
                0x0000000000221e28                tstc
 .text.getc     0x0000000000221e58       0x58 common/built-in.o
                0x0000000000221e58                getc
 .text.flushc   0x0000000000221eb0       0x24 common/built-in.o
                0x0000000000221eb0                flushc
 .text.ctrlc    0x0000000000221ed4       0x54 common/built-in.o
                0x0000000000221ed4                ctrlc
 .text.confirm_yesno
                0x0000000000221f28       0xd8 common/built-in.o
                0x0000000000221f28                confirm_yesno
 .text.disable_ctrlc
                0x0000000000222000       0x14 common/built-in.o
                0x0000000000222000                disable_ctrlc
 .text.had_ctrlc
                0x0000000000222014        0xc common/built-in.o
                0x0000000000222014                had_ctrlc
 .text.clear_ctrlc
                0x0000000000222020        0xc common/built-in.o
                0x0000000000222020                clear_ctrlc
 .text.search_device
                0x000000000022202c       0x34 common/built-in.o
                0x000000000022202c                search_device
 .text.console_assign
                0x0000000000222060       0xdc common/built-in.o
                0x0000000000222060                console_assign
 .text.console_announce_r
                0x000000000022213c       0xbc common/built-in.o
                0x000000000022213c                console_announce_r
 .text.console_init_f
                0x00000000002221f8       0x10 common/built-in.o
                0x00000000002221f8                console_init_f
 .text.console_init_r
                0x0000000000222208      0x19c common/built-in.o
                0x0000000000222208                console_init_r
 .text.sbrk     0x00000000002223a4       0x74 common/built-in.o
                0x00000000002223a4                sbrk
 .text.mem_malloc_init
                0x0000000000222418       0x20 common/built-in.o
                0x0000000000222418                mem_malloc_init
 .text.malloc_trim
                0x0000000000222438       0xd8 common/built-in.o
                0x0000000000222438                malloc_trim
 .text.free     0x0000000000222510      0x21c common/built-in.o
                0x0000000000222510                free
 .text.malloc   0x000000000022272c      0x628 common/built-in.o
                0x000000000022272c                malloc
 .text.calloc   0x0000000000222d54       0xe4 common/built-in.o
                0x0000000000222d54                calloc
 .text.realloc  0x0000000000222e38      0x460 common/built-in.o
                0x0000000000222e38                realloc
 .text.memalign
                0x0000000000223298      0x194 common/built-in.o
                0x0000000000223298                memalign
 .text.initf_malloc
                0x000000000022342c       0x18 common/built-in.o
                0x000000000022342c                initf_malloc
 .text.malloc_simple
                0x0000000000223444       0x38 common/built-in.o
                0x0000000000223444                malloc_simple
 .text.on_loadaddr
                0x000000000022347c       0x40 common/built-in.o
 .text.image_get_load
                0x00000000002234bc       0x38 common/built-in.o
                0x00000000002234bc                image_get_load
 .text.image_get_ep
                0x00000000002234f4       0x38 common/built-in.o
                0x00000000002234f4                image_get_ep
 .text.image_check_hcrc
                0x000000000022352c       0x50 common/built-in.o
                0x000000000022352c                image_check_hcrc
 .text.image_check_dcrc
                0x000000000022357c       0x44 common/built-in.o
                0x000000000022357c                image_check_dcrc
 .text.image_multi_count
                0x00000000002235c0       0x20 common/built-in.o
                0x00000000002235c0                image_multi_count
 .text.image_multi_getimg
                0x00000000002235e0       0x84 common/built-in.o
                0x00000000002235e0                image_multi_getimg
 .text.env_get_bootm_low
                0x0000000000223664       0x30 common/built-in.o
                0x0000000000223664                env_get_bootm_low
 .text.env_get_bootm_size
                0x0000000000223694       0x78 common/built-in.o
                0x0000000000223694                env_get_bootm_size
 .text.env_get_bootm_mapsize
                0x000000000022370c       0x30 common/built-in.o
                0x000000000022370c                env_get_bootm_mapsize
 .text.memmove_wd
                0x000000000022373c       0x10 common/built-in.o
                0x000000000022373c                memmove_wd
 .text.genimg_print_size
                0x000000000022374c       0x38 common/built-in.o
                0x000000000022374c                genimg_print_size
 .text.get_table_entry
                0x0000000000223784       0x20 common/built-in.o
                0x0000000000223784                get_table_entry
 .text.get_table_entry_name
                0x00000000002237a4       0x28 common/built-in.o
                0x00000000002237a4                get_table_entry_name
 .text.genimg_get_os_name
                0x00000000002237cc       0x18 common/built-in.o
                0x00000000002237cc                genimg_get_os_name
 .text.genimg_get_arch_name
                0x00000000002237e4       0x18 common/built-in.o
                0x00000000002237e4                genimg_get_arch_name
 .text.genimg_get_type_name
                0x00000000002237fc       0x18 common/built-in.o
                0x00000000002237fc                genimg_get_type_name
 .text.genimg_get_comp_name
                0x0000000000223814       0x18 common/built-in.o
                0x0000000000223814                genimg_get_comp_name
 .text.image_print_contents
                0x000000000022382c      0x1cc common/built-in.o
                0x000000000022382c                image_print_contents
 .text.get_table_entry_id
                0x00000000002239f8       0x54 common/built-in.o
                0x00000000002239f8                get_table_entry_id
 .text.genimg_get_os_id
                0x0000000000223a4c       0x18 common/built-in.o
                0x0000000000223a4c                genimg_get_os_id
 .text.genimg_get_arch_id
                0x0000000000223a64       0x18 common/built-in.o
                0x0000000000223a64                genimg_get_arch_id
 .text.genimg_get_type_id
                0x0000000000223a7c       0x18 common/built-in.o
                0x0000000000223a7c                genimg_get_type_id
 .text.genimg_get_comp_id
                0x0000000000223a94       0x18 common/built-in.o
                0x0000000000223a94                genimg_get_comp_id
 .text.genimg_get_kernel_addr_fit
                0x0000000000223aac       0x7c common/built-in.o
                0x0000000000223aac                genimg_get_kernel_addr_fit
 .text.genimg_get_kernel_addr
                0x0000000000223b28       0x20 common/built-in.o
                0x0000000000223b28                genimg_get_kernel_addr
 .text.genimg_get_format
                0x0000000000223b48       0x5c common/built-in.o
                0x0000000000223b48                genimg_get_format
 .text.genimg_has_config
                0x0000000000223ba4       0x10 common/built-in.o
                0x0000000000223ba4                genimg_has_config
 .text.boot_get_ramdisk
                0x0000000000223bb4      0x3b4 common/built-in.o
                0x0000000000223bb4                boot_get_ramdisk
 .text.boot_ramdisk_high
                0x0000000000223f68      0x154 common/built-in.o
                0x0000000000223f68                boot_ramdisk_high
 .text.boot_get_setup
                0x00000000002240bc        0x4 common/built-in.o
                0x00000000002240bc                boot_get_setup
 .text.boot_get_loadable
                0x00000000002240c0      0x19c common/built-in.o
                0x00000000002240c0                boot_get_loadable
 .text.image_setup_linux
                0x000000000022425c       0x60 common/built-in.o
                0x000000000022425c                image_setup_linux
 .text.android_image_get_kernel_addr
                0x00000000002242bc       0x6c common/built-in.o
 .text.android_image_get_comp_addr
                0x0000000000224328       0x8c common/built-in.o
 .text.image_load.constprop.5
                0x00000000002243b4      0x658 common/built-in.o
 .text.android_image_major_version
                0x0000000000224a0c       0x10 common/built-in.o
                0x0000000000224a0c                android_image_major_version
 .text.android_bcb_msg_sector_offset
                0x0000000000224a1c       0x20 common/built-in.o
                0x0000000000224a1c                android_bcb_msg_sector_offset
 .text.android_image_get_comp
                0x0000000000224a3c        0xc common/built-in.o
                0x0000000000224a3c                android_image_get_comp
 .text.android_image_get_kernel
                0x0000000000224a48      0x204 common/built-in.o
                0x0000000000224a48                android_image_get_kernel
 .text.android_image_check_header
                0x0000000000224c4c       0x14 common/built-in.o
                0x0000000000224c4c                android_image_check_header
 .text.android_image_separate
                0x0000000000224c60      0x164 common/built-in.o
 .text.android_image_separate_v3
                0x0000000000224dc4      0x114 common/built-in.o
 .text.android_image_get_end
                0x0000000000224ed8      0x16c common/built-in.o
                0x0000000000224ed8                android_image_get_end
 .text.android_image_get_kload
                0x0000000000225044        0x4 common/built-in.o
                0x0000000000225044                android_image_get_kload
 .text.android_image_get_ramdisk
                0x0000000000225048      0x16c common/built-in.o
                0x0000000000225048                android_image_get_ramdisk
 .text.android_image_set_decomp
                0x00000000002251b4       0x84 common/built-in.o
                0x00000000002251b4                android_image_set_decomp
 .text.android_image_memcpy_separate
                0x0000000000225238       0xe8 common/built-in.o
                0x0000000000225238                android_image_memcpy_separate
 .text.populate_andr_img_hdr
                0x0000000000225320      0x840 common/built-in.o
                0x0000000000225320                populate_andr_img_hdr
 .text.android_image_load
                0x0000000000225b60      0x1b8 common/built-in.o
                0x0000000000225b60                android_image_load
 .text.android_print_contents
                0x0000000000225d18      0x488 common/built-in.o
                0x0000000000225d18                android_print_contents
 .text.android_bootloader_message_write
                0x00000000002261a0       0x90 common/built-in.o
 .text.android_slot_verify
                0x0000000000226230      0x424 common/built-in.o
 .text.android_bootloader_message_load
                0x0000000000226654       0x8c common/built-in.o
                0x0000000000226654                android_bootloader_message_load
 .text.android_bcb_write
                0x00000000002266e0       0xbc common/built-in.o
                0x00000000002266e0                android_bcb_write
 .text.android_bootloader_boot_kernel
                0x000000000022679c      0x274 common/built-in.o
                0x000000000022679c                android_bootloader_boot_kernel
 .text.android_assemble_cmdline
                0x0000000000226a10      0x26c common/built-in.o
                0x0000000000226a10                android_assemble_cmdline
 .text.board_select_fdt_index
                0x0000000000226c7c        0x8 common/built-in.o
                0x0000000000226c7c                board_select_fdt_index
 .text.android_fdt_overlay_apply
                0x0000000000226c84      0x3d8 common/built-in.o
                0x0000000000226c84                android_fdt_overlay_apply
 .text.android_image_load_by_partname
                0x000000000022705c       0x84 common/built-in.o
                0x000000000022705c                android_image_load_by_partname
 .text.android_bootloader_boot_flow
                0x00000000002270e0      0x2a4 common/built-in.o
                0x00000000002270e0                android_bootloader_boot_flow
 .text.fdt_error
                0x0000000000227384       0x38 common/built-in.o
 .text.boot_fdt_add_mem_rsv_regions
                0x00000000002273bc      0x190 common/built-in.o
                0x00000000002273bc                boot_fdt_add_mem_rsv_regions
 .text.boot_fdt_add_sysmem_rsv_regions
                0x000000000022754c      0x190 common/built-in.o
                0x000000000022754c                boot_fdt_add_sysmem_rsv_regions
 .text.boot_relocate_fdt
                0x00000000002276dc      0x1cc common/built-in.o
                0x00000000002276dc                boot_relocate_fdt
 .text.boot_get_fdt
                0x00000000002278a8      0x380 common/built-in.o
                0x00000000002278a8                boot_get_fdt
 .text.ft_verify_fdt
                0x0000000000227c28        0x8 common/built-in.o
                0x0000000000227c28                ft_verify_fdt
 .text.image_setup_libfdt
                0x0000000000227c30      0x114 common/built-in.o
                0x0000000000227c30                image_setup_libfdt
 .text.fit_image_get_address
                0x0000000000227d44       0x84 common/built-in.o
 .text.fit_parse_conf
                0x0000000000227dc8       0x78 common/built-in.o
                0x0000000000227dc8                fit_parse_conf
 .text.fit_parse_subimage
                0x0000000000227e40       0x78 common/built-in.o
                0x0000000000227e40                fit_parse_subimage
 .text.fit_get_desc
                0x0000000000227eb8       0x38 common/built-in.o
                0x0000000000227eb8                fit_get_desc
 .text.fit_image_get_node
                0x0000000000227ef0       0x48 common/built-in.o
                0x0000000000227ef0                fit_image_get_node
 .text.fit_image_get_os
                0x0000000000227f38       0x4c common/built-in.o
                0x0000000000227f38                fit_image_get_os
 .text.fit_image_get_arch
                0x0000000000227f84       0x4c common/built-in.o
                0x0000000000227f84                fit_image_get_arch
 .text.fit_image_get_type
                0x0000000000227fd0       0x4c common/built-in.o
                0x0000000000227fd0                fit_image_get_type
 .text.fit_image_get_comp
                0x000000000022801c       0x4c common/built-in.o
                0x000000000022801c                fit_image_get_comp
 .text.fit_image_get_load
                0x0000000000228068       0x10 common/built-in.o
                0x0000000000228068                fit_image_get_load
 .text.fit_image_get_entry
                0x0000000000228078       0x10 common/built-in.o
                0x0000000000228078                fit_image_get_entry
 .text.fit_image_get_data_offset
                0x0000000000228088       0x48 common/built-in.o
                0x0000000000228088                fit_image_get_data_offset
 .text.fit_image_get_data_position
                0x00000000002280d0       0x48 common/built-in.o
                0x00000000002280d0                fit_image_get_data_position
 .text.fit_image_get_data_size
                0x0000000000228118       0x48 common/built-in.o
                0x0000000000228118                fit_image_get_data_size
 .text.fit_image_get_data
                0x0000000000228160       0xdc common/built-in.o
                0x0000000000228160                fit_image_get_data
 .text.fit_image_hash_get_algo
                0x000000000022823c       0x38 common/built-in.o
                0x000000000022823c                fit_image_hash_get_algo
 .text.fit_image_hash_get_value
                0x0000000000228274       0x50 common/built-in.o
                0x0000000000228274                fit_image_hash_get_value
 .text.fit_image_print_data
                0x00000000002282c4      0x15c common/built-in.o
 .text.fit_image_print
                0x0000000000228420      0x38c common/built-in.o
                0x0000000000228420                fit_image_print
 .text.fit_get_end
                0x00000000002287ac       0x10 common/built-in.o
                0x00000000002287ac                fit_get_end
 .text.fit_calculate_hash
                0x00000000002287bc      0x11c common/built-in.o
                0x00000000002287bc                fit_calculate_hash
 .text.fit_image_check_hash
                0x00000000002288d8      0x18c common/built-in.o
                0x00000000002288d8                fit_image_check_hash
 .text.fit_image_verify_with_data
                0x0000000000228a64      0x134 common/built-in.o
                0x0000000000228a64                fit_image_verify_with_data
 .text.fit_image_verify
                0x0000000000228b98       0x90 common/built-in.o
                0x0000000000228b98                fit_image_verify
 .text.fit_image_check_os
                0x0000000000228c28       0x3c common/built-in.o
                0x0000000000228c28                fit_image_check_os
 .text.fit_image_check_arch
                0x0000000000228c64       0x64 common/built-in.o
                0x0000000000228c64                fit_image_check_arch
 .text.fit_image_check_type
                0x0000000000228cc8       0x3c common/built-in.o
                0x0000000000228cc8                fit_image_check_type
 .text.fit_image_check_comp
                0x0000000000228d04       0x3c common/built-in.o
                0x0000000000228d04                fit_image_check_comp
 .text.fit_check_format
                0x0000000000228d40       0x54 common/built-in.o
                0x0000000000228d40                fit_check_format
 .text.fit_conf_get_node
                0x0000000000228d94       0xdc common/built-in.o
                0x0000000000228d94                fit_conf_get_node
 .text.fit_conf_get_prop_node_index
                0x0000000000228e70       0x3c common/built-in.o
                0x0000000000228e70                fit_conf_get_prop_node_index
 .text.fit_conf_get_prop_node
                0x0000000000228eac        0x8 common/built-in.o
                0x0000000000228eac                fit_conf_get_prop_node
 .text.fit_conf_print
                0x0000000000228eb4      0x234 common/built-in.o
                0x0000000000228eb4                fit_conf_print
 .text.fit_print_contents
                0x00000000002290e8      0x210 common/built-in.o
                0x00000000002290e8                fit_print_contents
 .text.fit_get_node_from_config
                0x00000000002292f8       0x54 common/built-in.o
                0x00000000002292f8                fit_get_node_from_config
 .text.fit_image_load_index
                0x000000000022934c      0x5a0 common/built-in.o
                0x000000000022934c                fit_image_load_index
 .text.fit_image_load
                0x00000000002298ec       0x38 common/built-in.o
                0x00000000002298ec                fit_image_load
 .text.boot_get_setup_fit
                0x0000000000229924       0x78 common/built-in.o
                0x0000000000229924                boot_get_setup_fit
 .text.boot_get_fdt_fit
                0x000000000022999c      0x2f4 common/built-in.o
                0x000000000022999c                boot_get_fdt_fit
 .text.get_effective_memsize
                0x0000000000229c90        0x8 common/built-in.o
                0x0000000000229c90                get_effective_memsize
 .text.stdio_serial_clear
                0x0000000000229c98        0x4 common/built-in.o
 .text.stdio_serial_tstc
                0x0000000000229c9c        0x4 common/built-in.o
 .text.stdio_serial_getc
                0x0000000000229ca0        0x4 common/built-in.o
 .text.stdio_serial_puts
                0x0000000000229ca4        0x8 common/built-in.o
 .text.stdio_serial_putc
                0x0000000000229cac        0x8 common/built-in.o
 .text.stdio_get_list
                0x0000000000229cb4       0x10 common/built-in.o
                0x0000000000229cb4                stdio_get_list
 .text.stdio_get_by_name
                0x0000000000229cc4       0xfc common/built-in.o
                0x0000000000229cc4                stdio_get_by_name
 .text.stdio_clone
                0x0000000000229dc0       0x4c common/built-in.o
                0x0000000000229dc0                stdio_clone
 .text.stdio_register_dev
                0x0000000000229e0c       0x58 common/built-in.o
                0x0000000000229e0c                stdio_register_dev
 .text.stdio_register
                0x0000000000229e64        0x8 common/built-in.o
                0x0000000000229e64                stdio_register
 .text.stdio_init_tables
                0x0000000000229e6c       0x18 common/built-in.o
                0x0000000000229e6c                stdio_init_tables
 .text.stdio_add_devices
                0x0000000000229e84       0x84 common/built-in.o
                0x0000000000229e84                stdio_add_devices
 .text.android_dt_check_header
                0x0000000000229f08       0x18 common/built-in.o
                0x0000000000229f08                android_dt_check_header
 .text.android_dt_get_fdt_by_index
                0x0000000000229f20       0x78 common/built-in.o
                0x0000000000229f20                android_dt_get_fdt_by_index
 .text.android_dt_print_contents
                0x0000000000229f98      0x248 common/built-in.o
                0x0000000000229f98                android_dt_print_contents
 .text.write_sparse_image
                0x000000000022a1e0      0x448 common/built-in.o
                0x000000000022a1e0                write_sparse_image
 .text.fb_mmc_sparse_reserve
                0x000000000022a628        0x8 common/built-in.o
 .text.fb_mmc_blk_write
                0x000000000022a630       0xdc common/built-in.o
 .text.fb_mmc_sparse_write
                0x000000000022a70c        0xc common/built-in.o
 .text.part_get_info_by_name_or_alias
                0x000000000022a718       0x7c common/built-in.o
 .text.fb_mmc_flash_write
                0x000000000022a794      0x65c common/built-in.o
                0x000000000022a794                fb_mmc_flash_write
 .text.fb_mmc_erase
                0x000000000022adf0      0x164 common/built-in.o
                0x000000000022adf0                fb_mmc_erase
 .text.fb_mmc_get_erase_grp_size
                0x000000000022af54       0x38 common/built-in.o
                0x000000000022af54                fb_mmc_get_erase_grp_size
 .text.fastboot_fail
                0x000000000022af8c       0x58 common/built-in.o
                0x000000000022af8c                fastboot_fail
 .text.fastboot_okay
                0x000000000022afe4       0x58 common/built-in.o
                0x000000000022afe4                fastboot_okay
 .text.timed_send_info
                0x000000000022b03c        0x4 common/built-in.o
                0x000000000022b03c                timed_send_info
 .text.run_command
                0x000000000022b040       0x14 common/built-in.o
                0x000000000022b040                run_command
 .text.run_command_list
                0x000000000022b054       0x90 common/built-in.o
                0x000000000022b054                run_command_list
 .text.do_run   0x000000000022b0e4       0x88 common/built-in.o
                0x000000000022b0e4                do_run
 .text.cli_process_fdt
                0x000000000022b16c       0x50 common/built-in.o
                0x000000000022b16c                cli_process_fdt
 .text.cli_secure_boot_cmd
                0x000000000022b1bc       0x74 common/built-in.o
                0x000000000022b1bc                cli_secure_boot_cmd
 .text.cli_loop
                0x000000000022b230       0x10 common/built-in.o
                0x000000000022b230                cli_loop
 .text.cli_init
                0x000000000022b240        0x4 common/built-in.o
                0x000000000022b240                cli_init
 .text.find_cmd_tbl
                0x000000000022b244       0xc0 common/built-in.o
                0x000000000022b244                find_cmd_tbl
 .text.find_cmd
                0x000000000022b304       0x28 common/built-in.o
                0x000000000022b304                find_cmd
 .text.cmd_usage
                0x000000000022b32c       0x68 common/built-in.o
                0x000000000022b32c                cmd_usage
 .text._do_help
                0x000000000022b394      0x188 common/built-in.o
                0x000000000022b394                _do_help
 .text.var_complete
                0x000000000022b51c       0x78 common/built-in.o
                0x000000000022b51c                var_complete
 .text.cmd_auto_complete
                0x000000000022b594      0x49c common/built-in.o
                0x000000000022b594                cmd_auto_complete
 .text.cmd_get_data_size
                0x000000000022ba30       0x90 common/built-in.o
                0x000000000022ba30                cmd_get_data_size
 .text.cmd_process
                0x000000000022bac0      0x10c common/built-in.o
                0x000000000022bac0                cmd_process
 .text.cmd_process_error
                0x000000000022bbcc       0x38 common/built-in.o
                0x000000000022bbcc                cmd_process_error
 .text.write_to_security_storage
                0x000000000022bc04      0x1c8 common/built-in.o
                0x000000000022bc04                write_to_security_storage
 .text.rk_send_keybox_to_ta
                0x000000000022bdcc      0x228 common/built-in.o
                0x000000000022bdcc                rk_send_keybox_to_ta
 .text.read_raw_data_from_secure_storage
                0x000000000022bff4       0x84 common/built-in.o
                0x000000000022bff4                read_raw_data_from_secure_storage
 .text.new_strstr
                0x000000000022c078       0x7c common/built-in.o
                0x000000000022c078                new_strstr
 .text.write_keybox_to_secure_storage
                0x000000000022c0f4      0x21c common/built-in.o
                0x000000000022c0f4                write_keybox_to_secure_storage
 .text.read_from_keymaster
                0x000000000022c310      0x184 common/built-in.o
                0x000000000022c310                read_from_keymaster
 .text.write_to_keymaster
                0x000000000022c494      0x17c common/built-in.o
                0x000000000022c494                write_to_keymaster
 .text.copy_from_buf
                0x000000000022c610       0x3c common/built-in.o
 .text.free_cert_chain
                0x000000000022c64c       0x64 common/built-in.o
 .text.write_cert_chain_length
                0x000000000022c6b0       0x8c common/built-in.o
 .text.copy_blob_from_buf
                0x000000000022c73c       0x7c common/built-in.o
 .text.copy_cert_chain_from_buf
                0x000000000022c7b8       0xd8 common/built-in.o
 .text.write_key
                0x000000000022c890       0x94 common/built-in.o
 .text.load_attestation_key
                0x000000000022c924      0x498 common/built-in.o
                0x000000000022c924                load_attestation_key
 .text.read_key_data
                0x000000000022cdbc      0x144 common/built-in.o
                0x000000000022cdbc                read_key_data
 .text.write_attestation_key_to_secure_storage
                0x000000000022cf00      0x1b0 common/built-in.o
                0x000000000022cf00                write_attestation_key_to_secure_storage
 .text.part_driver_lookup_type
                0x000000000022d0b0       0xa8 disk/built-in.o
 .text.blk_get_dev
                0x000000000022d158       0x38 disk/built-in.o
                0x000000000022d158                blk_get_dev
 .text.dev_print
                0x000000000022d190      0x1dc disk/built-in.o
                0x000000000022d190                dev_print
 .text.part_init
                0x000000000022d36c       0x7c disk/built-in.o
                0x000000000022d36c                part_init
 .text.part_print
                0x000000000022d3e8      0x15c disk/built-in.o
                0x000000000022d3e8                part_print
 .text.part_get_type
                0x000000000022d544       0x44 disk/built-in.o
                0x000000000022d544                part_get_type
 .text.part_get_info
                0x000000000022d588       0x60 disk/built-in.o
                0x000000000022d588                part_get_info
 .text.part_get_info_whole_disk
                0x000000000022d5e8       0x54 disk/built-in.o
                0x000000000022d5e8                part_get_info_whole_disk
 .text.blk_get_device_by_str
                0x000000000022d63c      0x164 disk/built-in.o
                0x000000000022d63c                blk_get_device_by_str
 .text.blk_get_device_part_str
                0x000000000022d7a0      0x358 disk/built-in.o
                0x000000000022d7a0                blk_get_device_part_str
 .text.part_get_info_by_name
                0x000000000022daf8       0xc8 disk/built-in.o
                0x000000000022daf8                part_get_info_by_name
 .text.part_set_generic_name
                0x000000000022dbc0       0x48 disk/built-in.o
                0x000000000022dbc0                part_set_generic_name
 .text.test_block_type
                0x000000000022dc08       0x90 disk/built-in.o
 .text.print_partition_extended
                0x000000000022dc98      0x238 disk/built-in.o
 .text.part_print_dos
                0x000000000022ded0       0x3c disk/built-in.o
                0x000000000022ded0                part_print_dos
 .text.part_test_dos
                0x000000000022df0c       0x84 disk/built-in.o
 .text.part_get_info_extended
                0x000000000022df90      0x298 disk/built-in.o
 .text.part_get_info_dos
                0x000000000022e228       0x1c disk/built-in.o
                0x000000000022e228                part_get_info_dos
 .text.is_valid_dos_buf
                0x000000000022e244       0x1c disk/built-in.o
                0x000000000022e244                is_valid_dos_buf
 .text.write_mbr_partition
                0x000000000022e260       0x7c disk/built-in.o
                0x000000000022e260                write_mbr_partition
 .text.print_efiname
                0x000000000022e2dc       0x54 disk/built-in.o
 .text.validate_gpt_entries
                0x000000000022e330       0xa8 disk/built-in.o
 .text.validate_gpt_header
                0x000000000022e3d8      0x250 disk/built-in.o
 .text.is_gpt_valid
                0x000000000022e628      0x274 disk/built-in.o
 .text.set_protective_mbr
                0x000000000022e89c       0xe8 disk/built-in.o
 .text.is_pte_valid
                0x000000000022e984       0x64 disk/built-in.o
 .text.part_print_efi
                0x000000000022e9e8      0x274 disk/built-in.o
                0x000000000022e9e8                part_print_efi
 .text.part_get_info_efi
                0x000000000022ec5c      0x2b0 disk/built-in.o
                0x000000000022ec5c                part_get_info_efi
 .text.gpt_entry_modify.isra.2
                0x000000000022ef0c      0x168 disk/built-in.o
 .text.part_efi_repair
                0x000000000022f074      0x488 disk/built-in.o
 .text.part_test_efi
                0x000000000022f4fc      0x1f4 disk/built-in.o
 .text.get_disk_guid
                0x000000000022f6f0       0xe0 disk/built-in.o
                0x000000000022f6f0                get_disk_guid
 .text.write_gpt_table
                0x000000000022f7d0      0x414 disk/built-in.o
                0x000000000022f7d0                write_gpt_table
 .text.gpt_fill_pte
                0x000000000022fbe4      0x3a8 disk/built-in.o
                0x000000000022fbe4                gpt_fill_pte
 .text.gpt_fill_header
                0x000000000022ff8c      0x250 disk/built-in.o
                0x000000000022ff8c                gpt_fill_header
 .text.gpt_restore
                0x00000000002301dc      0x150 disk/built-in.o
                0x00000000002301dc                gpt_restore
 .text.gpt_verify_headers
                0x000000000023032c       0x98 disk/built-in.o
                0x000000000023032c                gpt_verify_headers
 .text.gpt_verify_partitions
                0x00000000002303c4      0x1f4 disk/built-in.o
                0x00000000002303c4                gpt_verify_partitions
 .text.is_valid_gpt_buf
                0x00000000002305b8      0x104 disk/built-in.o
                0x00000000002305b8                is_valid_gpt_buf
 .text.write_mbr_and_gpt_partitions
                0x00000000002306bc      0x46c disk/built-in.o
                0x00000000002306bc                write_mbr_and_gpt_partitions
 .text.rkparm_init_param.constprop.1
                0x0000000000230b28      0x250 disk/built-in.o
 .text.part_get_info_rkparm
                0x0000000000230d78      0x12c disk/built-in.o
 .text.part_print_rkparm
                0x0000000000230ea4       0xbc disk/built-in.o
 .text.part_test_rkparm
                0x0000000000230f60       0x50 disk/built-in.o
 .text.clk_request
                0x0000000000230fb0       0x24 drivers/built-in.o
                0x0000000000230fb0                clk_request
 .text.clk_get_by_indexed_prop
                0x0000000000230fd4       0xb0 drivers/built-in.o
 .text.clk_get_by_index
                0x0000000000231084       0x14 drivers/built-in.o
                0x0000000000231084                clk_get_by_index
 .text.clk_get_by_name
                0x0000000000231098       0x50 drivers/built-in.o
                0x0000000000231098                clk_get_by_name
 .text.clk_free
                0x00000000002310e8       0x20 drivers/built-in.o
                0x00000000002310e8                clk_free
 .text.clk_get_rate
                0x0000000000231108       0x20 drivers/built-in.o
                0x0000000000231108                clk_get_rate
 .text.clk_set_rate
                0x0000000000231128       0x20 drivers/built-in.o
                0x0000000000231128                clk_set_rate
 .text.clk_set_phase
                0x0000000000231148       0x20 drivers/built-in.o
                0x0000000000231148                clk_set_phase
 .text.clk_set_parent
                0x0000000000231168       0x20 drivers/built-in.o
                0x0000000000231168                clk_set_parent
 .text.clk_set_defaults
                0x0000000000231188      0x17c drivers/built-in.o
                0x0000000000231188                clk_set_defaults
 .text.clk_enable
                0x0000000000231304       0x20 drivers/built-in.o
                0x0000000000231304                clk_enable
 .text.clk_disable
                0x0000000000231324       0x20 drivers/built-in.o
                0x0000000000231324                clk_disable
 .text.clk_release_all
                0x0000000000231344       0x7c drivers/built-in.o
                0x0000000000231344                clk_release_all
 .text.clks_probe
                0x00000000002313c0       0x88 drivers/built-in.o
                0x00000000002313c0                clks_probe
 .text.clk_fixed_rate_ofdata_to_platdata
                0x0000000000231448       0x40 drivers/built-in.o
 .text.clk_fixed_rate_get_rate
                0x0000000000231488       0x2c drivers/built-in.o
 .text.rk3399_mmc_get_clk
                0x00000000002314b4       0x70 drivers/built-in.o
 .text.rk3399_peri_get_clk
                0x0000000000231524       0xf8 drivers/built-in.o
 .text.rk3399_clk_enable
                0x000000000023161c       0x5c drivers/built-in.o
 .text.rkclk_set_pll
                0x0000000000231678       0x98 drivers/built-in.o
 .text.rk3399_pmuclk_probe
                0x0000000000231710       0x44 drivers/built-in.o
 .text.rk3399_i2c_get_clk
                0x0000000000231754       0x9c drivers/built-in.o
 .text.pll_para_config
                0x00000000002317f0      0x144 drivers/built-in.o
 .text.rk3399_pmuclk_set_rate
                0x0000000000231934       0xac drivers/built-in.o
 .text.rk3399_pmuclk_get_rate
                0x00000000002319e0       0xc0 drivers/built-in.o
 .text.rk3399_clk_ofdata_to_platdata
                0x0000000000231aa0       0x34 drivers/built-in.o
 .text.rk3399_pmuclk_ofdata_to_platdata
                0x0000000000231ad4       0x34 drivers/built-in.o
 .text.rk3399_clk_bind
                0x0000000000231b08       0x9c drivers/built-in.o
 .text.rk3399_pmuclk_bind
                0x0000000000231ba4       0x50 drivers/built-in.o
 .text.rkclk_pll_get_rate
                0x0000000000231bf4       0x70 drivers/built-in.o
 .text.rk3399_crypto_get_clk.isra.2
                0x0000000000231c64       0x40 drivers/built-in.o
 .text.rk3399_clk_set_parent
                0x0000000000231ca4      0x12c drivers/built-in.o
 .text.rk3399_spi_get_clk
                0x0000000000231dd0       0x80 drivers/built-in.o
 .text.rk3399_clk_get_rate
                0x0000000000231e50      0x22c drivers/built-in.o
 .text.rk3399_clk_set_rate
                0x000000000023207c      0x678 drivers/built-in.o
 .text.rk3399_configure_cpu
                0x00000000002326f4       0xa4 drivers/built-in.o
                0x00000000002326f4                rk3399_configure_cpu
 .text.rk3399_clk_probe
                0x0000000000232798      0x1c0 drivers/built-in.o
 .text.soc_clk_dump
                0x0000000000232958      0x1e8 drivers/built-in.o
                0x0000000000232958                soc_clk_dump
 .text.device_bind_common.isra.0
                0x0000000000232b40      0x46c drivers/built-in.o
 .text.alloc_priv
                0x0000000000232fac       0x68 drivers/built-in.o
 .text.device_bind_with_driver_data
                0x0000000000233014       0x14 drivers/built-in.o
                0x0000000000233014                device_bind_with_driver_data
 .text.device_bind
                0x0000000000233028       0x1c drivers/built-in.o
                0x0000000000233028                device_bind
 .text.device_bind_by_name
                0x0000000000233044       0x88 drivers/built-in.o
                0x0000000000233044                device_bind_by_name
 .text.device_probe
                0x00000000002330cc      0x268 drivers/built-in.o
                0x00000000002330cc                device_probe
 .text.dev_get_platdata
                0x0000000000233334       0x40 drivers/built-in.o
                0x0000000000233334                dev_get_platdata
 .text.dev_get_parent_platdata
                0x0000000000233374       0x40 drivers/built-in.o
                0x0000000000233374                dev_get_parent_platdata
 .text.dev_get_uclass_platdata
                0x00000000002333b4       0x40 drivers/built-in.o
                0x00000000002333b4                dev_get_uclass_platdata
 .text.dev_get_priv
                0x00000000002333f4       0x40 drivers/built-in.o
                0x00000000002333f4                dev_get_priv
 .text.dev_get_uclass_priv
                0x0000000000233434       0x40 drivers/built-in.o
                0x0000000000233434                dev_get_uclass_priv
 .text.dev_get_parent_priv
                0x0000000000233474       0x40 drivers/built-in.o
                0x0000000000233474                dev_get_parent_priv
 .text.device_find_first_child
                0x00000000002334b4       0x20 drivers/built-in.o
                0x00000000002334b4                device_find_first_child
 .text.device_find_next_child
                0x00000000002334d4       0x28 drivers/built-in.o
                0x00000000002334d4                device_find_next_child
 .text.dev_get_parent
                0x00000000002334fc        0x8 drivers/built-in.o
                0x00000000002334fc                dev_get_parent
 .text.dev_get_driver_data
                0x0000000000233504        0x8 drivers/built-in.o
                0x0000000000233504                dev_get_driver_data
 .text.dev_get_driver_ops
                0x000000000023350c       0x10 drivers/built-in.o
                0x000000000023350c                dev_get_driver_ops
 .text.device_get_uclass_id
                0x000000000023351c       0x10 drivers/built-in.o
                0x000000000023351c                device_get_uclass_id
 .text.device_has_active_children
                0x000000000023352c       0x3c drivers/built-in.o
                0x000000000023352c                device_has_active_children
 .text.device_is_last_sibling
                0x0000000000233568       0x24 drivers/built-in.o
                0x0000000000233568                device_is_last_sibling
 .text.device_set_name_alloced
                0x000000000023358c       0x10 drivers/built-in.o
                0x000000000023358c                device_set_name_alloced
 .text.device_set_name
                0x000000000023359c       0x44 drivers/built-in.o
                0x000000000023359c                device_set_name
 .text.device_is_compatible
                0x00000000002335e0       0x6c drivers/built-in.o
                0x00000000002335e0                device_is_compatible
 .text.devfdt_get_addr_index
                0x000000000023364c       0xbc drivers/built-in.o
                0x000000000023364c                devfdt_get_addr_index
 .text.devfdt_get_addr_size_index
                0x0000000000233708       0x48 drivers/built-in.o
                0x0000000000233708                devfdt_get_addr_size_index
 .text.lists_driver_lookup_name
                0x0000000000233750       0x78 drivers/built-in.o
                0x0000000000233750                lists_driver_lookup_name
 .text.lists_uclass_lookup
                0x00000000002337c8       0x48 drivers/built-in.o
                0x00000000002337c8                lists_uclass_lookup
 .text.lists_bind_drivers
                0x0000000000233810       0xb0 drivers/built-in.o
                0x0000000000233810                lists_bind_drivers
 .text.device_bind_driver_to_node
                0x00000000002338c0       0x5c drivers/built-in.o
                0x00000000002338c0                device_bind_driver_to_node
 .text.device_bind_driver
                0x000000000023391c       0x14 drivers/built-in.o
                0x000000000023391c                device_bind_driver
 .text.lists_bind_fdt
                0x0000000000233930      0x188 drivers/built-in.o
                0x0000000000233930                lists_bind_fdt
 .text.dm_scan_fdt_node
                0x0000000000233ab8       0xd0 drivers/built-in.o
 .text.dm_scan_fdt_live.isra.0
                0x0000000000233b88      0x108 drivers/built-in.o
 .text.dm_root  0x0000000000233c90       0x38 drivers/built-in.o
                0x0000000000233c90                dm_root
 .text.dm_get_translation_offset
                0x0000000000233cc8       0x1c drivers/built-in.o
                0x0000000000233cc8                dm_get_translation_offset
 .text.dm_init  0x0000000000233ce4       0x80 drivers/built-in.o
                0x0000000000233ce4                dm_init
 .text.dm_remove_devices_flags
                0x0000000000233d64       0x24 drivers/built-in.o
                0x0000000000233d64                dm_remove_devices_flags
 .text.dm_scan_platdata
                0x0000000000233d88       0x34 drivers/built-in.o
                0x0000000000233d88                dm_scan_platdata
 .text.dm_scan_fdt_dev
                0x0000000000233dbc       0x60 drivers/built-in.o
                0x0000000000233dbc                dm_scan_fdt_dev
 .text.dm_scan_fdt
                0x0000000000233e1c       0x34 drivers/built-in.o
                0x0000000000233e1c                dm_scan_fdt
 .text.dm_extended_scan_fdt
                0x0000000000233e50       0x60 drivers/built-in.o
                0x0000000000233e50                dm_extended_scan_fdt
 .text.dm_scan_other
                0x0000000000233eb0        0x8 drivers/built-in.o
                0x0000000000233eb0                dm_scan_other
 .text.dm_init_and_scan
                0x0000000000233eb8       0x54 drivers/built-in.o
                0x0000000000233eb8                dm_init_and_scan
 .text.uclass_find
                0x0000000000233f0c       0x4c drivers/built-in.o
                0x0000000000233f0c                uclass_find
 .text.uclass_get
                0x0000000000233f58      0x128 drivers/built-in.o
                0x0000000000233f58                uclass_get
 .text.uclass_find_device
                0x0000000000234080       0x78 drivers/built-in.o
                0x0000000000234080                uclass_find_device
 .text.uclass_find_first_device
                0x00000000002340f8       0x48 drivers/built-in.o
                0x00000000002340f8                uclass_find_first_device
 .text.uclass_find_next_device
                0x0000000000234140       0x28 drivers/built-in.o
                0x0000000000234140                uclass_find_next_device
 .text.uclass_find_device_by_name
                0x0000000000234168       0x98 drivers/built-in.o
                0x0000000000234168                uclass_find_device_by_name
 .text.uclass_find_device_by_seq
                0x0000000000234200       0x90 drivers/built-in.o
                0x0000000000234200                uclass_find_device_by_seq
 .text.uclass_find_device_by_ofnode
                0x0000000000234290       0x90 drivers/built-in.o
                0x0000000000234290                uclass_find_device_by_ofnode
 .text.uclass_get_device_by_driver
                0x0000000000234320       0x7c drivers/built-in.o
                0x0000000000234320                uclass_get_device_by_driver
 .text.uclass_get_device_tail
                0x000000000023439c       0x40 drivers/built-in.o
                0x000000000023439c                uclass_get_device_tail
 .text.uclass_get_device
                0x00000000002343dc       0x38 drivers/built-in.o
                0x00000000002343dc                uclass_get_device
 .text.uclass_get_device_by_name
                0x0000000000234414       0x38 drivers/built-in.o
                0x0000000000234414                uclass_get_device_by_name
 .text.uclass_get_device_by_seq
                0x000000000023444c       0x68 drivers/built-in.o
                0x000000000023444c                uclass_get_device_by_seq
 .text.uclass_get_device_by_ofnode
                0x00000000002344b4       0x38 drivers/built-in.o
                0x00000000002344b4                uclass_get_device_by_ofnode
 .text.uclass_get_device_by_phandle_id
                0x00000000002344ec       0x98 drivers/built-in.o
                0x00000000002344ec                uclass_get_device_by_phandle_id
 .text.uclass_get_device_by_phandle
                0x0000000000234584       0xc0 drivers/built-in.o
                0x0000000000234584                uclass_get_device_by_phandle
 .text.uclass_first_device
                0x0000000000234644       0x48 drivers/built-in.o
                0x0000000000234644                uclass_first_device
 .text.uclass_first_device_err
                0x000000000023468c       0x34 drivers/built-in.o
                0x000000000023468c                uclass_first_device_err
 .text.uclass_next_device
                0x00000000002346c0       0x48 drivers/built-in.o
                0x00000000002346c0                uclass_next_device
 .text.uclass_bind_device
                0x0000000000234708       0x70 drivers/built-in.o
                0x0000000000234708                uclass_bind_device
 .text.uclass_unbind_device
                0x0000000000234778       0x4c drivers/built-in.o
                0x0000000000234778                uclass_unbind_device
 .text.uclass_resolve_seq
                0x00000000002347c4       0xb8 drivers/built-in.o
                0x00000000002347c4                uclass_resolve_seq
 .text.uclass_pre_probe_device
                0x000000000023487c       0x64 drivers/built-in.o
                0x000000000023487c                uclass_pre_probe_device
 .text.uclass_post_probe_device
                0x00000000002348e0       0x1c drivers/built-in.o
                0x00000000002348e0                uclass_post_probe_device
 .text.uclass_pre_remove_device
                0x00000000002348fc       0x1c drivers/built-in.o
                0x00000000002348fc                uclass_pre_remove_device
 .text.dm_warn  0x0000000000234918       0x78 drivers/built-in.o
                0x0000000000234918                dm_warn
 .text.dm_fdt_pre_reloc
                0x0000000000234990       0x78 drivers/built-in.o
                0x0000000000234990                dm_fdt_pre_reloc
 .text.device_unbind
                0x0000000000234a08      0x11c drivers/built-in.o
                0x0000000000234a08                device_unbind
 .text.device_free
                0x0000000000234b24       0x80 drivers/built-in.o
                0x0000000000234b24                device_free
 .text.device_remove
                0x0000000000234ba4      0x174 drivers/built-in.o
                0x0000000000234ba4                device_remove
 .text.simple_bus_post_bind
                0x0000000000234d18       0x5c drivers/built-in.o
 .text.show_devices
                0x0000000000234d74      0x198 drivers/built-in.o
 .text.dm_dump_all
                0x0000000000234f0c       0x54 drivers/built-in.o
                0x0000000000234f0c                dm_dump_all
 .text.dm_dump_uclass
                0x0000000000234f60      0x148 drivers/built-in.o
                0x0000000000234f60                dm_dump_uclass
 .text.regmap_init_mem
                0x00000000002350a8      0x138 drivers/built-in.o
                0x00000000002350a8                regmap_init_mem
 .text.regmap_get_range
                0x00000000002351e0       0x24 drivers/built-in.o
                0x00000000002351e0                regmap_get_range
 .text.regmap_read
                0x0000000000235204       0x1c drivers/built-in.o
                0x0000000000235204                regmap_read
 .text.regmap_write
                0x0000000000235220       0x18 drivers/built-in.o
                0x0000000000235220                regmap_write
 .text.syscon_pre_probe
                0x0000000000235238       0x28 drivers/built-in.o
 .text.syscon_get_regmap
                0x0000000000235260       0x3c drivers/built-in.o
                0x0000000000235260                syscon_get_regmap
 .text.syscon_get_by_driver_data
                0x000000000023529c       0x74 drivers/built-in.o
                0x000000000023529c                syscon_get_by_driver_data
 .text.syscon_get_regmap_by_driver_data
                0x0000000000235310       0x30 drivers/built-in.o
                0x0000000000235310                syscon_get_regmap_by_driver_data
 .text.syscon_get_first_range
                0x0000000000235340       0x28 drivers/built-in.o
                0x0000000000235340                syscon_get_first_range
 .text.of_find_property
                0x0000000000235368       0x74 drivers/built-in.o
                0x0000000000235368                of_find_property
 .text.of_find_property_value_of_size
                0x00000000002353dc       0x54 drivers/built-in.o
 .text.of_find_all_nodes
                0x0000000000235430       0x2c drivers/built-in.o
                0x0000000000235430                of_find_all_nodes
 .text.of_get_property
                0x000000000023545c       0x1c drivers/built-in.o
                0x000000000023545c                of_get_property
 .text.of_n_addr_cells
                0x0000000000235478       0x5c drivers/built-in.o
                0x0000000000235478                of_n_addr_cells
 .text.of_n_size_cells
                0x00000000002354d4       0x5c drivers/built-in.o
                0x00000000002354d4                of_n_size_cells
 .text.of_simple_addr_cells
                0x0000000000235530       0x34 drivers/built-in.o
                0x0000000000235530                of_simple_addr_cells
 .text.of_simple_size_cells
                0x0000000000235564       0x34 drivers/built-in.o
                0x0000000000235564                of_simple_size_cells
 .text.of_device_is_compatible
                0x0000000000235598      0x110 drivers/built-in.o
                0x0000000000235598                of_device_is_compatible
 .text.of_device_is_available
                0x00000000002356a8       0x60 drivers/built-in.o
                0x00000000002356a8                of_device_is_available
 .text.of_get_parent
                0x0000000000235708        0xc drivers/built-in.o
                0x0000000000235708                of_get_parent
 .text.of_find_node_opts_by_path
                0x0000000000235714      0x1a0 drivers/built-in.o
                0x0000000000235714                of_find_node_opts_by_path
 .text.of_find_node_by_phandle
                0x00000000002358b4       0x54 drivers/built-in.o
                0x00000000002358b4                of_find_node_by_phandle
 .text.of_read_u32
                0x0000000000235908       0x48 drivers/built-in.o
                0x0000000000235908                of_read_u32
 .text.__of_parse_phandle_with_args.constprop.2
                0x0000000000235950      0x16c drivers/built-in.o
 .text.of_read_u32_array
                0x0000000000235abc       0x58 drivers/built-in.o
                0x0000000000235abc                of_read_u32_array
 .text.of_write_u32_array
                0x0000000000235b14       0x58 drivers/built-in.o
                0x0000000000235b14                of_write_u32_array
 .text.of_property_match_string
                0x0000000000235b6c       0xa4 drivers/built-in.o
                0x0000000000235b6c                of_property_match_string
 .text.of_property_read_string_helper
                0x0000000000235c10       0xcc drivers/built-in.o
                0x0000000000235c10                of_property_read_string_helper
 .text.of_parse_phandle
                0x0000000000235cdc       0x3c drivers/built-in.o
                0x0000000000235cdc                of_parse_phandle
 .text.of_parse_phandle_with_args
                0x0000000000235d18       0x10 drivers/built-in.o
                0x0000000000235d18                of_parse_phandle_with_args
 .text.of_count_phandle_with_args
                0x0000000000235d28        0xc drivers/built-in.o
                0x0000000000235d28                of_count_phandle_with_args
 .text.of_alias_scan
                0x0000000000235d34      0x230 drivers/built-in.o
                0x0000000000235d34                of_alias_scan
 .text.of_alias_get_id
                0x0000000000235f64       0x6c drivers/built-in.o
                0x0000000000235f64                of_alias_get_id
 .text.of_alias_dump
                0x0000000000235fd0       0xc8 drivers/built-in.o
                0x0000000000235fd0                of_alias_dump
 .text.of_bus_default_map
                0x0000000000236098       0xa4 drivers/built-in.o
 .text.of_bus_default_get_flags
                0x000000000023613c        0x8 drivers/built-in.o
 .text.of_bus_default_count_cells
                0x0000000000236144       0x48 drivers/built-in.o
 .text.of_bus_default_translate
                0x000000000023618c       0xb8 drivers/built-in.o
 .text.of_match_bus
                0x0000000000236244       0x60 drivers/built-in.o
 .text.of_get_address
                0x00000000002362a4      0x14c drivers/built-in.o
                0x00000000002362a4                of_get_address
 .text.of_translate_address
                0x00000000002363f0      0x234 drivers/built-in.o
                0x00000000002363f0                of_translate_address
 .text.of_address_to_resource
                0x0000000000236624       0xcc drivers/built-in.o
                0x0000000000236624                of_address_to_resource
 .text.dev_read_u32_default
                0x00000000002366f0        0x8 drivers/built-in.o
                0x00000000002366f0                dev_read_u32_default
 .text.dev_read_string
                0x00000000002366f8        0x8 drivers/built-in.o
                0x00000000002366f8                dev_read_string
 .text.dev_read_bool
                0x0000000000236700        0x8 drivers/built-in.o
                0x0000000000236700                dev_read_bool
 .text.dev_read_subnode
                0x0000000000236708        0x8 drivers/built-in.o
                0x0000000000236708                dev_read_subnode
 .text.dev_read_first_subnode
                0x0000000000236710        0x8 drivers/built-in.o
                0x0000000000236710                dev_read_first_subnode
 .text.dev_read_size
                0x0000000000236718        0x8 drivers/built-in.o
                0x0000000000236718                dev_read_size
 .text.dev_read_addr_index
                0x0000000000236720       0x34 drivers/built-in.o
                0x0000000000236720                dev_read_addr_index
 .text.dev_read_addr
                0x0000000000236754        0x8 drivers/built-in.o
                0x0000000000236754                dev_read_addr
 .text.dev_read_addr_ptr
                0x000000000023675c       0x20 drivers/built-in.o
                0x000000000023675c                dev_read_addr_ptr
 .text.dev_read_addr_size
                0x000000000023677c        0x8 drivers/built-in.o
                0x000000000023677c                dev_read_addr_size
 .text.dev_read_name
                0x0000000000236784       0x30 drivers/built-in.o
                0x0000000000236784                dev_read_name
 .text.dev_read_stringlist_search
                0x00000000002367b4        0x8 drivers/built-in.o
                0x00000000002367b4                dev_read_stringlist_search
 .text.dev_read_string_index
                0x00000000002367bc        0x8 drivers/built-in.o
                0x00000000002367bc                dev_read_string_index
 .text.dev_read_phandle_with_args
                0x00000000002367c4        0x8 drivers/built-in.o
                0x00000000002367c4                dev_read_phandle_with_args
 .text.dev_count_phandle_with_args
                0x00000000002367cc        0x8 drivers/built-in.o
                0x00000000002367cc                dev_count_phandle_with_args
 .text.dev_read_simple_addr_cells
                0x00000000002367d4        0x8 drivers/built-in.o
                0x00000000002367d4                dev_read_simple_addr_cells
 .text.dev_read_simple_size_cells
                0x00000000002367dc        0x8 drivers/built-in.o
                0x00000000002367dc                dev_read_simple_size_cells
 .text.dev_read_phandle
                0x00000000002367e4       0x3c drivers/built-in.o
                0x00000000002367e4                dev_read_phandle
 .text.dev_read_prop
                0x0000000000236820        0x8 drivers/built-in.o
                0x0000000000236820                dev_read_prop
 .text.dev_read_alias_seq
                0x0000000000236828       0x70 drivers/built-in.o
                0x0000000000236828                dev_read_alias_seq
 .text.dev_read_u32_array
                0x0000000000236898       0x30 drivers/built-in.o
                0x0000000000236898                dev_read_u32_array
 .text.dev_write_u32_array
                0x00000000002368c8       0x30 drivers/built-in.o
                0x00000000002368c8                dev_write_u32_array
 .text.dev_read_resource
                0x00000000002368f8        0x8 drivers/built-in.o
                0x00000000002368f8                dev_read_resource
 .text.ofnode_read_u32
                0x0000000000236900       0x98 drivers/built-in.o
                0x0000000000236900                ofnode_read_u32
 .text.ofnode_read_u32_default
                0x0000000000236998       0x28 drivers/built-in.o
                0x0000000000236998                ofnode_read_u32_default
 .text.ofnode_read_s32_default
                0x00000000002369c0       0x28 drivers/built-in.o
                0x00000000002369c0                ofnode_read_s32_default
 .text.ofnode_read_string
                0x00000000002369e8       0xac drivers/built-in.o
                0x00000000002369e8                ofnode_read_string
 .text.ofnode_find_subnode
                0x0000000000236a94       0x98 drivers/built-in.o
                0x0000000000236a94                ofnode_find_subnode
 .text.ofnode_read_u32_array
                0x0000000000236b2c       0x50 drivers/built-in.o
                0x0000000000236b2c                ofnode_read_u32_array
 .text.ofnode_write_u32_array
                0x0000000000236b7c       0x50 drivers/built-in.o
                0x0000000000236b7c                ofnode_write_u32_array
 .text.ofnode_first_subnode
                0x0000000000236bcc       0x64 drivers/built-in.o
                0x0000000000236bcc                ofnode_first_subnode
 .text.ofnode_next_subnode
                0x0000000000236c30       0x64 drivers/built-in.o
                0x0000000000236c30                ofnode_next_subnode
 .text.ofnode_get_parent
                0x0000000000236c94       0x58 drivers/built-in.o
                0x0000000000236c94                ofnode_get_parent
 .text.ofnode_get_name
                0x0000000000236cec       0x80 drivers/built-in.o
                0x0000000000236cec                ofnode_get_name
 .text.ofnode_get_by_phandle
                0x0000000000236d6c       0x30 drivers/built-in.o
                0x0000000000236d6c                ofnode_get_by_phandle
 .text.ofnode_read_size
                0x0000000000236d9c       0x78 drivers/built-in.o
                0x0000000000236d9c                ofnode_read_size
 .text.ofnode_get_addr_index
                0x0000000000236e14       0xa4 drivers/built-in.o
                0x0000000000236e14                ofnode_get_addr_index
 .text.ofnode_stringlist_search
                0x0000000000236eb8       0x6c drivers/built-in.o
                0x0000000000236eb8                ofnode_stringlist_search
 .text.ofnode_read_string_index
                0x0000000000236f24       0x94 drivers/built-in.o
                0x0000000000236f24                ofnode_read_string_index
 .text.ofnode_parse_phandle_with_args
                0x0000000000236fb8       0xdc drivers/built-in.o
                0x0000000000236fb8                ofnode_parse_phandle_with_args
 .text.ofnode_count_phandle_with_args
                0x0000000000237094       0x54 drivers/built-in.o
                0x0000000000237094                ofnode_count_phandle_with_args
 .text.ofnode_path
                0x00000000002370e8       0x40 drivers/built-in.o
                0x00000000002370e8                ofnode_path
 .text.ofnode_get_property
                0x0000000000237128       0x48 drivers/built-in.o
                0x0000000000237128                ofnode_get_property
 .text.ofnode_read_bool
                0x0000000000237170       0x28 drivers/built-in.o
                0x0000000000237170                ofnode_read_bool
 .text.ofnode_is_available
                0x0000000000237198       0x54 drivers/built-in.o
                0x0000000000237198                ofnode_is_available
 .text.ofnode_get_addr_size
                0x00000000002371ec       0xec drivers/built-in.o
                0x00000000002371ec                ofnode_get_addr_size
 .text.ofnode_read_simple_addr_cells
                0x00000000002372d8       0x3c drivers/built-in.o
                0x00000000002372d8                ofnode_read_simple_addr_cells
 .text.ofnode_read_simple_size_cells
                0x0000000000237314       0x3c drivers/built-in.o
                0x0000000000237314                ofnode_read_simple_size_cells
 .text.ofnode_pre_reloc
                0x0000000000237350       0x64 drivers/built-in.o
                0x0000000000237350                ofnode_pre_reloc
 .text.ofnode_read_resource
                0x00000000002373b4       0xa4 drivers/built-in.o
                0x00000000002373b4                ofnode_read_resource
 .text.ofnode_read_resource_byname
                0x0000000000237458       0x4c drivers/built-in.o
                0x0000000000237458                ofnode_read_resource_byname
 .text.crypto_algo_nbits
                0x00000000002374a4       0xfc drivers/built-in.o
                0x00000000002374a4                crypto_algo_nbits
 .text.crypto_get_device
                0x00000000002375a0       0x78 drivers/built-in.o
                0x00000000002375a0                crypto_get_device
 .text.crypto_sha_init
                0x0000000000237618       0x34 drivers/built-in.o
                0x0000000000237618                crypto_sha_init
 .text.crypto_sha_update
                0x000000000023764c       0x2c drivers/built-in.o
                0x000000000023764c                crypto_sha_update
 .text.crypto_sha_final
                0x0000000000237678       0xcc drivers/built-in.o
                0x0000000000237678                crypto_sha_final
 .text.crypto_sha_csum
                0x0000000000237744       0x6c drivers/built-in.o
                0x0000000000237744                crypto_sha_csum
 .text.rockchip_crypto_capability
                0x00000000002377b0        0x8 drivers/built-in.o
 .text.rockchip_crypto_rsa_verify
                0x00000000002377b8      0x188 drivers/built-in.o
 .text.rockchip_crypto_sha_final
                0x0000000000237940       0xb8 drivers/built-in.o
 .text.rockchip_crypto_sha_update
                0x00000000002379f8       0xb0 drivers/built-in.o
 .text.rockchip_crypto_sha_init
                0x0000000000237aa8      0x14c drivers/built-in.o
 .text.rk_hash_direct_calc
                0x0000000000237bf4       0x94 drivers/built-in.o
 .text.rockchip_crypto_ofdata_to_platdata
                0x0000000000237c88       0xf4 drivers/built-in.o
 .text.rockchip_crypto_probe
                0x0000000000237d7c       0xa8 drivers/built-in.o
 .text.crypto_flush_cacheline
                0x0000000000237e24       0x30 drivers/built-in.o
                0x0000000000237e24                crypto_flush_cacheline
 .text.crypto_hash_cache_alloc
                0x0000000000237e54       0x74 drivers/built-in.o
                0x0000000000237e54                crypto_hash_cache_alloc
 .text.crypto_hash_cache_free
                0x0000000000237ec8       0x34 drivers/built-in.o
                0x0000000000237ec8                crypto_hash_cache_free
 .text.crypto_hash_update_with_cache
                0x0000000000237efc      0x1e4 drivers/built-in.o
                0x0000000000237efc                crypto_hash_update_with_cache
 .text.key_post_probe
                0x00000000002380e0      0x174 drivers/built-in.o
 .text.key_timer
                0x0000000000238254       0x1c drivers/built-in.o
                0x0000000000238254                key_timer
 .text.gpio_irq_handler
                0x0000000000238270       0xa0 drivers/built-in.o
 .text.key_is_pressed
                0x0000000000238310       0x10 drivers/built-in.o
                0x0000000000238310                key_is_pressed
 .text.key_read
                0x0000000000238320      0x1bc drivers/built-in.o
                0x0000000000238320                key_read
 .text.key_bind_children
                0x00000000002384dc       0xb8 drivers/built-in.o
                0x00000000002384dc                key_bind_children
 .text.adc_key_ofdata_to_platdata
                0x0000000000238594      0x10c drivers/built-in.o
 .text.adc_key_bus_bind
                0x00000000002386a0        0xc drivers/built-in.o
 .text.gpio_key_ofdata_to_platdata
                0x00000000002386ac       0x94 drivers/built-in.o
 .text.gpio_key_bus_bind
                0x0000000000238740        0xc drivers/built-in.o
 .text.rk_key_ofdata_to_platdata
                0x000000000023874c      0x11c drivers/built-in.o
 .text.rk_key_bus_bind
                0x0000000000238868        0xc drivers/built-in.o
 .text.generic_phy_get_by_index
                0x0000000000238874       0xa8 drivers/built-in.o
                0x0000000000238874                generic_phy_get_by_index
 .text.generic_phy_get_by_name
                0x000000000023891c       0x4c drivers/built-in.o
                0x000000000023891c                generic_phy_get_by_name
 .text.generic_phy_init
                0x0000000000238968       0x28 drivers/built-in.o
                0x0000000000238968                generic_phy_init
 .text.generic_phy_exit
                0x0000000000238990       0x28 drivers/built-in.o
                0x0000000000238990                generic_phy_exit
 .text.generic_phy_power_on
                0x00000000002389b8       0x28 drivers/built-in.o
                0x00000000002389b8                generic_phy_power_on
 .text.generic_phy_power_off
                0x00000000002389e0       0x28 drivers/built-in.o
                0x00000000002389e0                generic_phy_power_off
 .text.generic_phy_configure
                0x0000000000238a08       0x28 drivers/built-in.o
                0x0000000000238a08                generic_phy_configure
 .text.rockchip_usb2phy_check_vbus
                0x0000000000238a30       0xb4 drivers/built-in.o
 .text.rockchip_chg_enable_dcd
                0x0000000000238ae4       0xc0 drivers/built-in.o
 .text.rockchip_chg_enable_primary_det
                0x0000000000238ba4       0xc0 drivers/built-in.o
 .text.rockchip_chg_enable_secondary_det
                0x0000000000238c64       0xc0 drivers/built-in.o
 .text.rockchip_usb2phy_exit
                0x0000000000238d24       0xa4 drivers/built-in.o
 .text.rockchip_usb2phy_init
                0x0000000000238dc8       0xac drivers/built-in.o
 .text.rk322x_usb2phy_tuning
                0x0000000000238e74       0x38 drivers/built-in.o
 .text.rockchip_usb2phy_power_off
                0x0000000000238eac       0x50 drivers/built-in.o
 .text.rockchip_usb2phy_power_on
                0x0000000000238efc       0x50 drivers/built-in.o
 .text.rockchip_usb2phy_probe
                0x0000000000238f4c      0x1fc drivers/built-in.o
 .text.rockchip_usb2phy_bind
                0x0000000000239148       0xe0 drivers/built-in.o
 .text.rockchip_usb2phy_of_xlate
                0x0000000000239228       0xb0 drivers/built-in.o
 .text.rockchip_chg_get_type
                0x00000000002392d8      0x424 drivers/built-in.o
                0x00000000002392d8                rockchip_chg_get_type
 .text.rockchip_u2phy_vbus_detect
                0x00000000002396fc       0x20 drivers/built-in.o
                0x00000000002396fc                rockchip_u2phy_vbus_detect
 .text.pinconfig_post_bind
                0x000000000023971c       0xe4 drivers/built-in.o
 .text.pinctrl_post_bind
                0x0000000000239800       0x28 drivers/built-in.o
 .text.pinctrl_select_state
                0x0000000000239828      0x158 drivers/built-in.o
                0x0000000000239828                pinctrl_select_state
 .text.pinctrl_request
                0x0000000000239980       0x1c drivers/built-in.o
                0x0000000000239980                pinctrl_request
 .text.pinctrl_request_noflags
                0x000000000023999c        0x8 drivers/built-in.o
                0x000000000023999c                pinctrl_request_noflags
 .text.pinctrl_get_gpio_mux
                0x00000000002399a4       0x1c drivers/built-in.o
                0x00000000002399a4                pinctrl_get_gpio_mux
 .text.rockchip_get_recalced_mux
                0x00000000002399c0       0xd8 drivers/built-in.o
                0x0000000000239a2c                rockchip_get_recalced_mux
 .text.px30_calc_pull_reg_and_bit
                0x0000000000239a98       0x6c drivers/built-in.o
 .text.px30_calc_drv_reg_and_bit
                0x0000000000239b04       0x6c drivers/built-in.o
 .text.px30_calc_schmitt_reg_and_bit
                0x0000000000239b70       0x68 drivers/built-in.o
 .text.rv1108_calc_pull_reg_and_bit
                0x0000000000239bd8       0x6c drivers/built-in.o
 .text.rv1108_calc_drv_reg_and_bit
                0x0000000000239c44       0x6c drivers/built-in.o
 .text.rv1108_calc_schmitt_reg_and_bit
                0x0000000000239cb0       0x68 drivers/built-in.o
 .text.rv1126_calc_pull_reg_and_bit
                0x0000000000239d18       0xac drivers/built-in.o
 .text.rv1126_calc_drv_reg_and_bit
                0x0000000000239dc4       0xa8 drivers/built-in.o
 .text.rv1126_calc_schmitt_reg_and_bit
                0x0000000000239e6c       0xac drivers/built-in.o
 .text.rk1808_calc_pull_reg_and_bit
                0x0000000000239f18       0x60 drivers/built-in.o
 .text.rk1808_calc_drv_reg_and_bit
                0x0000000000239f78       0x5c drivers/built-in.o
 .text.rk1808_calc_schmitt_reg_and_bit
                0x0000000000239fd4       0x6c drivers/built-in.o
 .text.rk2928_calc_pull_reg_and_bit
                0x000000000023a040       0x48 drivers/built-in.o
 .text.rk3128_calc_pull_reg_and_bit
                0x000000000023a088        0x4 drivers/built-in.o
 .text.rk3188_calc_pull_reg_and_bit
                0x000000000023a08c       0x7c drivers/built-in.o
 .text.rk3288_calc_pull_reg_and_bit
                0x000000000023a108       0x64 drivers/built-in.o
 .text.rk3288_calc_drv_reg_and_bit
                0x000000000023a16c       0x64 drivers/built-in.o
 .text.rk3228_calc_pull_reg_and_bit
                0x000000000023a1d0       0x4c drivers/built-in.o
 .text.rk3228_calc_drv_reg_and_bit
                0x000000000023a21c       0x4c drivers/built-in.o
 .text.rk3308_calc_pull_reg_and_bit
                0x000000000023a268       0x4c drivers/built-in.o
 .text.rk3308_calc_drv_reg_and_bit
                0x000000000023a2b4        0x4 drivers/built-in.o
 .text.rk3308_calc_schmitt_reg_and_bit
                0x000000000023a2b8       0x4c drivers/built-in.o
 .text.rk3368_calc_pull_reg_and_bit
                0x000000000023a304       0x64 drivers/built-in.o
 .text.rk3368_calc_drv_reg_and_bit
                0x000000000023a368       0x64 drivers/built-in.o
 .text.rk3399_calc_pull_reg_and_bit
                0x000000000023a3cc       0x78 drivers/built-in.o
 .text.rk3399_calc_drv_reg_and_bit
                0x000000000023a444       0x64 drivers/built-in.o
 .text.rk3328_calc_schmitt_reg_and_bit
                0x000000000023a4a8       0x4c drivers/built-in.o
 .text.px30_calc_slew_rate_reg_and_bit
                0x000000000023a4f4       0x68 drivers/built-in.o
 .text.rockchip_pinctrl_get_pins_count
                0x000000000023a55c       0x38 drivers/built-in.o
 .text.rockchip_pinctrl_get_gpio_mux
                0x000000000023a594      0x250 drivers/built-in.o
 .text.rockchip_set_pull
                0x000000000023a7e4      0x158 drivers/built-in.o
 .text.rockchip_pinctrl_probe
                0x000000000023a93c      0x55c drivers/built-in.o
                0x000000000023ac04                rockchip_pinctrl_probe
 .text.rockchip_pinctrl_set_state
                0x000000000023ae98      0x924 drivers/built-in.o
 .text.rockchip_get_mux_data
                0x000000000023b7bc       0x8c drivers/built-in.o
                0x000000000023b7bc                rockchip_get_mux_data
 .text.ram_get_info
                0x000000000023b848       0x1c drivers/built-in.o
                0x000000000023b848                ram_get_info
 .text.rk3399_dmc_get_info
                0x000000000023b864       0x34 drivers/built-in.o
 .text.rk3399_dmc_probe
                0x000000000023b898       0x40 drivers/built-in.o
 .text.gic_irq_enable
                0x000000000023b8d8       0x68 drivers/built-in.o
 .text.gic_irq_disable
                0x000000000023b940       0x40 drivers/built-in.o
 .text.gic_irq_set_type
                0x000000000023b980       0xc8 drivers/built-in.o
 .text.gic_irq_eoi
                0x000000000023ba48       0x14 drivers/built-in.o
 .text.gic_irq_get
                0x000000000023ba5c        0xc drivers/built-in.o
 .text.gic_irq_suspend
                0x000000000023ba68      0x198 drivers/built-in.o
 .text.gic_irq_resume
                0x000000000023bc00      0x1e4 drivers/built-in.o
 .text.gic_irq_init
                0x000000000023bde4        0x8 drivers/built-in.o
 .text.arch_gic_get_irqchip
                0x000000000023bdec        0xc drivers/built-in.o
                0x000000000023bdec                arch_gic_get_irqchip
 .text.gpio_bit_op
                0x000000000023bdf8       0x28 drivers/built-in.o
 .text.gpio_set_intr_type
                0x000000000023be20       0xa8 drivers/built-in.o
 .text.gpio_irq_get_gpio_level
                0x000000000023bec8       0x5c drivers/built-in.o
 .text.gpio_irq_revert_type
                0x000000000023bf24       0x9c drivers/built-in.o
 .text.gpio_irq_set_type
                0x000000000023bfc0       0xb0 drivers/built-in.o
 .text.gpio_irq_disable
                0x000000000023c070       0x90 drivers/built-in.o
 .text.gpio_irq_enable
                0x000000000023c100       0x80 drivers/built-in.o
 .text.gpio_irq_init
                0x000000000023c180       0x98 drivers/built-in.o
 .text.generic_gpio_handle_irq
                0x000000000023c218      0x130 drivers/built-in.o
 .text.arch_gpio_get_irqchip
                0x000000000023c348        0xc drivers/built-in.o
                0x000000000023c348                arch_gpio_get_irqchip
 .text.bad_irq_chip
                0x000000000023c354       0x34 drivers/built-in.o
 .text.__do_arch_irq_init
                0x000000000023c388      0x134 drivers/built-in.o
 .text.do_dump_irqs
                0x000000000023c4bc       0xc4 drivers/built-in.o
 .text.bad_irq  0x000000000023c580       0x7c drivers/built-in.o
                0x000000000023c580                bad_irq
 .text.__generic_gpio_handle_irq
                0x000000000023c5fc       0x84 drivers/built-in.o
                0x000000000023c5fc                __generic_gpio_handle_irq
 .text.__do_generic_irq_handler
                0x000000000023c680       0x74 drivers/built-in.o
                0x000000000023c680                __do_generic_irq_handler
 .text.irq_is_busy
                0x000000000023c6f4       0x34 drivers/built-in.o
                0x000000000023c6f4                irq_is_busy
 .text.irq_handler_enable
                0x000000000023c728       0x8c drivers/built-in.o
                0x000000000023c728                irq_handler_enable
 .text.irq_handler_disable
                0x000000000023c7b4       0x8c drivers/built-in.o
                0x000000000023c7b4                irq_handler_disable
 .text.irq_set_irq_type
                0x000000000023c840       0x70 drivers/built-in.o
                0x000000000023c840                irq_set_irq_type
 .text.irq_revert_irq_type
                0x000000000023c8b0       0x5c drivers/built-in.o
                0x000000000023c8b0                irq_revert_irq_type
 .text.irq_get_gpio_level
                0x000000000023c90c       0x5c drivers/built-in.o
                0x000000000023c90c                irq_get_gpio_level
 .text.irq_install_handler
                0x000000000023c968       0x5c drivers/built-in.o
                0x000000000023c968                irq_install_handler
 .text.irq_free_handler
                0x000000000023c9c4       0x58 drivers/built-in.o
                0x000000000023c9c4                irq_free_handler
 .text.irq_handler_enable_suspend_only
                0x000000000023ca1c       0x68 drivers/built-in.o
                0x000000000023ca1c                irq_handler_enable_suspend_only
 .text.irqs_suspend
                0x000000000023ca84       0x4c drivers/built-in.o
                0x000000000023ca84                irqs_suspend
 .text.irqs_resume
                0x000000000023cad0       0x4c drivers/built-in.o
                0x000000000023cad0                irqs_resume
 .text.do_irq   0x000000000023cb1c        0x4 drivers/built-in.o
                0x000000000023cb1c                do_irq
 .text.interrupt_init
                0x000000000023cb20        0x4 drivers/built-in.o
                0x000000000023cb20                interrupt_init
 .text.enable_interrupts
                0x000000000023cb24        0x8 drivers/built-in.o
                0x000000000023cb24                enable_interrupts
 .text.disable_interrupts
                0x000000000023cb2c        0xc drivers/built-in.o
                0x000000000023cb2c                disable_interrupts
 .text.gpio_is_valid
                0x000000000023cb38       0x4c drivers/built-in.o
 .text.__hard_gpio_to_irq
                0x000000000023cb84       0x84 drivers/built-in.o
 .text.phandle_gpio_to_irq
                0x000000000023cc08      0x150 drivers/built-in.o
                0x000000000023cc08                phandle_gpio_to_irq
 .text.irq_to_gpio
                0x000000000023cd58       0x54 drivers/built-in.o
                0x000000000023cd58                irq_to_gpio
 .text.gpio_id_to_bank
                0x000000000023cdac       0x40 drivers/built-in.o
                0x000000000023cdac                gpio_id_to_bank
 .text.gpio_to_bank
                0x000000000023cdec       0x38 drivers/built-in.o
                0x000000000023cdec                gpio_to_bank
 .text.find_virq_desc
                0x000000000023ce24       0x4c drivers/built-in.o
 .text.reg_base_get
                0x000000000023ce70       0x28 drivers/built-in.o
 .text.virq_init
                0x000000000023ce98       0x18 drivers/built-in.o
 .text.virq_chip_generic_handler
                0x000000000023ceb0      0x190 drivers/built-in.o
                0x000000000023ceb0                virq_chip_generic_handler
 .text.__virq_enable
                0x000000000023d040      0x124 drivers/built-in.o
 .text.virq_to_irq
                0x000000000023d164       0x64 drivers/built-in.o
                0x000000000023d164                virq_to_irq
 .text.bad_virq
                0x000000000023d1c8       0x1c drivers/built-in.o
                0x000000000023d1c8                bad_virq
 .text.virq_disable
                0x000000000023d1e4       0x78 drivers/built-in.o
 .text.virq_enable
                0x000000000023d25c       0x6c drivers/built-in.o
 .text.virqs_show
                0x000000000023d2c8       0xb0 drivers/built-in.o
                0x000000000023d2c8                virqs_show
 .text.virq_install_handler
                0x000000000023d378       0x60 drivers/built-in.o
                0x000000000023d378                virq_install_handler
 .text.virq_free_handler
                0x000000000023d3d8       0x34 drivers/built-in.o
                0x000000000023d3d8                virq_free_handler
 .text.virq_add_chip
                0x000000000023d40c      0x250 drivers/built-in.o
                0x000000000023d40c                virq_add_chip
 .text.arch_virq_get_irqchip
                0x000000000023d65c        0xc drivers/built-in.o
                0x000000000023d65c                arch_virq_get_irqchip
 .text.adc_pre_probe
                0x000000000023d668       0x5c drivers/built-in.o
 .text.check_channel
                0x000000000023d6c4       0x7c drivers/built-in.o
 .text.adc_start_channel
                0x000000000023d740       0x74 drivers/built-in.o
                0x000000000023d740                adc_start_channel
 .text.adc_channel_data
                0x000000000023d7b4       0xb8 drivers/built-in.o
                0x000000000023d7b4                adc_channel_data
 .text.adc_channel_single_shot
                0x000000000023d86c       0x54 drivers/built-in.o
                0x000000000023d86c                adc_channel_single_shot
 .text.rockchip_saradc_stop
                0x000000000023d8c0       0x2c drivers/built-in.o
                0x000000000023d8c0                rockchip_saradc_stop
 .text.rockchip_saradc_channel_data
                0x000000000023d8ec       0xa0 drivers/built-in.o
                0x000000000023d8ec                rockchip_saradc_channel_data
 .text.rockchip_saradc_start_channel
                0x000000000023d98c       0x78 drivers/built-in.o
                0x000000000023d98c                rockchip_saradc_start_channel
 .text.rockchip_saradc_probe
                0x000000000023da04       0x68 drivers/built-in.o
                0x000000000023da04                rockchip_saradc_probe
 .text.rockchip_saradc_ofdata_to_platdata
                0x000000000023da6c       0xa4 drivers/built-in.o
                0x000000000023da6c                rockchip_saradc_ofdata_to_platdata
 .text.get_desc
                0x000000000023db10       0xd0 drivers/built-in.o
 .text.if_typename_to_iftype
                0x000000000023dbe0       0x5c drivers/built-in.o
                0x000000000023dbe0                if_typename_to_iftype
 .text.blk_get_if_type_name
                0x000000000023dc3c       0x10 drivers/built-in.o
                0x000000000023dc3c                blk_get_if_type_name
 .text.blk_get_devnum_by_typename
                0x000000000023dc4c       0xb4 drivers/built-in.o
                0x000000000023dc4c                blk_get_devnum_by_typename
 .text.blk_list_part
                0x000000000023dd00       0x7c drivers/built-in.o
                0x000000000023dd00                blk_list_part
 .text.blk_print_part_devnum
                0x000000000023dd7c       0x48 drivers/built-in.o
                0x000000000023dd7c                blk_print_part_devnum
 .text.blk_list_devices
                0x000000000023ddc4       0x78 drivers/built-in.o
                0x000000000023ddc4                blk_list_devices
 .text.blk_print_device_num
                0x000000000023de3c       0x48 drivers/built-in.o
                0x000000000023de3c                blk_print_device_num
 .text.blk_show_device
                0x000000000023de84       0x7c drivers/built-in.o
                0x000000000023de84                blk_show_device
 .text.blk_select_hwpart
                0x000000000023df00       0x28 drivers/built-in.o
                0x000000000023df00                blk_select_hwpart
 .text.blk_dselect_hwpart
                0x000000000023df28        0x8 drivers/built-in.o
                0x000000000023df28                blk_dselect_hwpart
 .text.blk_first_device
                0x000000000023df30       0x70 drivers/built-in.o
                0x000000000023df30                blk_first_device
 .text.blk_next_device
                0x000000000023dfa0       0x64 drivers/built-in.o
                0x000000000023dfa0                blk_next_device
 .text.blk_find_device
                0x000000000023e004       0xa0 drivers/built-in.o
                0x000000000023e004                blk_find_device
 .text.blk_get_device
                0x000000000023e0a4       0x34 drivers/built-in.o
                0x000000000023e0a4                blk_get_device
 .text.blk_get_devnum_by_type
                0x000000000023e0d8       0x2c drivers/built-in.o
                0x000000000023e0d8                blk_get_devnum_by_type
 .text.blk_select_hwpart_devnum
                0x000000000023e104       0x34 drivers/built-in.o
                0x000000000023e104                blk_select_hwpart_devnum
 .text.blk_dread
                0x000000000023e138       0x20 drivers/built-in.o
                0x000000000023e138                blk_dread
 .text.blk_read_devnum
                0x000000000023e158       0x4c drivers/built-in.o
                0x000000000023e158                blk_read_devnum
 .text.blk_dwrite
                0x000000000023e1a4       0x20 drivers/built-in.o
                0x000000000023e1a4                blk_dwrite
 .text.blk_write_devnum
                0x000000000023e1c4       0x4c drivers/built-in.o
                0x000000000023e1c4                blk_write_devnum
 .text.blk_derase
                0x000000000023e210       0x20 drivers/built-in.o
                0x000000000023e210                blk_derase
 .text.blk_prepare_device
                0x000000000023e230       0x1c drivers/built-in.o
                0x000000000023e230                blk_prepare_device
 .text.blk_find_max_devnum
                0x000000000023e24c       0x90 drivers/built-in.o
                0x000000000023e24c                blk_find_max_devnum
 .text.blk_create_device
                0x000000000023e2dc      0x180 drivers/built-in.o
                0x000000000023e2dc                blk_create_device
 .text.blk_create_devicef
                0x000000000023e45c       0xbc drivers/built-in.o
                0x000000000023e45c                blk_create_devicef
 .text.psci_probe
                0x000000000023e518       0xa4 drivers/built-in.o
 .text.__invoke_psci_fn_smc
                0x000000000023e5bc       0x38 drivers/built-in.o
 .text.__invoke_psci_fn_hvc
                0x000000000023e5f4       0x38 drivers/built-in.o
 .text.psci_bind
                0x000000000023e62c       0x68 drivers/built-in.o
 .text.misc_read
                0x000000000023e694       0x1c drivers/built-in.o
                0x000000000023e694                misc_read
 .text.rockchip_efuse_ioctl
                0x000000000023e6b0       0x54 drivers/built-in.o
 .text.rockchip_efuse_read
                0x000000000023e704       0x4c drivers/built-in.o
 .text.rockchip_efuse_ofdata_to_platdata
                0x000000000023e750       0x34 drivers/built-in.o
 .text.rockchip_rk3288_efuse_read
                0x000000000023e784      0x104 drivers/built-in.o
 .text.rockchip_rk3399_efuse_read
                0x000000000023e888      0x10c drivers/built-in.o
 .text.rockchip_rk3368_efuse_read
                0x000000000023e994      0x120 drivers/built-in.o
 .text.rockchip_rk3288_efuse_secure_read
                0x000000000023eab4      0x130 drivers/built-in.o
 .text.rockchip_rk1808_efuse_read
                0x000000000023ebe4      0x1b8 drivers/built-in.o
 .text.rockchip_rk3328_efuse_read
                0x000000000023ed9c      0x134 drivers/built-in.o
 .text.mmc_send_op_cond_iter
                0x000000000023eed0       0x74 drivers/built-in.o
 .text.mmc_read_blocks
                0x000000000023ef44       0xc8 drivers/built-in.o
 .text.mmc_go_idle
                0x000000000023f00c       0x50 drivers/built-in.o
 .text.mmc_set_capacity
                0x000000000023f05c       0x84 drivers/built-in.o
 .text.__mmc_switch.isra.1
                0x000000000023f0e0      0x130 drivers/built-in.o
 .text.mmc_send_ext_csd
                0x000000000023f210       0xa0 drivers/built-in.o
 .text.mmc_select_bus_width
                0x000000000023f2b0      0x15c drivers/built-in.o
 .text.mmc_send_status
                0x000000000023f40c       0xe0 drivers/built-in.o
                0x000000000023f40c                mmc_send_status
 .text.mmc_set_blocklen
                0x000000000023f4ec       0x4c drivers/built-in.o
                0x000000000023f4ec                mmc_set_blocklen
 .text.mmc_set_clock
                0x000000000023f538       0x24 drivers/built-in.o
                0x000000000023f538                mmc_set_clock
 .text.mmc_set_bus_speed
                0x000000000023f55c       0x5c drivers/built-in.o
 .text.mmc_startup
                0x000000000023f5b8      0xc1c drivers/built-in.o
 .text.mmc_send_tuning
                0x00000000002401d4       0xe8 drivers/built-in.o
                0x00000000002401d4                mmc_send_tuning
 .text.mmc_switch_part
                0x00000000002402bc       0x7c drivers/built-in.o
                0x00000000002402bc                mmc_switch_part
 .text.mmc_hwpart_config
                0x0000000000240338      0x3d8 drivers/built-in.o
                0x0000000000240338                mmc_hwpart_config
 .text.mmc_start_init
                0x0000000000240710      0x254 drivers/built-in.o
                0x0000000000240710                mmc_start_init
 .text.mmc_init
                0x0000000000240964      0x13c drivers/built-in.o
                0x0000000000240964                mmc_init
 .text.mmc_bread
                0x0000000000240aa0      0x154 drivers/built-in.o
                0x0000000000240aa0                mmc_bread
 .text.mmc_set_dsr
                0x0000000000240bf4       0x10 drivers/built-in.o
                0x0000000000240bf4                mmc_set_dsr
 .text.mmc_initialize
                0x0000000000240c04       0xd8 drivers/built-in.o
                0x0000000000240c04                mmc_initialize
 .text.mmc_blk_probe
                0x0000000000240cdc       0x1c drivers/built-in.o
 .text.mmc_card_busy
                0x0000000000240cf8       0x20 drivers/built-in.o
                0x0000000000240cf8                mmc_card_busy
 .text.mmc_can_card_busy
                0x0000000000240d18       0x1c drivers/built-in.o
                0x0000000000240d18                mmc_can_card_busy
 .text.dm_mmc_set_ios
                0x0000000000240d34       0x1c drivers/built-in.o
                0x0000000000240d34                dm_mmc_set_ios
 .text.mmc_set_ios
                0x0000000000240d50        0x8 drivers/built-in.o
                0x0000000000240d50                mmc_set_ios
 .text.dm_mmc_get_wp
                0x0000000000240d58       0x1c drivers/built-in.o
                0x0000000000240d58                dm_mmc_get_wp
 .text.mmc_getwp
                0x0000000000240d74        0x8 drivers/built-in.o
                0x0000000000240d74                mmc_getwp
 .text.dm_mmc_get_cd
                0x0000000000240d7c       0x1c drivers/built-in.o
                0x0000000000240d7c                dm_mmc_get_cd
 .text.mmc_getcd
                0x0000000000240d98        0x8 drivers/built-in.o
                0x0000000000240d98                mmc_getcd
 .text.mmc_get_mmc_dev
                0x0000000000240da0       0x28 drivers/built-in.o
                0x0000000000240da0                mmc_get_mmc_dev
 .text.dm_mmc_send_cmd
                0x0000000000240dc8       0x80 drivers/built-in.o
                0x0000000000240dc8                dm_mmc_send_cmd
 .text.mmc_send_cmd
                0x0000000000240e48        0x8 drivers/built-in.o
                0x0000000000240e48                mmc_send_cmd
 .text.mmc_select_hwpart
                0x0000000000240e50       0x78 drivers/built-in.o
 .text.find_mmc_device
                0x0000000000240ec8       0x54 drivers/built-in.o
                0x0000000000240ec8                find_mmc_device
 .text.get_mmc_num
                0x0000000000240f1c       0x20 drivers/built-in.o
                0x0000000000240f1c                get_mmc_num
 .text.mmc_get_blk_desc
                0x0000000000240f3c       0x28 drivers/built-in.o
                0x0000000000240f3c                mmc_get_blk_desc
 .text.mmc_do_preinit
                0x0000000000240f64       0x68 drivers/built-in.o
                0x0000000000240f64                mmc_do_preinit
 .text.print_mmc_devices
                0x0000000000240fcc      0x100 drivers/built-in.o
                0x0000000000240fcc                print_mmc_devices
 .text.mmc_bind
                0x00000000002410cc       0xb8 drivers/built-in.o
                0x00000000002410cc                mmc_bind
 .text.mmc_erase_t
                0x0000000000241184       0xf8 drivers/built-in.o
 .text.mmc_berase
                0x000000000024127c      0x160 drivers/built-in.o
                0x000000000024127c                mmc_berase
 .text.mmc_bwrite
                0x00000000002413dc      0x1a8 drivers/built-in.o
                0x00000000002413dc                mmc_bwrite
 .text.dwmci_execute_tuning
                0x0000000000241584       0x34 drivers/built-in.o
 .text.dwmci_card_busy
                0x00000000002415b8       0x28 drivers/built-in.o
 .text.dwmci_get_cd
                0x00000000002415e0       0x3c drivers/built-in.o
 .text.dwmci_wait_reset.isra.0
                0x000000000024161c       0x3c drivers/built-in.o
 .text.dwmci_send_cmd
                0x0000000000241658      0x624 drivers/built-in.o
 .text.dwmci_setup_bus
                0x0000000000241c7c      0x110 drivers/built-in.o
 .text.dwmci_set_ios
                0x0000000000241d8c       0xa4 drivers/built-in.o
 .text.dwmci_probe
                0x0000000000241e30      0x16c drivers/built-in.o
                0x0000000000241e30                dwmci_probe
 .text.dwmci_setup_cfg
                0x0000000000241f9c       0x48 drivers/built-in.o
                0x0000000000241f9c                dwmci_setup_cfg
 .text.dwmci_bind
                0x0000000000241fe4        0x4 drivers/built-in.o
                0x0000000000241fe4                dwmci_bind
 .text.rockchip_dwmmc_ofdata_to_platdata
                0x0000000000241fe8      0x100 drivers/built-in.o
 .text.rockchip_dwmmc_get_mmc_clk
                0x00000000002420e8       0x58 drivers/built-in.o
 .text.rockchip_dwmmc_probe
                0x0000000000242140      0x124 drivers/built-in.o
 .text.rockchip_dwmmc_execute_tuning
                0x0000000000242264      0x104 drivers/built-in.o
 .text.rockchip_dwmmc_bind
                0x0000000000242368       0x2c drivers/built-in.o
 .text.board_mmc_dm_reinit
                0x0000000000242394       0x78 drivers/built-in.o
                0x0000000000242394                board_mmc_dm_reinit
 .text.mmc_rpmb_request
                0x000000000024240c       0xbc drivers/built-in.o
 .text.rpmb_hmac
                0x00000000002424c8       0xec drivers/built-in.o
 .text.mmc_rpmb_response
                0x00000000002425b4      0x124 drivers/built-in.o
 .text.mmc_rpmb_status
                0x00000000002426d8       0x84 drivers/built-in.o
 .text.mmc_rpmb_get_counter
                0x000000000024275c       0x94 drivers/built-in.o
                0x000000000024275c                mmc_rpmb_get_counter
 .text.mmc_rpmb_set_key
                0x00000000002427f0       0x8c drivers/built-in.o
                0x00000000002427f0                mmc_rpmb_set_key
 .text.mmc_rpmb_read
                0x000000000024287c      0x198 drivers/built-in.o
                0x000000000024287c                mmc_rpmb_read
 .text.mmc_rpmb_write
                0x0000000000242a14      0x228 drivers/built-in.o
                0x0000000000242a14                mmc_rpmb_write
 .text.read_counter
                0x0000000000242c3c       0x54 drivers/built-in.o
                0x0000000000242c3c                read_counter
 .text.program_key
                0x0000000000242c90       0x84 drivers/built-in.o
                0x0000000000242c90                program_key
 .text.authenticated_read
                0x0000000000242d14       0x60 drivers/built-in.o
                0x0000000000242d14                authenticated_read
 .text.authenticated_write
                0x0000000000242d74       0x84 drivers/built-in.o
                0x0000000000242d74                authenticated_write
 .text.sdhci_card_busy
                0x0000000000242df8       0x2c drivers/built-in.o
 .text.sdhci_reset.isra.3
                0x0000000000242e24       0x88 drivers/built-in.o
 .text.sdhci_send_command
                0x0000000000242eac      0x5a4 drivers/built-in.o
 .text.sdhci_execute_tuning
                0x0000000000243450      0x114 drivers/built-in.o
 .text.sdhci_set_clock
                0x0000000000243564      0x1ac drivers/built-in.o
                0x0000000000243564                sdhci_set_clock
 .text.sdhci_set_ios
                0x0000000000243710      0x1d4 drivers/built-in.o
 .text.sdhci_probe
                0x00000000002438e4      0x19c drivers/built-in.o
                0x00000000002438e4                sdhci_probe
 .text.sdhci_setup_cfg
                0x0000000000243a80      0x190 drivers/built-in.o
                0x0000000000243a80                sdhci_setup_cfg
 .text.sdhci_bind
                0x0000000000243c10        0x4 drivers/built-in.o
                0x0000000000243c10                sdhci_bind
 .text.rk3399_emmc_phy_init
                0x0000000000243c14        0x8 drivers/built-in.o
 .text.rk3568_emmc_phy_init
                0x0000000000243c1c       0x28 drivers/built-in.o
 .text.arasan_sdhci_ofdata_to_platdata
                0x0000000000243c44       0x3c drivers/built-in.o
 .text.arasan_sdhci_set_clock
                0x0000000000243c80       0x48 drivers/built-in.o
 .text.arasan_sdhci_probe
                0x0000000000243cc8      0x1e8 drivers/built-in.o
 .text.rockchip_sdhci_bind
                0x0000000000243eb0       0x2c drivers/built-in.o
 .text.rk3399_emmc_get_phy
                0x0000000000243edc       0x98 drivers/built-in.o
 .text.rk3399_emmc_set_clock
                0x0000000000243f74      0x1a0 drivers/built-in.o
 .text.rk3568_sdhci_emmc_set_clock
                0x0000000000244114      0x130 drivers/built-in.o
 .text.rk3399_sdhci_emmc_set_clock
                0x0000000000244244      0x18c drivers/built-in.o
 .text.rk3568_emmc_get_phy
                0x00000000002443d0        0x8 drivers/built-in.o
 .text.sysreset_request
                0x00000000002443d8       0x1c drivers/built-in.o
                0x00000000002443d8                sysreset_request
 .text.sysreset_walk
                0x00000000002443f4       0xa0 drivers/built-in.o
                0x00000000002443f4                sysreset_walk
 .text.sysreset_walk_halt
                0x0000000000244494       0x38 drivers/built-in.o
                0x0000000000244494                sysreset_walk_halt
 .text.reboot   0x00000000002444cc       0x58 drivers/built-in.o
                0x00000000002444cc                reboot
 .text.do_reset
                0x0000000000244524       0x20 drivers/built-in.o
                0x0000000000244524                do_reset
 .text.syscon_reboot_request_by_mode
                0x0000000000244544       0xe4 drivers/built-in.o
 .text.psci_sysreset_request
                0x0000000000244628       0x54 drivers/built-in.o
 .text.rockchip_sysreset_request
                0x000000000024467c       0x68 drivers/built-in.o
                0x000000000024467c                rockchip_sysreset_request
 .text.backlight_enable
                0x00000000002446e4       0x1c drivers/built-in.o
                0x00000000002446e4                backlight_enable
 .text.backlight_disable
                0x0000000000244700       0x1c drivers/built-in.o
                0x0000000000244700                backlight_disable
 .text.simple_panel_enable_backlight
                0x000000000024471c       0x30 drivers/built-in.o
 .text.simple_panel_ofdata_to_platdata
                0x000000000024474c       0x90 drivers/built-in.o
 .text.simple_panel_probe
                0x00000000002447dc       0x2c drivers/built-in.o
 .text.video_pre_remove
                0x0000000000244808       0x20 drivers/built-in.o
 .text.video_post_probe
                0x0000000000244828      0x124 drivers/built-in.o
 .text.video_pre_probe
                0x000000000024494c       0x3c drivers/built-in.o
 .text.video_post_bind
                0x0000000000244988       0x80 drivers/built-in.o
 .text.video_reserve
                0x0000000000244a08       0x24 drivers/built-in.o
                0x0000000000244a08                video_reserve
 .text.video_sync
                0x0000000000244a2c       0x3c drivers/built-in.o
                0x0000000000244a2c                video_sync
 .text.vidconsole_pre_probe
                0x0000000000244a68       0x3c drivers/built-in.o
 .text.vidconsole_post_probe
                0x0000000000244aa4       0x8c drivers/built-in.o
 .text.vidconsole_putc_xy
                0x0000000000244b30       0x20 drivers/built-in.o
                0x0000000000244b30                vidconsole_putc_xy
 .text.vidconsole_move_rows
                0x0000000000244b50       0x1c drivers/built-in.o
                0x0000000000244b50                vidconsole_move_rows
 .text.vidconsole_set_row
                0x0000000000244b6c       0x1c drivers/built-in.o
                0x0000000000244b6c                vidconsole_set_row
 .text.vidconsole_newline
                0x0000000000244b88       0xa4 drivers/built-in.o
 .text.vidconsole_put_char
                0x0000000000244c2c      0x180 drivers/built-in.o
                0x0000000000244c2c                vidconsole_put_char
 .text.vidconsole_puts
                0x0000000000244dac       0x3c drivers/built-in.o
 .text.vidconsole_putc
                0x0000000000244de8       0x28 drivers/built-in.o
 .text.do_video_puts
                0x0000000000244e10       0x7c drivers/built-in.o
 .text.vidconsole_position_cursor
                0x0000000000244e8c       0x70 drivers/built-in.o
                0x0000000000244e8c                vidconsole_position_cursor
 .text.do_video_setcursor
                0x0000000000244efc       0x88 drivers/built-in.o
 .text.pwm_backlight_probe
                0x0000000000244f84        0x8 drivers/built-in.o
 .text.pwm_backlight_disable
                0x0000000000244f8c       0xc4 drivers/built-in.o
 .text.pwm_backlight_enable
                0x0000000000245050      0x104 drivers/built-in.o
 .text.pwm_backlight_ofdata_to_platdata
                0x0000000000245154      0x158 drivers/built-in.o
 .text.console_normal_set_row
                0x00000000002452ac       0xbc drivers/built-in.o
 .text.console_normal_putc_xy
                0x0000000000245368      0x15c drivers/built-in.o
 .text.console_normal_probe
                0x00000000002454c4       0x50 drivers/built-in.o
 .text.console_normal_move_rows
                0x0000000000245514       0x64 drivers/built-in.o
 .text.__get_unaligned_le32
                0x0000000000245578       0x20 drivers/built-in.o
 .text.rockchip_display_bind
                0x0000000000245598       0x20 drivers/built-in.o
                0x0000000000245598                rockchip_display_bind
 .text.rockchip_of_find_panel
                0x00000000002455b8      0x208 drivers/built-in.o
 .text.rockchip_display_make_crc32_table
                0x00000000002457c0       0x74 drivers/built-in.o
                0x00000000002457c0                rockchip_display_make_crc32_table
 .text.rockchip_display_crc32c_cal
                0x0000000000245834       0x3c drivers/built-in.o
                0x0000000000245834                rockchip_display_crc32c_cal
 .text.rockchip_get_baseparameter
                0x0000000000245870      0x10c drivers/built-in.o
                0x0000000000245870                rockchip_get_baseparameter
 .text.rockchip_display_probe
                0x000000000024597c      0xaa0 drivers/built-in.o
 .text.rockchip_get_disp_info
                0x000000000024641c      0x110 drivers/built-in.o
                0x000000000024641c                rockchip_get_disp_info
 .text.get_display_buffer
                0x000000000024652c       0x5c drivers/built-in.o
                0x000000000024652c                get_display_buffer
 .text.drm_mode_vrefresh
                0x0000000000246588       0x74 drivers/built-in.o
                0x0000000000246588                drm_mode_vrefresh
 .text.drm_mode_max_resolution_filter
                0x00000000002465fc       0x50 drivers/built-in.o
                0x00000000002465fc                drm_mode_max_resolution_filter
 .text.drm_mode_set_crtcinfo
                0x000000000024664c      0x16c drivers/built-in.o
                0x000000000024664c                drm_mode_set_crtcinfo
 .text.display_logo
                0x00000000002467b8      0x918 drivers/built-in.o
 .text.drm_mode_is_420_only
                0x00000000002470d0       0x48 drivers/built-in.o
                0x00000000002470d0                drm_mode_is_420_only
 .text.drm_mode_is_420_also
                0x0000000000247118       0x48 drivers/built-in.o
                0x0000000000247118                drm_mode_is_420_also
 .text.drm_mode_is_420
                0x0000000000247160       0x48 drivers/built-in.o
                0x0000000000247160                drm_mode_is_420
 .text.display_send_mcu_cmd
                0x00000000002471a8       0x2c drivers/built-in.o
                0x00000000002471a8                display_send_mcu_cmd
 .text.find_or_alloc_logo_cache
                0x00000000002471d4       0xa8 drivers/built-in.o
                0x00000000002471d4                find_or_alloc_logo_cache
 .text.load_bmp_logo
                0x000000000024727c      0x248 drivers/built-in.o
 .text.rockchip_show_bmp
                0x00000000002474c4      0x134 drivers/built-in.o
                0x00000000002474c4                rockchip_show_bmp
 .text.do_rockchip_show_bmp
                0x00000000002475f8       0x2c drivers/built-in.o
 .text.rockchip_show_logo
                0x0000000000247624       0x7c drivers/built-in.o
                0x0000000000247624                rockchip_show_logo
 .text.do_rockchip_logo_show
                0x00000000002476a0       0x28 drivers/built-in.o
 .text.rockchip_display_fixup
                0x00000000002476c8      0x4e8 drivers/built-in.o
                0x00000000002476c8                rockchip_display_fixup
 .text.rockchip_vop_probe
                0x0000000000247bb0        0x8 drivers/built-in.o
 .text.rockchip_vop_bind
                0x0000000000247bb8        0x8 drivers/built-in.o
 .text.rockchip_phy_init
                0x0000000000247bc0       0x28 drivers/built-in.o
                0x0000000000247bc0                rockchip_phy_init
 .text.rockchip_phy_power_on
                0x0000000000247be8       0x28 drivers/built-in.o
                0x0000000000247be8                rockchip_phy_power_on
 .text.rockchip_phy_power_off
                0x0000000000247c10       0x28 drivers/built-in.o
                0x0000000000247c10                rockchip_phy_power_off
 .text.rockchip_phy_set_pll
                0x0000000000247c38       0x28 drivers/built-in.o
                0x0000000000247c38                rockchip_phy_set_pll
 .text.rockchip_phy_set_bus_width
                0x0000000000247c60       0x28 drivers/built-in.o
                0x0000000000247c60                rockchip_phy_set_bus_width
 .text.rockchip_phy_round_rate
                0x0000000000247c88       0x28 drivers/built-in.o
                0x0000000000247c88                rockchip_phy_round_rate
 .text.rockchip_phy_set_mode
                0x0000000000247cb0       0x28 drivers/built-in.o
                0x0000000000247cb0                rockchip_phy_set_mode
 .text.rockchip_bridge_pre_enable
                0x0000000000247cd8       0x1c drivers/built-in.o
                0x0000000000247cd8                rockchip_bridge_pre_enable
 .text.rockchip_bridge_post_disable
                0x0000000000247cf4       0x1c drivers/built-in.o
                0x0000000000247cf4                rockchip_bridge_post_disable
 .text.rockchip_bridge_enable
                0x0000000000247d10       0x1c drivers/built-in.o
                0x0000000000247d10                rockchip_bridge_enable
 .text.rockchip_bridge_disable
                0x0000000000247d2c       0x1c drivers/built-in.o
                0x0000000000247d2c                rockchip_bridge_disable
 .text.rockchip_bridge_mode_set
                0x0000000000247d48       0x24 drivers/built-in.o
                0x0000000000247d48                rockchip_bridge_mode_set
 .text.is_yuv_output
                0x0000000000247d6c       0x60 drivers/built-in.o
 .text.rockchip_vop_preinit
                0x0000000000247dcc       0x18 drivers/built-in.o
 .text.rockchip_vop_prepare
                0x0000000000247de4        0x8 drivers/built-in.o
 .text.rockchip_vop_enable
                0x0000000000247dec      0x200 drivers/built-in.o
 .text.rockchip_vop_disable
                0x0000000000247fec      0x164 drivers/built-in.o
 .text.rockchip_vop_fixup_dts
                0x0000000000248150        0x8 drivers/built-in.o
 .text.rockchip_vop_send_mcu_cmd
                0x0000000000248158      0x3fc drivers/built-in.o
 .text.rockchip_vop_init
                0x0000000000248554     0x3dec drivers/built-in.o
 .text.rockchip_vop_set_plane
                0x000000000024c340     0x1574 drivers/built-in.o
 .text.rockchip_vop2_prepare
                0x000000000024d8b4        0x8 drivers/built-in.o
 .text.rockchip_vop2_enable
                0x000000000024d8bc       0x60 drivers/built-in.o
 .text.rockchip_vop2_disable
                0x000000000024d91c       0x60 drivers/built-in.o
 .text.rockchip_vop2_fixup_dts
                0x000000000024d97c      0x100 drivers/built-in.o
 .text.rockchip_vop2_preinit
                0x000000000024da7c       0xf8 drivers/built-in.o
 .text.rockchip_vop2_init
                0x000000000024db74     0x1678 drivers/built-in.o
 .text.vop2_scale_factor.part.2
                0x000000000024f1ec       0xf0 drivers/built-in.o
 .text.rockchip_vop2_set_plane
                0x000000000024f2dc      0x4e8 drivers/built-in.o
 .text.bmpdecoder
                0x000000000024f7c4      0x490 drivers/built-in.o
                0x000000000024f7c4                bmpdecoder
 .text.mipi_dsi_device_transfer
                0x000000000024fc54       0x38 drivers/built-in.o
 .text.mipi_dsi_attach
                0x000000000024fc8c       0x24 drivers/built-in.o
                0x000000000024fc8c                mipi_dsi_attach
 .text.mipi_dsi_packet_format_is_short
                0x000000000024fcb0       0x38 drivers/built-in.o
                0x000000000024fcb0                mipi_dsi_packet_format_is_short
 .text.mipi_dsi_packet_format_is_long
                0x000000000024fce8       0x38 drivers/built-in.o
                0x000000000024fce8                mipi_dsi_packet_format_is_long
 .text.mipi_dsi_create_packet
                0x000000000024fd20       0xfc drivers/built-in.o
                0x000000000024fd20                mipi_dsi_create_packet
 .text.mipi_dsi_generic_write
                0x000000000024fe1c       0x5c drivers/built-in.o
                0x000000000024fe1c                mipi_dsi_generic_write
 .text.mipi_dsi_dcs_write_buffer
                0x000000000024fe78       0x5c drivers/built-in.o
                0x000000000024fe78                mipi_dsi_dcs_write_buffer
 .text.drm_dp_bw_code_to_link_rate
                0x000000000024fed4       0x7c drivers/built-in.o
                0x000000000024fed4                drm_dp_bw_code_to_link_rate
 .text.grf_field_write
                0x000000000024ff50       0x64 drivers/built-in.o
 .text.dw_mipi_dsi_get_hcomponent_lbcc
                0x000000000024ffb4       0x2c drivers/built-in.o
 .text.dw_mipi_dsi_connector_pre_init
                0x000000000024ffe0       0x10 drivers/built-in.o
 .text.dw_mipi_dsi_child_pre_probe
                0x000000000024fff0       0x3c drivers/built-in.o
 .text.dw_mipi_dsi_child_post_bind
                0x000000000025002c       0xd0 drivers/built-in.o
 .text.dw_mipi_dsi_host_attach
                0x00000000002500fc       0x5c drivers/built-in.o
 .text.dw_mipi_dsi_connector_disable
                0x0000000000250158       0x74 drivers/built-in.o
 .text.dw_mipi_dsi_connector_enable
                0x00000000002501cc       0xd4 drivers/built-in.o
 .text.dw_mipi_dsi_probe
                0x00000000002502a0       0x94 drivers/built-in.o
 .text.dw_mipi_dsi_bind
                0x0000000000250334       0x30 drivers/built-in.o
 .text.dw_mipi_dsi_post_disable
                0x0000000000250364       0x60 drivers/built-in.o
 .text.dw_mipi_dsi_connector_unprepare
                0x00000000002503c4       0x18 drivers/built-in.o
 .text.dw_mipi_dsi_connector_init
                0x00000000002503dc      0x13c drivers/built-in.o
 .text.testif_write
                0x0000000000250518      0x168 drivers/built-in.o
 .text.dw_mipi_dsi_phy_init
                0x0000000000250680      0x128 drivers/built-in.o
 .text.dw_mipi_dsi_pre_enable
                0x00000000002507a8      0x5bc drivers/built-in.o
 .text.dw_mipi_dsi_transfer
                0x0000000000250d64      0x604 drivers/built-in.o
 .text.dw_mipi_dsi_host_transfer
                0x0000000000251368       0x20 drivers/built-in.o
 .text.dw_mipi_dsi_connector_prepare
                0x0000000000251388      0x2b4 drivers/built-in.o
 .text.rockchip_dw_hdmi_probe
                0x000000000025163c        0x8 drivers/built-in.o
 .text.drm_rk_selete_output
                0x0000000000251644      0x494 drivers/built-in.o
                0x0000000000251644                drm_rk_selete_output
 .text.inno_dw_hdmi_set_domain
                0x0000000000251ad8       0x24 drivers/built-in.o
                0x0000000000251ad8                inno_dw_hdmi_set_domain
 .text.dw_hdmi_set_iomux
                0x0000000000251afc       0x60 drivers/built-in.o
                0x0000000000251afc                dw_hdmi_set_iomux
 .text.dw_hdmi_writel
                0x0000000000251b5c       0x1c drivers/built-in.o
 .text.dw_hdmi_readl
                0x0000000000251b78       0x18 drivers/built-in.o
 .text.dw_hdmi_writeb
                0x0000000000251b90       0x18 drivers/built-in.o
 .text.dw_hdmi_readb
                0x0000000000251ba8       0x18 drivers/built-in.o
 .text.hdmi_modb
                0x0000000000251bc0       0x5c drivers/built-in.o
 .text.hdmi_bus_fmt_is_rgb
                0x0000000000251c1c       0x30 drivers/built-in.o
 .text.hdmi_bus_fmt_is_yuv444
                0x0000000000251c4c       0x34 drivers/built-in.o
 .text.hdmi_bus_fmt_is_yuv422
                0x0000000000251c80       0x34 drivers/built-in.o
 .text.hdmi_bus_fmt_is_yuv420
                0x0000000000251cb4       0x30 drivers/built-in.o
 .text.hdmi_bus_fmt_color_depth
                0x0000000000251ce4       0xd4 drivers/built-in.o
 .text.dw_hdmi_phy_read_hpd
                0x0000000000251db8       0x20 drivers/built-in.o
 .text.hdmi_set_cts_n
                0x0000000000251dd8       0xc8 drivers/built-in.o
 .text.dw_hdmi_i2c_xfer
                0x0000000000251ea0      0x388 drivers/built-in.o
 .text.rockchip_dw_hdmi_scdc_set_tmds_rate
                0x0000000000252228       0x68 drivers/built-in.o
 .text.is_color_space_conversion
                0x0000000000252290       0x74 drivers/built-in.o
 .text.hdmi_set_clk_regenerator
                0x0000000000252304      0x264 drivers/built-in.o
 .text.dw_hdmi_phy_i2c_write
                0x0000000000252568       0xd8 drivers/built-in.o
 .text.hdmi_phy_configure_dwc_hdmi_3d_tx
                0x0000000000252640      0x1e8 drivers/built-in.o
 .text.dw_hdmi_phy_power_off
                0x0000000000252828       0xb8 drivers/built-in.o
 .text.dw_hdmi_phy_disable
                0x00000000002528e0        0x4 drivers/built-in.o
 .text.dw_hdmi_phy_init
                0x00000000002528e4      0x258 drivers/built-in.o
 .text.dw_hdmi_detect_hotplug
                0x0000000000252b3c        0xc drivers/built-in.o
                0x0000000000252b3c                dw_hdmi_detect_hotplug
 .text.rockchip_dw_hdmi_pre_init
                0x0000000000252b48       0x10 drivers/built-in.o
                0x0000000000252b48                rockchip_dw_hdmi_pre_init
 .text.rockchip_dw_hdmi_init
                0x0000000000252b58      0x62c drivers/built-in.o
                0x0000000000252b58                rockchip_dw_hdmi_init
 .text.rockchip_dw_hdmi_deinit
                0x0000000000253184       0x48 drivers/built-in.o
                0x0000000000253184                rockchip_dw_hdmi_deinit
 .text.rockchip_dw_hdmi_prepare
                0x00000000002531cc        0x8 drivers/built-in.o
                0x00000000002531cc                rockchip_dw_hdmi_prepare
 .text.rockchip_dw_hdmi_enable
                0x00000000002531d4     0x144c drivers/built-in.o
                0x00000000002531d4                rockchip_dw_hdmi_enable
 .text.rockchip_dw_hdmi_disable
                0x0000000000254620       0x40 drivers/built-in.o
                0x0000000000254620                rockchip_dw_hdmi_disable
 .text.rockchip_dw_hdmi_get_timing
                0x0000000000254660      0x268 drivers/built-in.o
                0x0000000000254660                rockchip_dw_hdmi_get_timing
 .text.rockchip_dw_hdmi_detect
                0x00000000002548c8       0x18 drivers/built-in.o
                0x00000000002548c8                rockchip_dw_hdmi_detect
 .text.rockchip_dw_hdmi_get_edid
                0x00000000002548e0       0x10 drivers/built-in.o
                0x00000000002548e0                rockchip_dw_hdmi_get_edid
 .text.inno_dw_hdmi_phy_init
                0x00000000002548f0       0xa0 drivers/built-in.o
                0x00000000002548f0                inno_dw_hdmi_phy_init
 .text.inno_dw_hdmi_phy_disable
                0x0000000000254990        0x4 drivers/built-in.o
                0x0000000000254990                inno_dw_hdmi_phy_disable
 .text.inno_dw_hdmi_phy_read_hpd
                0x0000000000254994       0x50 drivers/built-in.o
                0x0000000000254994                inno_dw_hdmi_phy_read_hpd
 .text.inno_dw_hdmi_mode_valid
                0x00000000002549e4       0xb8 drivers/built-in.o
                0x00000000002549e4                inno_dw_hdmi_mode_valid
 .text.analogix_dp_connector_pre_init
                0x0000000000254a9c       0x10 drivers/built-in.o
 .text.analogix_dp_connector_disable
                0x0000000000254aac        0x8 drivers/built-in.o
 .text.analogix_dp_probe
                0x0000000000254ab4      0x12c drivers/built-in.o
 .text.analogix_dp_enable_rx_to_enhanced_mode
                0x0000000000254be0       0x48 drivers/built-in.o
 .text.analogix_dp_set_enhanced_mode
                0x0000000000254c28       0x48 drivers/built-in.o
 .text.analogix_dp_connector_detect
                0x0000000000254c70       0x18 drivers/built-in.o
 .text.analogix_dp_connector_init
                0x0000000000254c88       0xcc drivers/built-in.o
 .text.analogix_dp_clock_recovery_ok
                0x0000000000254d54       0x38 drivers/built-in.o
 .text.analogix_dp_get_adjust_training_lane
                0x0000000000254d8c       0x58 drivers/built-in.o
 .text.analogix_dp_reduce_link_rate
                0x0000000000254de4       0x44 drivers/built-in.o
 .text.analogix_dp_connector_enable
                0x0000000000254e28      0x734 drivers/built-in.o
 .text.analogix_dp_connector_get_edid
                0x000000000025555c      0x1f0 drivers/built-in.o
 .text.analogix_dp_write.isra.0
                0x000000000025574c       0x2c drivers/built-in.o
 .text.analogix_dp_read.isra.1
                0x0000000000255778       0x20 drivers/built-in.o
 .text.analogix_dp_enable_video_mute
                0x0000000000255798       0x40 drivers/built-in.o
                0x0000000000255798                analogix_dp_enable_video_mute
 .text.analogix_dp_stop_video
                0x00000000002557d8       0x2c drivers/built-in.o
                0x00000000002557d8                analogix_dp_stop_video
 .text.analogix_dp_lane_swap
                0x0000000000255804       0x1c drivers/built-in.o
                0x0000000000255804                analogix_dp_lane_swap
 .text.analogix_dp_init_analog_param
                0x0000000000255820       0xc8 drivers/built-in.o
                0x0000000000255820                analogix_dp_init_analog_param
 .text.analogix_dp_init_interrupt
                0x00000000002558e8       0xc0 drivers/built-in.o
                0x00000000002558e8                analogix_dp_init_interrupt
 .text.analogix_dp_reset
                0x00000000002559a8      0x150 drivers/built-in.o
                0x00000000002559a8                analogix_dp_reset
 .text.analogix_dp_swreset
                0x0000000000255af8       0x10 drivers/built-in.o
                0x0000000000255af8                analogix_dp_swreset
 .text.analogix_dp_config_interrupt
                0x0000000000255b08       0x60 drivers/built-in.o
                0x0000000000255b08                analogix_dp_config_interrupt
 .text.analogix_dp_get_pll_lock_status
                0x0000000000255b68       0x20 drivers/built-in.o
                0x0000000000255b68                analogix_dp_get_pll_lock_status
 .text.analogix_dp_set_pll_power_down
                0x0000000000255b88       0x40 drivers/built-in.o
                0x0000000000255b88                analogix_dp_set_pll_power_down
 .text.analogix_dp_set_analog_power_down
                0x0000000000255bc8      0x140 drivers/built-in.o
                0x0000000000255bc8                analogix_dp_set_analog_power_down
 .text.analogix_dp_init_analog_func
                0x0000000000255d08       0x74 drivers/built-in.o
                0x0000000000255d08                analogix_dp_init_analog_func
 .text.analogix_dp_clear_hotplug_interrupts
                0x0000000000255d7c       0x3c drivers/built-in.o
                0x0000000000255d7c                analogix_dp_clear_hotplug_interrupts
 .text.analogix_dp_init_hpd
                0x0000000000255db8       0x40 drivers/built-in.o
                0x0000000000255db8                analogix_dp_init_hpd
 .text.analogix_dp_force_hpd
                0x0000000000255df8       0x2c drivers/built-in.o
                0x0000000000255df8                analogix_dp_force_hpd
 .text.analogix_dp_reset_aux
                0x0000000000255e24       0x2c drivers/built-in.o
                0x0000000000255e24                analogix_dp_reset_aux
 .text.analogix_dp_init_aux
                0x0000000000255e50       0x78 drivers/built-in.o
                0x0000000000255e50                analogix_dp_init_aux
 .text.analogix_dp_detect
                0x0000000000255ec8       0x44 drivers/built-in.o
                0x0000000000255ec8                analogix_dp_detect
 .text.analogix_dp_enable_sw_function
                0x0000000000255f0c       0x2c drivers/built-in.o
                0x0000000000255f0c                analogix_dp_enable_sw_function
 .text.analogix_dp_start_aux_transaction
                0x0000000000255f38       0xf0 drivers/built-in.o
                0x0000000000255f38                analogix_dp_start_aux_transaction
 .text.analogix_dp_write_byte_to_dpcd
                0x0000000000256028       0xc0 drivers/built-in.o
                0x0000000000256028                analogix_dp_write_byte_to_dpcd
 .text.analogix_dp_read_byte_from_dpcd
                0x00000000002560e8       0xc8 drivers/built-in.o
                0x00000000002560e8                analogix_dp_read_byte_from_dpcd
 .text.analogix_dp_write_bytes_to_dpcd
                0x00000000002561b0      0x128 drivers/built-in.o
                0x00000000002561b0                analogix_dp_write_bytes_to_dpcd
 .text.analogix_dp_read_bytes_from_dpcd
                0x00000000002562d8      0x138 drivers/built-in.o
                0x00000000002562d8                analogix_dp_read_bytes_from_dpcd
 .text.analogix_dp_select_i2c_device
                0x0000000000256410       0x7c drivers/built-in.o
                0x0000000000256410                analogix_dp_select_i2c_device
 .text.analogix_dp_read_byte_from_i2c
                0x000000000025648c       0xa8 drivers/built-in.o
                0x000000000025648c                analogix_dp_read_byte_from_i2c
 .text.analogix_dp_read_bytes_from_i2c
                0x0000000000256534      0x130 drivers/built-in.o
                0x0000000000256534                analogix_dp_read_bytes_from_i2c
 .text.analogix_dp_ssc_supported
                0x0000000000256664       0x1c drivers/built-in.o
                0x0000000000256664                analogix_dp_ssc_supported
 .text.analogix_dp_set_link_bandwidth
                0x0000000000256680       0xdc drivers/built-in.o
                0x0000000000256680                analogix_dp_set_link_bandwidth
 .text.analogix_dp_get_link_bandwidth
                0x000000000025675c       0x24 drivers/built-in.o
                0x000000000025675c                analogix_dp_get_link_bandwidth
 .text.analogix_dp_set_lane_count
                0x0000000000256780       0x64 drivers/built-in.o
                0x0000000000256780                analogix_dp_set_lane_count
 .text.analogix_dp_get_lane_count
                0x00000000002567e4       0x24 drivers/built-in.o
                0x00000000002567e4                analogix_dp_get_lane_count
 .text.analogix_dp_set_lane_link_training
                0x0000000000256808       0xa8 drivers/built-in.o
                0x0000000000256808                analogix_dp_set_lane_link_training
 .text.analogix_dp_get_lane_link_training
                0x00000000002568b0       0x10 drivers/built-in.o
                0x00000000002568b0                analogix_dp_get_lane_link_training
 .text.analogix_dp_enable_enhanced_mode
                0x00000000002568c0       0x40 drivers/built-in.o
                0x00000000002568c0                analogix_dp_enable_enhanced_mode
 .text.analogix_dp_set_training_pattern
                0x0000000000256900       0x54 drivers/built-in.o
                0x0000000000256900                analogix_dp_set_training_pattern
 .text.analogix_dp_reset_macro
                0x0000000000256954       0x50 drivers/built-in.o
                0x0000000000256954                analogix_dp_reset_macro
 .text.analogix_dp_init_video
                0x00000000002569a4       0x60 drivers/built-in.o
                0x00000000002569a4                analogix_dp_init_video
 .text.analogix_dp_set_video_color_format
                0x0000000000256a04       0x60 drivers/built-in.o
                0x0000000000256a04                analogix_dp_set_video_color_format
 .text.analogix_dp_is_slave_video_stream_clock_on
                0x0000000000256a64       0x80 drivers/built-in.o
                0x0000000000256a64                analogix_dp_is_slave_video_stream_clock_on
 .text.analogix_dp_set_video_cr_mn
                0x0000000000256ae4       0xe0 drivers/built-in.o
                0x0000000000256ae4                analogix_dp_set_video_cr_mn
 .text.analogix_dp_set_video_timing_mode
                0x0000000000256bc4       0x44 drivers/built-in.o
                0x0000000000256bc4                analogix_dp_set_video_timing_mode
 .text.analogix_dp_enable_video_master
                0x0000000000256c08       0x44 drivers/built-in.o
                0x0000000000256c08                analogix_dp_enable_video_master
 .text.analogix_dp_start_video
                0x0000000000256c4c       0x2c drivers/built-in.o
                0x0000000000256c4c                analogix_dp_start_video
 .text.analogix_dp_is_video_stream_on
                0x0000000000256c78       0x48 drivers/built-in.o
                0x0000000000256c78                analogix_dp_is_video_stream_on
 .text.analogix_dp_config_video_slave_mode
                0x0000000000256cc0       0xb4 drivers/built-in.o
                0x0000000000256cc0                analogix_dp_config_video_slave_mode
 .text.analogix_dp_enable_scrambling
                0x0000000000256d74       0x2c drivers/built-in.o
                0x0000000000256d74                analogix_dp_enable_scrambling
 .text.panel_simple_init
                0x0000000000256da0       0x10 drivers/built-in.o
 .text.rockchip_panel_parse_cmds
                0x0000000000256db0       0xb4 drivers/built-in.o
 .text.rockchip_panel_ofdata_to_platdata
                0x0000000000256e64      0x1dc drivers/built-in.o
 .text.panel_simple_disable
                0x0000000000257040       0x78 drivers/built-in.o
 .text.rockchip_panel_send_spi_cmds
                0x00000000002570b8      0x148 drivers/built-in.o
 .text.panel_simple_enable
                0x0000000000257200       0x80 drivers/built-in.o
 .text.rockchip_panel_probe
                0x0000000000257280      0x320 drivers/built-in.o
 .text.rockchip_panel_send_mcu_cmds
                0x00000000002575a0       0xb0 drivers/built-in.o
 .text.rockchip_panel_send_dsi_cmds.part.1
                0x0000000000257650      0x120 drivers/built-in.o
 .text.panel_simple_prepare
                0x0000000000257770      0x17c drivers/built-in.o
 .text.panel_simple_unprepare
                0x00000000002578ec       0xf8 drivers/built-in.o
 .text.video_bridge_pre_probe
                0x00000000002579e4       0xa0 drivers/built-in.o
 .text.video_bridge_read_edid
                0x0000000000257a84       0x20 drivers/built-in.o
                0x0000000000257a84                video_bridge_read_edid
 .text.video_bridge_get_timing
                0x0000000000257aa4       0x20 drivers/built-in.o
                0x0000000000257aa4                video_bridge_get_timing
 .text.pwm_set_invert
                0x0000000000257ac4       0x20 drivers/built-in.o
                0x0000000000257ac4                pwm_set_invert
 .text.pwm_set_config
                0x0000000000257ae4       0x1c drivers/built-in.o
                0x0000000000257ae4                pwm_set_config
 .text.pwm_set_enable
                0x0000000000257b00       0x20 drivers/built-in.o
                0x0000000000257b00                pwm_set_enable
 .text.rk_pwm_set_invert
                0x0000000000257b20       0x44 drivers/built-in.o
 .text.rk_pwm_set_config
                0x0000000000257b64       0xfc drivers/built-in.o
 .text.rk_pwm_set_enable
                0x0000000000257c60       0x90 drivers/built-in.o
 .text.rk_pwm_ofdata_to_platdata
                0x0000000000257cf0       0x34 drivers/built-in.o
 .text.rk_pwm_probe
                0x0000000000257d24       0x6c drivers/built-in.o
 .text.reset_get_by_index
                0x0000000000257d90       0xac drivers/built-in.o
                0x0000000000257d90                reset_get_by_index
 .text.reset_get_by_name
                0x0000000000257e3c       0x50 drivers/built-in.o
                0x0000000000257e3c                reset_get_by_name
 .text.reset_free
                0x0000000000257e8c       0x14 drivers/built-in.o
                0x0000000000257e8c                reset_free
 .text.reset_assert
                0x0000000000257ea0       0x14 drivers/built-in.o
                0x0000000000257ea0                reset_assert
 .text.reset_assert_bulk
                0x0000000000257eb4       0x48 drivers/built-in.o
                0x0000000000257eb4                reset_assert_bulk
 .text.reset_deassert
                0x0000000000257efc       0x14 drivers/built-in.o
                0x0000000000257efc                reset_deassert
 .text.reset_deassert_bulk
                0x0000000000257f10       0x48 drivers/built-in.o
                0x0000000000257f10                reset_deassert_bulk
 .text.reset_release_all
                0x0000000000257f58       0x68 drivers/built-in.o
                0x0000000000257f58                reset_release_all
 .text.reset_get_bulk
                0x0000000000257fc0       0xc0 drivers/built-in.o
                0x0000000000257fc0                reset_get_bulk
 .text.rockchip_reset_free
                0x0000000000258080        0x8 drivers/built-in.o
 .text.rockchip_reset_deassert
                0x0000000000258088       0x50 drivers/built-in.o
 .text.rockchip_reset_assert
                0x00000000002580d8       0x50 drivers/built-in.o
 .text.rockchip_reset_request
                0x0000000000258128       0x38 drivers/built-in.o
 .text.rockchip_reset_probe
                0x0000000000258160       0x60 drivers/built-in.o
 .text.check_reserved
                0x00000000002581c0       0x78 drivers/gpio/built-in.o
 .text.gpio_renumber
                0x0000000000258238       0x90 drivers/gpio/built-in.o
 .text.gpio_pre_remove
                0x00000000002582c8       0x5c drivers/gpio/built-in.o
 .text.gpio_post_probe
                0x0000000000258324       0x48 drivers/gpio/built-in.o
 .text.gpio_xlate_offs_flags
                0x000000000025836c       0x3c drivers/gpio/built-in.o
                0x000000000025836c                gpio_xlate_offs_flags
 .text.dm_gpio_request
                0x00000000002583a8       0xb8 drivers/gpio/built-in.o
                0x00000000002583a8                dm_gpio_request
 .text.dm_gpio_requestf
                0x0000000000258460       0x9c drivers/gpio/built-in.o
 .text.dm_gpio_get_value
                0x00000000002584fc       0x54 drivers/gpio/built-in.o
                0x00000000002584fc                dm_gpio_get_value
 .text.dm_gpio_set_value
                0x0000000000258550       0x6c drivers/gpio/built-in.o
                0x0000000000258550                dm_gpio_set_value
 .text.dm_gpio_set_dir_flags
                0x00000000002585bc       0xa8 drivers/gpio/built-in.o
                0x00000000002585bc                dm_gpio_set_dir_flags
 .text.gpio_request_tail
                0x0000000000258664       0xfc drivers/gpio/built-in.o
 .text.gpio_request_by_name
                0x0000000000258760       0x74 drivers/gpio/built-in.o
                0x0000000000258760                gpio_request_by_name
 .text.rockchip_gpio_set_value
                0x00000000002587d4       0x4c drivers/gpio/built-in.o
 .text.rockchip_gpio_get_value
                0x0000000000258820       0x38 drivers/gpio/built-in.o
 .text.rockchip_gpio_direction_output
                0x0000000000258858       0x58 drivers/gpio/built-in.o
 .text.rockchip_gpio_direction_input
                0x00000000002588b0       0x3c drivers/gpio/built-in.o
 .text.rockchip_gpio_get_function
                0x00000000002588ec       0x80 drivers/gpio/built-in.o
 .text.rockchip_gpio_probe
                0x000000000025896c      0x150 drivers/gpio/built-in.o
 .text.i2c_setup_offset
                0x0000000000258abc       0x4c drivers/i2c/built-in.o
 .text.dm_i2c_read
                0x0000000000258b08      0x178 drivers/i2c/built-in.o
                0x0000000000258b08                dm_i2c_read
 .text.dm_i2c_write
                0x0000000000258c80      0x1f0 drivers/i2c/built-in.o
                0x0000000000258c80                dm_i2c_write
 .text.dm_i2c_set_bus_speed
                0x0000000000258e70       0x5c drivers/i2c/built-in.o
                0x0000000000258e70                dm_i2c_set_bus_speed
 .text.i2c_post_probe
                0x0000000000258ecc       0x84 drivers/i2c/built-in.o
 .text.i2c_chip_ofdata_to_platdata
                0x0000000000258f50       0x60 drivers/i2c/built-in.o
                0x0000000000258f50                i2c_chip_ofdata_to_platdata
 .text.i2c_child_post_bind
                0x0000000000258fb0       0x58 drivers/i2c/built-in.o
 .text.rockchip_i2c_set_bus_speed
                0x0000000000259008       0x80 drivers/i2c/built-in.o
                0x0000000000259008                rockchip_i2c_set_bus_speed
 .text.rockchip_i2c_ofdata_to_platdata
                0x0000000000259088       0x38 drivers/i2c/built-in.o
 .text.rockchip_i2c_probe
                0x00000000002590c0       0x34 drivers/i2c/built-in.o
 .text.rk_i2c_send_start_bit.isra.1
                0x00000000002590f4       0x8c drivers/i2c/built-in.o
 .text.rockchip_i2c_xfer
                0x0000000000259180      0x398 drivers/i2c/built-in.o
 .text.mtd_arg_off
                0x0000000000259518       0x7c drivers/mtd/built-in.o
                0x0000000000259518                mtd_arg_off
 .text.mtd_arg_off_size
                0x0000000000259594      0x114 drivers/mtd/built-in.o
                0x0000000000259594                mtd_arg_off_size
 .text.spi_flash_post_bind
                0x00000000002596a8        0x8 drivers/mtd/spi/built-in.o
 .text.spi_flash_read_dm
                0x00000000002596b0       0x10 drivers/mtd/spi/built-in.o
                0x00000000002596b0                spi_flash_read_dm
 .text.spi_flash_write_dm
                0x00000000002596c0       0x10 drivers/mtd/spi/built-in.o
                0x00000000002596c0                spi_flash_write_dm
 .text.spi_flash_erase_dm
                0x00000000002596d0       0x10 drivers/mtd/spi/built-in.o
                0x00000000002596d0                spi_flash_erase_dm
 .text.spi_flash_probe_bus_cs
                0x00000000002596e0       0x98 drivers/mtd/spi/built-in.o
                0x00000000002596e0                spi_flash_probe_bus_cs
 .text.designware_eth_bind
                0x0000000000259778        0x8 drivers/net/built-in.o
 .text.designware_eth_free_pkt
                0x0000000000259780       0x60 drivers/net/built-in.o
                0x0000000000259780                designware_eth_free_pkt
 .text.dw_mdio_write
                0x00000000002597e0       0xa0 drivers/net/built-in.o
 .text.dw_mdio_read
                0x0000000000259880       0x98 drivers/net/built-in.o
 .text.designware_eth_recv
                0x0000000000259918       0x80 drivers/net/built-in.o
                0x0000000000259918                designware_eth_recv
 .text.designware_eth_send
                0x0000000000259998      0x10c drivers/net/built-in.o
                0x0000000000259998                designware_eth_send
 .text.designware_eth_stop
                0x0000000000259aa4       0x50 drivers/net/built-in.o
                0x0000000000259aa4                designware_eth_stop
 .text.dw_mdio_reset
                0x0000000000259af4       0xb4 drivers/net/built-in.o
 .text.designware_eth_probe
                0x0000000000259ba8      0x188 drivers/net/built-in.o
                0x0000000000259ba8                designware_eth_probe
 .text.designware_eth_ofdata_to_platdata
                0x0000000000259d30      0x104 drivers/net/built-in.o
                0x0000000000259d30                designware_eth_ofdata_to_platdata
 .text.designware_eth_remove
                0x0000000000259e34       0x3c drivers/net/built-in.o
 .text.designware_eth_write_hwaddr
                0x0000000000259e70       0x70 drivers/net/built-in.o
                0x0000000000259e70                designware_eth_write_hwaddr
 .text.designware_eth_init
                0x0000000000259ee0      0x2c4 drivers/net/built-in.o
                0x0000000000259ee0                designware_eth_init
 .text.designware_eth_enable
                0x000000000025a1a4       0x38 drivers/net/built-in.o
                0x000000000025a1a4                designware_eth_enable
 .text.designware_eth_start
                0x000000000025a1dc       0x4c drivers/net/built-in.o
 .text.gmac_rockchip_eth_write_hwaddr
                0x000000000025a228        0x4 drivers/net/built-in.o
 .text.gmac_rockchip_eth_stop
                0x000000000025a22c        0x4 drivers/net/built-in.o
 .text.gmac_rockchip_eth_free_pkt
                0x000000000025a230        0x4 drivers/net/built-in.o
 .text.gmac_rockchip_eth_recv
                0x000000000025a234        0x4 drivers/net/built-in.o
 .text.gmac_rockchip_eth_send
                0x000000000025a238        0x4 drivers/net/built-in.o
 .text.gmac_rockchip_eth_start
                0x000000000025a23c       0x7c drivers/net/built-in.o
 .text.px30_gmac_set_to_rmii
                0x000000000025a2b8       0x24 drivers/net/built-in.o
 .text.rk1808_gmac_set_to_rgmii
                0x000000000025a2dc       0x48 drivers/net/built-in.o
 .text.rk3228_gmac_set_to_rgmii
                0x000000000025a324       0x4c drivers/net/built-in.o
 .text.rk3228_gmac_set_to_rmii
                0x000000000025a370       0x28 drivers/net/built-in.o
 .text.rk3228_gmac_fix_mac_speed
                0x000000000025a398       0x90 drivers/net/built-in.o
 .text.rk3288_gmac_set_to_rgmii
                0x000000000025a428       0x48 drivers/net/built-in.o
 .text.rk3288_gmac_fix_mac_speed
                0x000000000025a470       0x70 drivers/net/built-in.o
 .text.rk3308_gmac_set_to_rmii
                0x000000000025a4e0       0x28 drivers/net/built-in.o
 .text.rk3328_gmac_set_to_rgmii
                0x000000000025a508       0x4c drivers/net/built-in.o
 .text.rk3328_gmac_set_to_rmii
                0x000000000025a554       0x48 drivers/net/built-in.o
 .text.rk3328_gmac_fix_mac_speed
                0x000000000025a59c       0xa8 drivers/net/built-in.o
 .text.rk3368_gmac_set_to_rgmii
                0x000000000025a644       0x4c drivers/net/built-in.o
 .text.rk3368_gmac_fix_mac_speed
                0x000000000025a690       0x70 drivers/net/built-in.o
 .text.rk3399_gmac_set_to_rgmii
                0x000000000025a700       0x50 drivers/net/built-in.o
 .text.rk3399_gmac_fix_mac_speed
                0x000000000025a750       0x74 drivers/net/built-in.o
 .text.rv1108_gmac_set_to_rmii
                0x000000000025a7c4       0x28 drivers/net/built-in.o
 .text.rv1108_set_rmii_speed
                0x000000000025a7ec       0x70 drivers/net/built-in.o
 .text.px30_gmac_fix_mac_speed
                0x000000000025a85c       0xac drivers/net/built-in.o
 .text.rk1808_gmac_fix_mac_speed
                0x000000000025a908       0x88 drivers/net/built-in.o
 .text.rk3308_gmac_fix_mac_speed
                0x000000000025a990       0xac drivers/net/built-in.o
 .text.rk3228_gmac_integrated_phy_powerup
                0x000000000025aa3c       0x98 drivers/net/built-in.o
 .text.rk3328_gmac_integrated_phy_powerup
                0x000000000025aad4       0x98 drivers/net/built-in.o
 .text.gmac_rockchip_ofdata_to_platdata
                0x000000000025ab6c      0x134 drivers/net/built-in.o
 .text.gmac_rockchip_probe
                0x000000000025aca0      0x114 drivers/net/built-in.o
 .text.gmac_set_rgmii
                0x000000000025adb4       0x48 drivers/net/built-in.o
                0x000000000025adb4                gmac_set_rgmii
 .text.genphy_shutdown
                0x000000000025adfc        0x8 drivers/net/phy/built-in.o
                0x000000000025adfc                genphy_shutdown
 .text.genphy_restart_aneg
                0x000000000025ae04       0x64 drivers/net/phy/built-in.o
                0x000000000025ae04                genphy_restart_aneg
 .text.genphy_config_aneg
                0x000000000025ae68      0x1ec drivers/net/phy/built-in.o
                0x000000000025ae68                genphy_config_aneg
 .text.genphy_config
                0x000000000025b054       0xcc drivers/net/phy/built-in.o
                0x000000000025b054                genphy_config
 .text.genphy_update_link
                0x000000000025b120      0x160 drivers/net/phy/built-in.o
                0x000000000025b120                genphy_update_link
 .text.genphy_parse_link
                0x000000000025b280      0x1ac drivers/net/phy/built-in.o
                0x000000000025b280                genphy_parse_link
 .text.genphy_startup
                0x000000000025b42c       0x34 drivers/net/phy/built-in.o
                0x000000000025b42c                genphy_startup
 .text.phy_init
                0x000000000025b460        0x8 drivers/net/phy/built-in.o
                0x000000000025b460                phy_init
 .text.phy_set_supported
                0x000000000025b468       0x58 drivers/net/phy/built-in.o
                0x000000000025b468                phy_set_supported
 .text.get_phy_id
                0x000000000025b4c0       0x80 drivers/net/phy/built-in.o
                0x000000000025b4c0                get_phy_id
 .text.get_phy_device_by_mask
                0x000000000025b540      0x2e4 drivers/net/phy/built-in.o
 .text.phy_reset
                0x000000000025b824       0xc8 drivers/net/phy/built-in.o
                0x000000000025b824                phy_reset
 .text.phy_find_by_mask
                0x000000000025b8ec       0x3c drivers/net/phy/built-in.o
                0x000000000025b8ec                phy_find_by_mask
 .text.phy_connect_dev
                0x000000000025b928       0x58 drivers/net/phy/built-in.o
                0x000000000025b928                phy_connect_dev
 .text.phy_startup
                0x000000000025b980       0x18 drivers/net/phy/built-in.o
                0x000000000025b980                phy_startup
 .text.board_phy_config
                0x000000000025b998       0x18 drivers/net/phy/built-in.o
                0x000000000025b998                board_phy_config
 .text.phy_config
                0x000000000025b9b0        0x4 drivers/net/phy/built-in.o
                0x000000000025b9b0                phy_config
 .text.phy_shutdown
                0x000000000025b9b4       0x2c drivers/net/phy/built-in.o
                0x000000000025b9b4                phy_shutdown
 .text.phy_get_interface_by_name
                0x000000000025b9e0       0x58 drivers/net/phy/built-in.o
                0x000000000025b9e0                phy_get_interface_by_name
 .text.charge_display_show
                0x000000000025ba38       0x40 drivers/power/built-in.o
                0x000000000025ba38                charge_display_show
 .text.charge_display
                0x000000000025ba78       0x2c drivers/power/built-in.o
                0x000000000025ba78                charge_display
 .text.timer_irq_handler
                0x000000000025baa4       0x48 drivers/power/built-in.o
 .text.autowakeup_timer_init
                0x000000000025baec       0x80 drivers/power/built-in.o
 .text.fg_charger_get_chrg_online
                0x000000000025bb6c       0x2c drivers/power/built-in.o
 .text.system_suspend_enter
                0x000000000025bb98      0x158 drivers/power/built-in.o
 .text.autowakeup_timer_uninit
                0x000000000025bcf0       0x2c drivers/power/built-in.o
 .text.charge_animation_show
                0x000000000025bd1c      0x908 drivers/power/built-in.o
 .text.charge_animation_ofdata_to_platdata
                0x000000000025c624      0x15c drivers/power/built-in.o
 .text.charge_animation_probe
                0x000000000025c780      0x140 drivers/power/built-in.o
 .text.device_suspend
                0x000000000025c8c0        0x8 drivers/power/built-in.o
                0x000000000025c8c0                device_suspend
 .text.device_resume
                0x000000000025c8c8        0x8 drivers/power/built-in.o
                0x000000000025c8c8                device_resume
 .text.bq25700_charger_capability
                0x000000000025c8d0        0x8 drivers/power/charge/built-in.o
 .text.bq25700_ofdata_to_platdata
                0x000000000025c8d8       0xc0 drivers/power/charge/built-in.o
 .text.bq25700_read.isra.0
                0x000000000025c998       0x24 drivers/power/charge/built-in.o
 .text.bq25700_charger_status
                0x000000000025c9bc       0x20 drivers/power/charge/built-in.o
 .text.bq257xx_charger_status
                0x000000000025c9dc       0x30 drivers/power/charge/built-in.o
 .text.bq25700_write.isra.1
                0x000000000025ca0c       0x20 drivers/power/charge/built-in.o
 .text.bq25700_probe
                0x000000000025ca2c       0xfc drivers/power/charge/built-in.o
 .text.fuel_gauge_capability
                0x000000000025cb28       0x40 drivers/power/fuel_gauge/built-in.o
                0x000000000025cb28                fuel_gauge_capability
 .text.fuel_gauge_bat_is_exist
                0x000000000025cb68       0x40 drivers/power/fuel_gauge/built-in.o
                0x000000000025cb68                fuel_gauge_bat_is_exist
 .text.fuel_gauge_get_current
                0x000000000025cba8       0x40 drivers/power/fuel_gauge/built-in.o
                0x000000000025cba8                fuel_gauge_get_current
 .text.fuel_gauge_get_voltage
                0x000000000025cbe8       0x40 drivers/power/fuel_gauge/built-in.o
                0x000000000025cbe8                fuel_gauge_get_voltage
 .text.fuel_gauge_update_get_soc
                0x000000000025cc28       0x40 drivers/power/fuel_gauge/built-in.o
                0x000000000025cc28                fuel_gauge_update_get_soc
 .text.fuel_gauge_get_chrg_online
                0x000000000025cc68       0x40 drivers/power/fuel_gauge/built-in.o
                0x000000000025cc68                fuel_gauge_get_chrg_online
 .text.interpolate
                0x000000000025cca8       0x8c drivers/power/fuel_gauge/built-in.o
 .text.rk817_bat_read.isra.0
                0x000000000025cd34        0xc drivers/power/fuel_gauge/built-in.o
 .text.rk817_bat_get_avg_current
                0x000000000025cd40       0x5c drivers/power/fuel_gauge/built-in.o
 .text.rk817_bat_update_get_current
                0x000000000025cd9c       0x30 drivers/power/fuel_gauge/built-in.o
 .text.rk817_bat_get_battery_voltage
                0x000000000025cdcc       0x70 drivers/power/fuel_gauge/built-in.o
 .text.rk817_bat_update_get_voltage
                0x000000000025ce3c       0x30 drivers/power/fuel_gauge/built-in.o
 .text.rk817_bat_get_sys_voltage
                0x000000000025ce6c       0x84 drivers/power/fuel_gauge/built-in.o
 .text.rk817_bat_get_USB_voltage
                0x000000000025cef0       0x84 drivers/power/fuel_gauge/built-in.o
 .text.rk817_bat_init_voltage_kb
                0x000000000025cf74       0xd8 drivers/power/fuel_gauge/built-in.o
 .text.rk817_bat_get_pwron_voltage
                0x000000000025d04c       0x70 drivers/power/fuel_gauge/built-in.o
 .text.rk817_bat_get_prev_dsoc
                0x000000000025d0bc       0x5c drivers/power/fuel_gauge/built-in.o
 .text.rk817_bat_get_prev_cap
                0x000000000025d118       0x4c drivers/power/fuel_gauge/built-in.o
 .text.rk817_bat_get_capacity_uah
                0x000000000025d164       0xa0 drivers/power/fuel_gauge/built-in.o
 .text.rk817_bat_get_rsoc
                0x000000000025d204       0x38 drivers/power/fuel_gauge/built-in.o
 .text.rk817_bat_get_charger_type
                0x000000000025d23c       0xd4 drivers/power/fuel_gauge/built-in.o
 .text.rk817_is_bat_exist
                0x000000000025d310       0x50 drivers/power/fuel_gauge/built-in.o
 .text.rk817_bat_bat_is_exist
                0x000000000025d360       0x14 drivers/power/fuel_gauge/built-in.o
 .text.rk817_fg_ofdata_to_platdata
                0x000000000025d374      0x1f4 drivers/power/fuel_gauge/built-in.o
 .text.rk817_bat_write.isra.6
                0x000000000025d568       0x10 drivers/power/fuel_gauge/built-in.o
 .text.rk817_bat_set_input_current
                0x000000000025d578       0x44 drivers/power/fuel_gauge/built-in.o
 .text.rk817_bat_set_initialized_flag
                0x000000000025d5bc       0x34 drivers/power/fuel_gauge/built-in.o
 .text.rk817_bat_init_coulomb_cap
                0x000000000025d5f0      0x108 drivers/power/fuel_gauge/built-in.o
 .text.rk817_bat_save_cap
                0x000000000025d6f8       0x7c drivers/power/fuel_gauge/built-in.o
 .text.rk817_bat_save_fcc
                0x000000000025d774       0x4c drivers/power/fuel_gauge/built-in.o
 .text.rk817_bat_inc_halt_cnt
                0x000000000025d7c0       0x38 drivers/power/fuel_gauge/built-in.o
 .text.rk817_bat_calibration
                0x000000000025d7f8       0x90 drivers/power/fuel_gauge/built-in.o
 .text.rk817_bat_save_dsoc.part.9
                0x000000000025d888       0x58 drivers/power/fuel_gauge/built-in.o
 .text.rk817_bat_charger_setting
                0x000000000025d8e0       0x8c drivers/power/fuel_gauge/built-in.o
 .text.rk817_bat_update_get_soc
                0x000000000025d96c      0x35c drivers/power/fuel_gauge/built-in.o
 .text.rk817_bat_vol_to_cap
                0x000000000025dcc8       0x64 drivers/power/fuel_gauge/built-in.o
 .text.rk817_bat_get_capacity_mah
                0x000000000025dd2c       0xa8 drivers/power/fuel_gauge/built-in.o
 .text.rk817_bat_update_get_chrg_online
                0x000000000025ddd4       0x48 drivers/power/fuel_gauge/built-in.o
 .text.rk817_fg_probe
                0x000000000025de1c      0x65c drivers/power/fuel_gauge/built-in.o
 .text.io_domain_init
                0x000000000025e478       0x5c drivers/power/io-domain/built-in.o
                0x000000000025e478                io_domain_init
 .text.rockchip_ofdata_to_platdata
                0x000000000025e4d4       0x44 drivers/power/io-domain/built-in.o
 .text.rockchip_iodomain_write
                0x000000000025e518       0x64 drivers/power/io-domain/built-in.o
 .text.rk3568_pmu_iodomain_write
                0x000000000025e57c      0x108 drivers/power/io-domain/built-in.o
 .text.rockchip_iodomain_probe
                0x000000000025e684      0x198 drivers/power/io-domain/built-in.o
 .text.rk3399_pmu_iodomain_init
                0x000000000025e81c       0x1c drivers/power/io-domain/built-in.o
 .text.rk3368_iodomain_init
                0x000000000025e838       0x1c drivers/power/io-domain/built-in.o
 .text.rk3328_iodomain_init
                0x000000000025e854       0x1c drivers/power/io-domain/built-in.o
 .text.rk3308_iodomain_init
                0x000000000025e870       0x1c drivers/power/io-domain/built-in.o
 .text.rk3288_iodomain_init
                0x000000000025e88c       0x1c drivers/power/io-domain/built-in.o
 .text.px30_iodomain_init
                0x000000000025e8a8       0x1c drivers/power/io-domain/built-in.o
 .text.rk3366_iodomain_init
                0x000000000025e8c4       0x1c drivers/power/io-domain/built-in.o
 .text.pmic_bind_children
                0x000000000025e8e0      0x18c drivers/power/pmic/built-in.o
                0x000000000025e8e0                pmic_bind_children
 .text.pmic_read
                0x000000000025ea6c       0x5c drivers/power/pmic/built-in.o
                0x000000000025ea6c                pmic_read
 .text.pmic_write
                0x000000000025eac8       0x5c drivers/power/pmic/built-in.o
                0x000000000025eac8                pmic_write
 .text.pmic_reg_read
                0x000000000025eb24       0x24 drivers/power/pmic/built-in.o
                0x000000000025eb24                pmic_reg_read
 .text.pmic_reg_write
                0x000000000025eb48       0x20 drivers/power/pmic/built-in.o
                0x000000000025eb48                pmic_reg_write
 .text.pmic_clrsetbits
                0x000000000025eb68       0x5c drivers/power/pmic/built-in.o
                0x000000000025eb68                pmic_clrsetbits
 .text.pmic_suspend
                0x000000000025ebc4       0x40 drivers/power/pmic/built-in.o
                0x000000000025ebc4                pmic_suspend
 .text.pmic_resume
                0x000000000025ec04       0x40 drivers/power/pmic/built-in.o
                0x000000000025ec04                pmic_resume
 .text.pmic_shutdown
                0x000000000025ec44       0x40 drivers/power/pmic/built-in.o
                0x000000000025ec44                pmic_shutdown
 .text.rk8xx_reg_count
                0x000000000025ec84       0x40 drivers/power/pmic/built-in.o
 .text.rk8xx_plug_out_handler
                0x000000000025ecc4        0xc drivers/power/pmic/built-in.o
 .text.rk8xx_read
                0x000000000025ecd0       0x48 drivers/power/pmic/built-in.o
 .text.rk8xx_shutdown
                0x000000000025ed18      0x11c drivers/power/pmic/built-in.o
 .text.rk8xx_write
                0x000000000025ee34       0x48 drivers/power/pmic/built-in.o
 .text.rk8xx_resume
                0x000000000025ee7c       0x5c drivers/power/pmic/built-in.o
 .text.rk8xx_suspend
                0x000000000025eed8       0x8c drivers/power/pmic/built-in.o
 .text.rk8xx_ofdata_to_platdata
                0x000000000025ef64      0x148 drivers/power/pmic/built-in.o
 .text.rk8xx_probe
                0x000000000025f0ac      0x4ec drivers/power/pmic/built-in.o
 .text.rk8xx_bind
                0x000000000025f598       0xb4 drivers/power/pmic/built-in.o
 .text.regulator_pre_probe
                0x000000000025f64c      0x1cc drivers/power/regulator/built-in.o
 .text.regulator_post_bind
                0x000000000025f818       0xcc drivers/power/regulator/built-in.o
 .text.regulator_get_value
                0x000000000025f8e4       0x40 drivers/power/regulator/built-in.o
                0x000000000025f8e4                regulator_get_value
 .text.regulator_show
                0x000000000025f924       0xd0 drivers/power/regulator/built-in.o
 .text.regulator_set_value
                0x000000000025f9f4       0xf4 drivers/power/regulator/built-in.o
                0x000000000025f9f4                regulator_set_value
 .text.regulator_set_suspend_value
                0x000000000025fae8       0x48 drivers/power/regulator/built-in.o
                0x000000000025fae8                regulator_set_suspend_value
 .text.regulator_set_current
                0x000000000025fb30       0x90 drivers/power/regulator/built-in.o
                0x000000000025fb30                regulator_set_current
 .text.regulator_get_enable
                0x000000000025fbc0       0x40 drivers/power/regulator/built-in.o
                0x000000000025fbc0                regulator_get_enable
 .text.regulator_set_enable
                0x000000000025fc00       0x48 drivers/power/regulator/built-in.o
                0x000000000025fc00                regulator_set_enable
 .text.regulator_set_suspend_enable
                0x000000000025fc48       0x48 drivers/power/regulator/built-in.o
                0x000000000025fc48                regulator_set_suspend_enable
 .text.regulator_set_ramp_delay
                0x000000000025fc90       0x48 drivers/power/regulator/built-in.o
                0x000000000025fc90                regulator_set_ramp_delay
 .text.regulator_get_by_platname
                0x000000000025fcd8       0x7c drivers/power/regulator/built-in.o
                0x000000000025fcd8                regulator_get_by_platname
 .text.regulator_get_by_devname
                0x000000000025fd54       0x10 drivers/power/regulator/built-in.o
                0x000000000025fd54                regulator_get_by_devname
 .text.device_get_supply_regulator
                0x000000000025fd64       0x14 drivers/power/regulator/built-in.o
                0x000000000025fd64                device_get_supply_regulator
 .text.regulator_autoset
                0x000000000025fd78      0x14c drivers/power/regulator/built-in.o
                0x000000000025fd78                regulator_autoset
 .text.regulators_enable_state_mem
                0x000000000025fec4       0xc8 drivers/power/regulator/built-in.o
                0x000000000025fec4                regulators_enable_state_mem
 .text.regulators_enable_boot_on
                0x000000000025ff8c       0x94 drivers/power/regulator/built-in.o
                0x000000000025ff8c                regulators_enable_boot_on
 .text.pwm_regulator_get_voltage
                0x0000000000260020       0x18 drivers/power/regulator/built-in.o
 .text.pwm_regulator_enable
                0x0000000000260038       0x2c drivers/power/regulator/built-in.o
 .text.pwm_regulator_set_voltage
                0x0000000000260064       0xb0 drivers/power/regulator/built-in.o
 .text.pwm_regulator_ofdata_to_platdata
                0x0000000000260114       0xac drivers/power/regulator/built-in.o
 .text.pwm_regulator_probe
                0x00000000002601c0       0x5c drivers/power/regulator/built-in.o
 .text.fixed_regulator_set_enable
                0x000000000026021c       0x8c drivers/power/regulator/built-in.o
 .text.fixed_regulator_get_enable
                0x00000000002602a8       0x28 drivers/power/regulator/built-in.o
 .text.fixed_regulator_get_current
                0x00000000002602d0       0x38 drivers/power/regulator/built-in.o
 .text.fixed_regulator_get_value
                0x0000000000260308       0x38 drivers/power/regulator/built-in.o
 .text.fixed_regulator_ofdata_to_platdata
                0x0000000000260340       0xa0 drivers/power/regulator/built-in.o
 .text.switch_set_suspend_value
                0x00000000002603e0        0x8 drivers/power/regulator/built-in.o
 .text.switch_get_suspend_value
                0x00000000002603e8        0x8 drivers/power/regulator/built-in.o
 .text.buck_set_suspend_enable
                0x00000000002603f0       0xdc drivers/power/regulator/built-in.o
 .text.ldo_set_suspend_enable
                0x00000000002604cc       0xf0 drivers/power/regulator/built-in.o
 .text.switch_set_suspend_enable
                0x00000000002605bc       0xa8 drivers/power/regulator/built-in.o
 .text.switch_set_enable
                0x0000000000260664       0xb4 drivers/power/regulator/built-in.o
 .text.buck_get_suspend_enable
                0x0000000000260718       0xe0 drivers/power/regulator/built-in.o
 .text.buck_get_enable
                0x00000000002607f8      0x104 drivers/power/regulator/built-in.o
 .text.ldo_get_suspend_enable
                0x00000000002608fc       0xe8 drivers/power/regulator/built-in.o
 .text.ldo_get_enable
                0x00000000002609e4      0x130 drivers/power/regulator/built-in.o
 .text.switch_get_suspend_enable
                0x0000000000260b14       0xc0 drivers/power/regulator/built-in.o
 .text.switch_get_enable
                0x0000000000260bd4       0xa0 drivers/power/regulator/built-in.o
 .text._buck_set_enable
                0x0000000000260c74      0x158 drivers/power/regulator/built-in.o
 .text.buck_set_enable
                0x0000000000260dcc       0x10 drivers/power/regulator/built-in.o
 .text.ldo_set_enable
                0x0000000000260ddc      0x12c drivers/power/regulator/built-in.o
 .text.rk8xx_buck_probe
                0x0000000000260f08       0x24 drivers/power/regulator/built-in.o
 .text.rk8xx_ldo_probe
                0x0000000000260f2c       0x20 drivers/power/regulator/built-in.o
 .text.rk8xx_switch_probe
                0x0000000000260f4c       0x24 drivers/power/regulator/built-in.o
 .text.switch_get_value
                0x0000000000260f70       0xa8 drivers/power/regulator/built-in.o
 .text.get_buck_reg
                0x0000000000261018      0x1a4 drivers/power/regulator/built-in.o
 .text.buck_set_ramp_delay
                0x00000000002611bc      0x190 drivers/power/regulator/built-in.o
 .text.buck_set_suspend_value
                0x000000000026134c       0x58 drivers/power/regulator/built-in.o
 .text._buck_set_value
                0x00000000002613a4       0x84 drivers/power/regulator/built-in.o
 .text.buck_set_value
                0x0000000000261428       0x10 drivers/power/regulator/built-in.o
 .text.buck_get_suspend_value
                0x0000000000261438       0xac drivers/power/regulator/built-in.o
 .text.buck_get_value
                0x00000000002614e4       0xac drivers/power/regulator/built-in.o
 .text.get_ldo_reg
                0x0000000000261590       0xb8 drivers/power/regulator/built-in.o
 .text.ldo_set_suspend_value
                0x0000000000261648       0x58 drivers/power/regulator/built-in.o
 .text.ldo_set_value
                0x00000000002616a0       0x58 drivers/power/regulator/built-in.o
 .text.ldo_get_suspend_value
                0x00000000002616f8       0x58 drivers/power/regulator/built-in.o
 .text.ldo_get_value
                0x0000000000261750       0x58 drivers/power/regulator/built-in.o
 .text.switch_set_value
                0x00000000002617a8        0x8 drivers/power/regulator/built-in.o
 .text._serial_putc
                0x00000000002617b0       0x58 drivers/serial/built-in.o
 .text._serial_puts
                0x0000000000261808       0x38 drivers/serial/built-in.o
 .text.__serial_getc
                0x0000000000261840       0x40 drivers/serial/built-in.o
 .text.__serial_tstc
                0x0000000000261880       0x20 drivers/serial/built-in.o
 .text.__serial_clear
                0x00000000002618a0       0x18 drivers/serial/built-in.o
 .text.serial_stub_putc
                0x00000000002618b8        0x8 drivers/serial/built-in.o
 .text.serial_stub_puts
                0x00000000002618c0        0x8 drivers/serial/built-in.o
 .text.serial_stub_getc
                0x00000000002618c8        0x8 drivers/serial/built-in.o
 .text.serial_stub_tstc
                0x00000000002618d0        0x8 drivers/serial/built-in.o
 .text.serial_pre_remove
                0x00000000002618d8        0x8 drivers/serial/built-in.o
 .text.serial_post_probe
                0x00000000002618e0       0xc4 drivers/serial/built-in.o
 .text.serial_init
                0x00000000002619a4        0x8 drivers/serial/built-in.o
                0x00000000002619a4                serial_init
 .text.serial_initialize
                0x00000000002619ac        0x4 drivers/serial/built-in.o
                0x00000000002619ac                serial_initialize
 .text.serial_putc
                0x00000000002619b0       0x1c drivers/serial/built-in.o
                0x00000000002619b0                serial_putc
 .text.serial_puts
                0x00000000002619cc       0x18 drivers/serial/built-in.o
                0x00000000002619cc                serial_puts
 .text.serial_getc
                0x00000000002619e4       0x14 drivers/serial/built-in.o
                0x00000000002619e4                serial_getc
 .text.serial_tstc
                0x00000000002619f8       0x14 drivers/serial/built-in.o
                0x00000000002619f8                serial_tstc
 .text.serial_setbrg
                0x0000000000261a0c       0x30 drivers/serial/built-in.o
                0x0000000000261a0c                serial_setbrg
 .text.on_baudrate
                0x0000000000261a3c      0x110 drivers/serial/built-in.o
 .text.serial_clear
                0x0000000000261b4c       0x14 drivers/serial/built-in.o
                0x0000000000261b4c                serial_clear
 .text.serial_stdio_init
                0x0000000000261b60        0x4 drivers/serial/built-in.o
                0x0000000000261b60                serial_stdio_init
 .text.ns16550_serial_ofdata_to_platdata
                0x0000000000261b64      0x124 drivers/serial/built-in.o
                0x0000000000261b64                ns16550_serial_ofdata_to_platdata
 .text.ns16550_writeb.isra.0
                0x0000000000261c88       0x1c drivers/serial/built-in.o
 .text.NS16550_setbrg
                0x0000000000261ca4       0x54 drivers/serial/built-in.o
 .text.ns16550_serial_setbrg
                0x0000000000261cf8       0x3c drivers/serial/built-in.o
 .text.ns16550_readb.isra.1
                0x0000000000261d34       0x1c drivers/serial/built-in.o
 .text.ns16550_serial_clear
                0x0000000000261d50       0x30 drivers/serial/built-in.o
 .text.ns16550_serial_pending
                0x0000000000261d80       0x44 drivers/serial/built-in.o
 .text.ns16550_serial_putc
                0x0000000000261dc4       0x4c drivers/serial/built-in.o
 .text.ns16550_serial_getc
                0x0000000000261e10       0x40 drivers/serial/built-in.o
 .text.NS16550_init
                0x0000000000261e50       0x74 drivers/serial/built-in.o
                0x0000000000261e50                NS16550_init
 .text.ns16550_serial_probe
                0x0000000000261ec4       0x40 drivers/serial/built-in.o
                0x0000000000261ec4                ns16550_serial_probe
 .text.printch  0x0000000000261f04       0x6c drivers/serial/built-in.o
                0x0000000000261f04                printch
 .text.debug_uart_getc
                0x0000000000261f70       0x38 drivers/serial/built-in.o
                0x0000000000261f70                debug_uart_getc
 .text.debug_uart_tstc
                0x0000000000261fa8       0x34 drivers/serial/built-in.o
                0x0000000000261fa8                debug_uart_tstc
 .text.debug_uart_clrc
                0x0000000000261fdc       0x34 drivers/serial/built-in.o
                0x0000000000261fdc                debug_uart_clrc
 .text.debug_uart_setbrg
                0x0000000000262010       0x64 drivers/serial/built-in.o
                0x0000000000262010                debug_uart_setbrg
 .text.printascii
                0x0000000000262074       0x7c drivers/serial/built-in.o
                0x0000000000262074                printascii
 .text.debug_uart_init
                0x00000000002620f0       0x70 drivers/serial/built-in.o
                0x00000000002620f0                debug_uart_init
 .text.spi_set_speed_mode
                0x0000000000262160       0x98 drivers/spi/built-in.o
 .text.spi_child_pre_probe
                0x00000000002621f8       0x4c drivers/spi/built-in.o
 .text.spi_post_probe
                0x0000000000262244       0x40 drivers/spi/built-in.o
 .text.spi_find_chip_select
                0x0000000000262284       0x60 drivers/spi/built-in.o
                0x0000000000262284                spi_find_chip_select
 .text.spi_find_bus_and_cs
                0x00000000002622e4       0x68 drivers/spi/built-in.o
                0x00000000002622e4                spi_find_bus_and_cs
 .text.spi_get_bus_and_cs
                0x000000000026234c      0x188 drivers/spi/built-in.o
                0x000000000026234c                spi_get_bus_and_cs
 .text.spi_slave_ofdata_to_platdata
                0x00000000002624d4      0x188 drivers/spi/built-in.o
                0x00000000002624d4                spi_slave_ofdata_to_platdata
 .text.spi_child_post_bind
                0x000000000026265c       0x58 drivers/spi/built-in.o
 .text.usb_get_dr_mode
                0x00000000002626b4       0x7c drivers/usb/common/built-in.o
                0x00000000002626b4                usb_get_dr_mode
 .text.dwc3_event_buffers_setup
                0x0000000000262730       0x7c drivers/usb/dwc3/built-in.o
 .text.dwc3_event_buffers_cleanup
                0x00000000002627ac       0x70 drivers/usb/dwc3/built-in.o
 .text.dwc3_cache_hwparams
                0x000000000026281c       0x98 drivers/usb/dwc3/built-in.o
 .text.dwc3_free_event_buffers
                0x00000000002628b4       0x48 drivers/usb/dwc3/built-in.o
 .text.dwc3_set_mode.isra.0
                0x00000000002628fc       0x24 drivers/usb/dwc3/built-in.o
 .text.dwc3_free_scratch_buffers
                0x0000000000262920       0x1c drivers/usb/dwc3/built-in.o
 .text.dwc3_core_init
                0x000000000026293c      0x4dc drivers/usb/dwc3/built-in.o
 .text.dwc3_core_init_mode
                0x0000000000262e18       0x84 drivers/usb/dwc3/built-in.o
 .text.dwc3_alloc_event_buffers.constprop.6
                0x0000000000262e9c       0xe0 drivers/usb/dwc3/built-in.o
 .text.dwc3_uboot_init
                0x0000000000262f7c      0x29c drivers/usb/dwc3/built-in.o
                0x0000000000262f7c                dwc3_uboot_init
 .text.dwc3_uboot_handle_interrupt
                0x0000000000263218       0x40 drivers/usb/dwc3/built-in.o
                0x0000000000263218                dwc3_uboot_handle_interrupt
 .text.dwc3_setup_phy
                0x0000000000263258      0x1cc drivers/usb/dwc3/built-in.o
                0x0000000000263258                dwc3_setup_phy
 .text.dwc3_shutdown_phy
                0x0000000000263424       0x90 drivers/usb/dwc3/built-in.o
                0x0000000000263424                dwc3_shutdown_phy
 .text.dwc3_gadget_ep0_enable
                0x00000000002634b4        0x8 drivers/usb/dwc3/built-in.o
 .text.dwc3_gadget_ep0_disable
                0x00000000002634bc        0x8 drivers/usb/dwc3/built-in.o
 .text.dwc3_gadget_get_frame
                0x00000000002634c4       0x14 drivers/usb/dwc3/built-in.o
 .text.dwc3_gadget_set_selfpowered
                0x00000000002634d8       0x1c drivers/usb/dwc3/built-in.o
 .text.dwc3_suspend_gadget
                0x00000000002634f4       0x1c drivers/usb/dwc3/built-in.o
 .text.dwc3_gadget_ep_alloc_request
                0x0000000000263510       0x38 drivers/usb/dwc3/built-in.o
 .text.dwc3_gadget_init_hw_endpoints
                0x0000000000263548      0x1a4 drivers/usb/dwc3/built-in.o
 .text.dwc3_gadget_ep_free_request
                0x00000000002636ec        0x8 drivers/usb/dwc3/built-in.o
 .text.dwc3_gadget_free_endpoints
                0x00000000002636f4       0x68 drivers/usb/dwc3/built-in.o
 .text.dwc3_gadget_disconnect_interrupt
                0x000000000026375c       0x80 drivers/usb/dwc3/built-in.o
 .text.dwc3_gadget_pullup
                0x00000000002637dc      0x110 drivers/usb/dwc3/built-in.o
 .text.dwc3_prepare_trbs
                0x00000000002638ec      0x2f0 drivers/usb/dwc3/built-in.o
 .text.dwc3_gadget_set_test_mode
                0x0000000000263bdc       0x3c drivers/usb/dwc3/built-in.o
                0x0000000000263bdc                dwc3_gadget_set_test_mode
 .text.dwc3_gadget_set_link_state
                0x0000000000263c18       0xdc drivers/usb/dwc3/built-in.o
                0x0000000000263c18                dwc3_gadget_set_link_state
 .text.dwc3_gadget_wakeup
                0x0000000000263cf4       0xe8 drivers/usb/dwc3/built-in.o
 .text.dwc3_gadget_resize_tx_fifos
                0x0000000000263ddc       0xac drivers/usb/dwc3/built-in.o
                0x0000000000263ddc                dwc3_gadget_resize_tx_fifos
 .text.dwc3_gadget_giveback
                0x0000000000263e88       0xf0 drivers/usb/dwc3/built-in.o
                0x0000000000263e88                dwc3_gadget_giveback
 .text.dwc3_send_gadget_generic_command
                0x0000000000263f78       0x6c drivers/usb/dwc3/built-in.o
                0x0000000000263f78                dwc3_send_gadget_generic_command
 .text.dwc3_send_gadget_ep_cmd
                0x0000000000263fe4       0xac drivers/usb/dwc3/built-in.o
                0x0000000000263fe4                dwc3_send_gadget_ep_cmd
 .text.__dwc3_gadget_kick_transfer
                0x0000000000264090      0x180 drivers/usb/dwc3/built-in.o
 .text.dwc3_stop_active_transfer.constprop.17
                0x0000000000264210       0xac drivers/usb/dwc3/built-in.o
 .text.dwc3_gadget_ep_queue
                0x00000000002642bc      0x1a0 drivers/usb/dwc3/built-in.o
 .text.dwc3_endpoint_transfer_complete
                0x000000000026445c      0x238 drivers/usb/dwc3/built-in.o
 .text.dwc3_gadget_ep_dequeue
                0x0000000000264694       0xbc drivers/usb/dwc3/built-in.o
 .text.dwc3_remove_requests
                0x0000000000264750       0x78 drivers/usb/dwc3/built-in.o
 .text.dwc3_gadget_reset_interrupt
                0x00000000002647c8      0x164 drivers/usb/dwc3/built-in.o
 .text.__dwc3_gadget_ep_enable.constprop.18
                0x000000000026492c      0x2f4 drivers/usb/dwc3/built-in.o
 .text.dwc3_gadget_ep_enable
                0x0000000000264c20      0x100 drivers/usb/dwc3/built-in.o
 .text.__dwc3_gadget_ep_set_halt
                0x0000000000264d20      0x124 drivers/usb/dwc3/built-in.o
                0x0000000000264d20                __dwc3_gadget_ep_set_halt
 .text.__dwc3_gadget_ep_disable
                0x0000000000264e44       0x8c drivers/usb/dwc3/built-in.o
 .text.dwc3_gadget_stop
                0x0000000000264ed0       0x40 drivers/usb/dwc3/built-in.o
 .text.dwc3_gadget_start
                0x0000000000264f10      0x17c drivers/usb/dwc3/built-in.o
 .text.dwc3_gadget_ep_disable
                0x000000000026508c       0x88 drivers/usb/dwc3/built-in.o
 .text.dwc3_gadget_ep_set_wedge
                0x0000000000265114       0x2c drivers/usb/dwc3/built-in.o
 .text.dwc3_gadget_ep_set_halt
                0x0000000000265140        0x8 drivers/usb/dwc3/built-in.o
 .text.dwc3_gadget_init
                0x0000000000265148      0x170 drivers/usb/dwc3/built-in.o
                0x0000000000265148                dwc3_gadget_init
 .text.dwc3_gadget_uboot_handle_interrupt
                0x00000000002652b8      0x610 drivers/usb/dwc3/built-in.o
                0x00000000002652b8                dwc3_gadget_uboot_handle_interrupt
 .text.dwc3_ep0_status_cmpl
                0x00000000002658c8        0x4 drivers/usb/dwc3/built-in.o
 .text.dwc3_ep0_delegate_req
                0x00000000002658cc       0x10 drivers/usb/dwc3/built-in.o
 .text.dwc3_ep0_start_trans
                0x00000000002658dc      0x174 drivers/usb/dwc3/built-in.o
 .text.__dwc3_ep0_do_control_data
                0x0000000000265a50      0x15c drivers/usb/dwc3/built-in.o
 .text.dwc3_ep0_handle_feature
                0x0000000000265bac      0x17c drivers/usb/dwc3/built-in.o
 .text.__dwc3_ep0_do_control_status
                0x0000000000265d28       0x90 drivers/usb/dwc3/built-in.o
 .text.__dwc3_gadget_ep0_queue
                0x0000000000265db8      0x104 drivers/usb/dwc3/built-in.o
 .text.dwc3_ep0_set_sel_cmpl
                0x0000000000265ebc       0xa0 drivers/usb/dwc3/built-in.o
 .text.dwc3_gadget_ep0_queue
                0x0000000000265f5c       0x2c drivers/usb/dwc3/built-in.o
                0x0000000000265f5c                dwc3_gadget_ep0_queue
 .text.dwc3_ep0_out_start
                0x0000000000265f88       0x50 drivers/usb/dwc3/built-in.o
                0x0000000000265f88                dwc3_ep0_out_start
 .text.dwc3_ep0_stall_and_restart
                0x0000000000265fd8       0x80 drivers/usb/dwc3/built-in.o
 .text.__dwc3_gadget_ep0_set_halt
                0x0000000000266058       0x1c drivers/usb/dwc3/built-in.o
                0x0000000000266058                __dwc3_gadget_ep0_set_halt
 .text.dwc3_gadget_ep0_set_halt
                0x0000000000266074       0x1c drivers/usb/dwc3/built-in.o
                0x0000000000266074                dwc3_gadget_ep0_set_halt
 .text.dwc3_ep0_interrupt
                0x0000000000266090      0x724 drivers/usb/dwc3/built-in.o
                0x0000000000266090                dwc3_ep0_interrupt
 .text.usb_ether_register
                0x00000000002667b4      0x120 drivers/usb/eth/built-in.o
                0x00000000002667b4                usb_ether_register
 .text.usb_ether_deregister
                0x00000000002668d4        0x8 drivers/usb/eth/built-in.o
                0x00000000002668d4                usb_ether_deregister
 .text.usb_ether_receive
                0x00000000002668dc       0xbc drivers/usb/eth/built-in.o
                0x00000000002668dc                usb_ether_receive
 .text.usb_ether_advance_rxbuf
                0x0000000000266998       0x24 drivers/usb/eth/built-in.o
                0x0000000000266998                usb_ether_advance_rxbuf
 .text.usb_ether_get_rx_bytes
                0x00000000002669bc       0x24 drivers/usb/eth/built-in.o
                0x00000000002669bc                usb_ether_get_rx_bytes
 .text.asix_eth_stop
                0x00000000002669e0        0x4 drivers/usb/eth/built-in.o
                0x00000000002669e0                asix_eth_stop
 .text.asix_send_common
                0x00000000002669e4       0xa0 drivers/usb/eth/built-in.o
 .text.asix_eth_send
                0x0000000000266a84       0x28 drivers/usb/eth/built-in.o
                0x0000000000266a84                asix_eth_send
 .text.asix_eth_recv
                0x0000000000266aac       0xd8 drivers/usb/eth/built-in.o
                0x0000000000266aac                asix_eth_recv
 .text.asix_free_pkt
                0x0000000000266b84       0x38 drivers/usb/eth/built-in.o
 .text.asix_write_cmd.isra.0
                0x0000000000266bbc       0x60 drivers/usb/eth/built-in.o
 .text.asix_write_hwaddr_common
                0x0000000000266c1c       0x4c drivers/usb/eth/built-in.o
 .text.asix_write_hwaddr
                0x0000000000266c68       0x4c drivers/usb/eth/built-in.o
                0x0000000000266c68                asix_write_hwaddr
 .text.asix_mdio_write
                0x0000000000266cb4       0x8c drivers/usb/eth/built-in.o
 .text.asix_sw_reset
                0x0000000000266d40       0x4c drivers/usb/eth/built-in.o
 .text.asix_read_cmd.isra.1
                0x0000000000266d8c       0x68 drivers/usb/eth/built-in.o
 .text.asix_mdio_read
                0x0000000000266df4       0x8c drivers/usb/eth/built-in.o
 .text.asix_read_rx_ctl
                0x0000000000266e80       0x44 drivers/usb/eth/built-in.o
 .text.asix_eth_probe
                0x0000000000266ec4      0x2b8 drivers/usb/eth/built-in.o
 .text.asix_eth_start
                0x000000000026717c       0xf8 drivers/usb/eth/built-in.o
 .text.ax88179_eth_stop
                0x0000000000267274       0x30 drivers/usb/eth/built-in.o
                0x0000000000267274                ax88179_eth_stop
 .text.ax88179_free_pkt
                0x00000000002672a4       0x28 drivers/usb/eth/built-in.o
 .text.ax88179_eth_recv
                0x00000000002672cc      0x118 drivers/usb/eth/built-in.o
                0x00000000002672cc                ax88179_eth_recv
 .text.asix_send_common.isra.0
                0x00000000002673e4       0xd0 drivers/usb/eth/built-in.o
 .text.ax88179_eth_send
                0x00000000002674b4       0x30 drivers/usb/eth/built-in.o
                0x00000000002674b4                ax88179_eth_send
 .text.asix_write_cmd.isra.1
                0x00000000002674e4       0xa0 drivers/usb/eth/built-in.o
 .text.ax88179_write_hwaddr
                0x0000000000267584       0x44 drivers/usb/eth/built-in.o
                0x0000000000267584                ax88179_write_hwaddr
 .text.asix_read_cmd.isra.3
                0x00000000002675c8       0x98 drivers/usb/eth/built-in.o
 .text.ax88179_eth_probe
                0x0000000000267660       0x88 drivers/usb/eth/built-in.o
 .text.asix_wait_link
                0x00000000002676e8       0xb4 drivers/usb/eth/built-in.o
 .text.ax88179_eth_start
                0x000000000026779c      0x3c0 drivers/usb/eth/built-in.o
 .text.mcs7830_eth_stop
                0x0000000000267b5c        0x4 drivers/usb/eth/built-in.o
                0x0000000000267b5c                mcs7830_eth_stop
 .text.mcs7830_send_common
                0x0000000000267b60       0x7c drivers/usb/eth/built-in.o
 .text.mcs7830_eth_send
                0x0000000000267bdc       0x28 drivers/usb/eth/built-in.o
                0x0000000000267bdc                mcs7830_eth_send
 .text.mcs7830_eth_recv
                0x0000000000267c04       0xc0 drivers/usb/eth/built-in.o
                0x0000000000267c04                mcs7830_eth_recv
 .text.mcs7830_write_reg
                0x0000000000267cc4       0x90 drivers/usb/eth/built-in.o
 .text.mcs7830_write_hwaddr
                0x0000000000267d54       0x48 drivers/usb/eth/built-in.o
                0x0000000000267d54                mcs7830_write_hwaddr
 .text.mcs7830_read_reg
                0x0000000000267d9c       0x9c drivers/usb/eth/built-in.o
 .text.mcs7830_free_pkt
                0x0000000000267e38       0x38 drivers/usb/eth/built-in.o
 .text.mcs7830_phy_emit_wait
                0x0000000000267e70       0x84 drivers/usb/eth/built-in.o
 .text.mcs7830_write_phy
                0x0000000000267ef4       0x50 drivers/usb/eth/built-in.o
 .text.mcs7830_eth_probe
                0x0000000000267f44      0x184 drivers/usb/eth/built-in.o
 .text.mcs7830_eth_start
                0x00000000002680c8       0x74 drivers/usb/eth/built-in.o
 .text.smsc95xx_eth_stop
                0x000000000026813c        0x4 drivers/usb/eth/built-in.o
                0x000000000026813c                smsc95xx_eth_stop
 .text.smsc95xx_send_common
                0x0000000000268140       0xb8 drivers/usb/eth/built-in.o
 .text.smsc95xx_eth_send
                0x00000000002681f8       0x24 drivers/usb/eth/built-in.o
                0x00000000002681f8                smsc95xx_eth_send
 .text.smsc95xx_eth_recv
                0x000000000026821c       0xcc drivers/usb/eth/built-in.o
                0x000000000026821c                smsc95xx_eth_recv
 .text.smsc95xx_free_pkt
                0x00000000002682e8       0x34 drivers/usb/eth/built-in.o
 .text.smsc95xx_write_reg
                0x000000000026831c       0x60 drivers/usb/eth/built-in.o
 .text.smsc95xx_read_reg
                0x000000000026837c       0x7c drivers/usb/eth/built-in.o
 .text.smsc95xx_phy_wait_not_busy
                0x00000000002683f8       0x5c drivers/usb/eth/built-in.o
 .text.smsc95xx_mdio_read
                0x0000000000268454       0x70 drivers/usb/eth/built-in.o
 .text.smsc95xx_eth_probe
                0x00000000002684c4       0x2c drivers/usb/eth/built-in.o
 .text.smsc95xx_write_hwaddr_common.isra.1
                0x00000000002684f0       0x78 drivers/usb/eth/built-in.o
 .text.smsc95xx_write_hwaddr
                0x0000000000268568       0x4c drivers/usb/eth/built-in.o
                0x0000000000268568                smsc95xx_write_hwaddr
 .text.smsc95xx_mdio_write
                0x00000000002685b4       0x74 drivers/usb/eth/built-in.o
 .text.smsc95xx_eth_start
                0x0000000000268628      0x484 drivers/usb/eth/built-in.o
 .text.smsc95xx_read_rom_hwaddr
                0x0000000000268aac      0x17c drivers/usb/eth/built-in.o
                0x0000000000268aac                smsc95xx_read_rom_hwaddr
 .text.r8152_eth_stop
                0x0000000000268c28       0x18 drivers/usb/eth/built-in.o
                0x0000000000268c28                r8152_eth_stop
 .text.r8152_send_common
                0x0000000000268c40       0x88 drivers/usb/eth/built-in.o
 .text.r8152_eth_send
                0x0000000000268cc8       0x28 drivers/usb/eth/built-in.o
                0x0000000000268cc8                r8152_eth_send
 .text.r8152_eth_recv
                0x0000000000268cf0       0xac drivers/usb/eth/built-in.o
                0x0000000000268cf0                r8152_eth_recv
 .text.r8152_free_pkt
                0x0000000000268d9c       0x34 drivers/usb/eth/built-in.o
 .text.set_registers.isra.1
                0x0000000000268dd0       0xa8 drivers/usb/eth/built-in.o
 .text.generic_ocp_read
                0x0000000000268e78      0x144 drivers/usb/eth/built-in.o
                0x0000000000268e78                generic_ocp_read
 .text.generic_ocp_write
                0x0000000000268fbc      0x138 drivers/usb/eth/built-in.o
                0x0000000000268fbc                generic_ocp_write
 .text.pla_ocp_read
                0x00000000002690f4        0x8 drivers/usb/eth/built-in.o
                0x00000000002690f4                pla_ocp_read
 .text.r8152_read_mac
                0x00000000002690fc       0x48 drivers/usb/eth/built-in.o
 .text.r8152_read_rom_hwaddr
                0x0000000000269144       0x38 drivers/usb/eth/built-in.o
                0x0000000000269144                r8152_read_rom_hwaddr
 .text.pla_ocp_write
                0x000000000026917c        0x8 drivers/usb/eth/built-in.o
                0x000000000026917c                pla_ocp_write
 .text.usb_ocp_write
                0x0000000000269184        0x8 drivers/usb/eth/built-in.o
                0x0000000000269184                usb_ocp_write
 .text.r8153_u1u2en.constprop.5
                0x000000000026918c       0x44 drivers/usb/eth/built-in.o
 .text.ocp_read_dword
                0x00000000002691d0       0x2c drivers/usb/eth/built-in.o
                0x00000000002691d0                ocp_read_dword
 .text.ocp_write_dword
                0x00000000002691fc       0x30 drivers/usb/eth/built-in.o
                0x00000000002691fc                ocp_write_dword
 .text.ocp_read_word
                0x000000000026922c       0x40 drivers/usb/eth/built-in.o
                0x000000000026922c                ocp_read_word
 .text.ocp_write_word
                0x000000000026926c       0x50 drivers/usb/eth/built-in.o
                0x000000000026926c                ocp_write_word
 .text.rxdy_gated_en
                0x00000000002692bc       0x4c drivers/usb/eth/built-in.o
 .text.rtl_set_eee_plus
                0x0000000000269308       0x3c drivers/usb/eth/built-in.o
 .text.rtl_tally_reset
                0x0000000000269344       0x3c drivers/usb/eth/built-in.o
 .text.r8152_power_cut_en
                0x0000000000269380       0x70 drivers/usb/eth/built-in.o
 .text.rtl8152_unload
                0x00000000002693f0       0x18 drivers/usb/eth/built-in.o
 .text.r8153_power_cut_en.constprop.3
                0x0000000000269408       0x60 drivers/usb/eth/built-in.o
 .text.rtl8153_unload
                0x0000000000269468        0x4 drivers/usb/eth/built-in.o
 .text.r8153_u2p3en.constprop.4
                0x000000000026946c       0x38 drivers/usb/eth/built-in.o
 .text.rtl_rx_vlan_en.constprop.6
                0x00000000002694a4       0x3c drivers/usb/eth/built-in.o
 .text.ocp_read_byte
                0x00000000002694e0       0x3c drivers/usb/eth/built-in.o
                0x00000000002694e0                ocp_read_byte
 .text.r8152_eth_start
                0x000000000026951c       0xac drivers/usb/eth/built-in.o
 .text.ocp_write_byte
                0x00000000002695c8       0x50 drivers/usb/eth/built-in.o
                0x00000000002695c8                ocp_write_byte
 .text.r8152_write_hwaddr
                0x0000000000269618       0x88 drivers/usb/eth/built-in.o
 .text.rtl_enable
                0x00000000002696a0       0xd0 drivers/usb/eth/built-in.o
 .text.rtl8153_enable
                0x0000000000269770       0x50 drivers/usb/eth/built-in.o
 .text.rtl8152_enable
                0x00000000002697c0       0x24 drivers/usb/eth/built-in.o
 .text.ocp_reg_read
                0x00000000002697e4       0x60 drivers/usb/eth/built-in.o
                0x00000000002697e4                ocp_reg_read
 .text.ocp_reg_write
                0x0000000000269844       0x68 drivers/usb/eth/built-in.o
                0x0000000000269844                ocp_reg_write
 .text.r8153_disable_aldps
                0x00000000002698ac       0x50 drivers/usb/eth/built-in.o
 .text.r8152b_enable_fc
                0x00000000002698fc       0x34 drivers/usb/eth/built-in.o
 .text.r8152b_disable_aldps
                0x0000000000269930       0x3c drivers/usb/eth/built-in.o
 .text.r8152b_init
                0x000000000026996c      0x154 drivers/usb/eth/built-in.o
 .text.r8152_eth_probe
                0x0000000000269ac0      0x254 drivers/usb/eth/built-in.o
 .text.sram_write
                0x0000000000269d14       0x38 drivers/usb/eth/built-in.o
                0x0000000000269d14                sram_write
 .text.r8152_wait_for_bit
                0x0000000000269d4c       0xa4 drivers/usb/eth/built-in.o
                0x0000000000269d4c                r8152_wait_for_bit
 .text.rtl8152_nic_reset
                0x0000000000269df0       0x58 drivers/usb/eth/built-in.o
 .text.rtl_disable
                0x0000000000269e48       0x8c drivers/usb/eth/built-in.o
 .text.rtl8153_disable
                0x0000000000269ed4       0x24 drivers/usb/eth/built-in.o
 .text.rtl8152_disable
                0x0000000000269ef8       0x34 drivers/usb/eth/built-in.o
 .text.rtl8152_reinit_ll
                0x0000000000269f2c       0x7c drivers/usb/eth/built-in.o
 .text.rtl8153_down
                0x0000000000269fa8      0x12c drivers/usb/eth/built-in.o
 .text.rtl8153_up
                0x000000000026a0d4      0x2d8 drivers/usb/eth/built-in.o
 .text.rtl8152_down
                0x000000000026a3ac      0x148 drivers/usb/eth/built-in.o
 .text.rtl8152_up
                0x000000000026a4f4      0x210 drivers/usb/eth/built-in.o
 .text.r8153_init
                0x000000000026a704      0x25c drivers/usb/eth/built-in.o
 .text.r8153_wdt1_end
                0x000000000026a960       0x50 drivers/usb/eth/built-in.o
 .text.rtl_clear_bp
                0x000000000026a9b0       0xf4 drivers/usb/eth/built-in.o
 .text.r8153_clear_bp
                0x000000000026aaa4       0x44 drivers/usb/eth/built-in.o
 .text.r8153_pre_ram_code
                0x000000000026aae8       0x9c drivers/usb/eth/built-in.o
 .text.r8153_post_ram_code
                0x000000000026ab84       0x8c drivers/usb/eth/built-in.o
 .text.r8152b_firmware
                0x000000000026ac10      0x1cc drivers/usb/eth/built-in.o
                0x000000000026ac10                r8152b_firmware
 .text.r8153_firmware
                0x000000000026addc      0x438 drivers/usb/eth/built-in.o
                0x000000000026addc                r8153_firmware
 .text.ep_matches.part.0
                0x000000000026b214      0x1bc drivers/usb/gadget/built-in.o
 .text.usb_ep_autoconfig
                0x000000000026b3d0      0x144 drivers/usb/gadget/built-in.o
                0x000000000026b3d0                usb_ep_autoconfig
 .text.usb_ep_autoconfig_reset
                0x000000000026b514       0x30 drivers/usb/gadget/built-in.o
                0x000000000026b514                usb_ep_autoconfig_reset
 .text.usb_descriptor_fillbuf
                0x000000000026b544       0x84 drivers/usb/gadget/built-in.o
                0x000000000026b544                usb_descriptor_fillbuf
 .text.usb_gadget_get_string
                0x000000000026b5c8      0x194 drivers/usb/gadget/built-in.o
                0x000000000026b5c8                usb_gadget_get_string
 .text.count_configs
                0x000000000026b75c       0x68 drivers/usb/gadget/built-in.o
 .text.collect_langs
                0x000000000026b7c4       0x54 drivers/usb/gadget/built-in.o
 .text.composite_setup_complete
                0x000000000026b818        0x4 drivers/usb/gadget/built-in.o
 .text.composite_suspend
                0x000000000026b81c       0x80 drivers/usb/gadget/built-in.o
 .text.composite_resume
                0x000000000026b89c       0x7c drivers/usb/gadget/built-in.o
 .text.g_dnl_unbind
                0x000000000026b918       0x34 drivers/usb/gadget/built-in.o
 .text.lookup_string
                0x000000000026b94c       0x68 drivers/usb/gadget/built-in.o
 .text.composite_unbind
                0x000000000026b9b4      0x12c drivers/usb/gadget/built-in.o
 .text.composite_bind
                0x000000000026bae0      0x128 drivers/usb/gadget/built-in.o
 .text.g_dnl_do_config
                0x000000000026bc08       0x58 drivers/usb/gadget/built-in.o
 .text.reset_config.isra.0
                0x000000000026bc60       0x5c drivers/usb/gadget/built-in.o
 .text.composite_disconnect
                0x000000000026bcbc       0x4c drivers/usb/gadget/built-in.o
 .text.composite_setup
                0x000000000026bd08      0x954 drivers/usb/gadget/built-in.o
 .text.usb_add_function
                0x000000000026c65c       0xd8 drivers/usb/gadget/built-in.o
                0x000000000026c65c                usb_add_function
 .text.usb_interface_id
                0x000000000026c734       0x30 drivers/usb/gadget/built-in.o
                0x000000000026c734                usb_interface_id
 .text.usb_add_config
                0x000000000026c764       0xd0 drivers/usb/gadget/built-in.o
                0x000000000026c764                usb_add_config
 .text.usb_string_id
                0x000000000026c834       0x28 drivers/usb/gadget/built-in.o
                0x000000000026c834                usb_string_id
 .text.usb_composite_register
                0x000000000026c85c       0x74 drivers/usb/gadget/built-in.o
                0x000000000026c85c                usb_composite_register
 .text.usb_composite_unregister
                0x000000000026c8d0       0x38 drivers/usb/gadget/built-in.o
                0x000000000026c8d0                usb_composite_unregister
 .text.g_dnl_set_serialnumber
                0x000000000026c908       0x50 drivers/usb/gadget/built-in.o
                0x000000000026c908                g_dnl_set_serialnumber
 .text.on_serialno
                0x000000000026c958       0x1c drivers/usb/gadget/built-in.o
 .text.g_dnl_bind_fixup
                0x000000000026c974       0xe4 drivers/usb/gadget/built-in.o
                0x000000000026c97c                g_dnl_bind_fixup
 .text.g_dnl_get_board_bcd_device_number
                0x000000000026ca58        0x4 drivers/usb/gadget/built-in.o
                0x000000000026ca58                g_dnl_get_board_bcd_device_number
 .text.g_dnl_bind
                0x000000000026ca5c      0x178 drivers/usb/gadget/built-in.o
 .text.g_dnl_board_usb_cable_connected
                0x000000000026cbd4        0x8 drivers/usb/gadget/built-in.o
                0x000000000026cbd4                g_dnl_board_usb_cable_connected
 .text.g_dnl_detach
                0x000000000026cbdc        0xc drivers/usb/gadget/built-in.o
                0x000000000026cbdc                g_dnl_detach
 .text.g_dnl_trigger_detach
                0x000000000026cbe8       0x10 drivers/usb/gadget/built-in.o
                0x000000000026cbe8                g_dnl_trigger_detach
 .text.g_dnl_clear_detach
                0x000000000026cbf8        0xc drivers/usb/gadget/built-in.o
                0x000000000026cbf8                g_dnl_clear_detach
 .text.g_dnl_register
                0x000000000026cc04       0x4c drivers/usb/gadget/built-in.o
                0x000000000026cc04                g_dnl_register
 .text.g_dnl_unregister
                0x000000000026cc50        0xc drivers/usb/gadget/built-in.o
                0x000000000026cc50                g_dnl_unregister
 .text.raise_exception
                0x000000000026cc5c       0x24 drivers/usb/gadget/built-in.o
 .text.ep0_queue
                0x000000000026cc80       0x3c drivers/usb/gadget/built-in.o
 .text.bulk_in_complete
                0x000000000026ccbc       0x4c drivers/usb/gadget/built-in.o
 .text.bulk_out_complete
                0x000000000026cd08       0x4c drivers/usb/gadget/built-in.o
 .text.fsg_set_alt
                0x000000000026cd54       0x28 drivers/usb/gadget/built-in.o
 .text.fsg_disable
                0x000000000026cd7c       0x10 drivers/usb/gadget/built-in.o
 .text.fsg_setup
                0x000000000026cd8c       0xfc drivers/usb/gadget/built-in.o
 .text.__do_reset
                0x000000000026ce88       0x48 drivers/usb/gadget/built-in.o
 .text.fsg_unbind
                0x000000000026ced0       0x4c drivers/usb/gadget/built-in.o
 .text.store_cdrom_address
                0x000000000026cf1c       0x60 drivers/usb/gadget/built-in.o
 .text.fsg_set_halt.isra.6
                0x000000000026cf7c       0x10 drivers/usb/gadget/built-in.o
 .text.start_transfer.isra.8
                0x000000000026cf8c       0x4c drivers/usb/gadget/built-in.o
 .text.halt_bulk_in_endpoint.isra.13
                0x000000000026cfd8       0x48 drivers/usb/gadget/built-in.o
 .text.rkusb_fixup_cbwcb.isra.19
                0x000000000026d020       0x60 drivers/usb/gadget/built-in.o
 .text.sleep_thread.isra.20
                0x000000000026d080      0x108 drivers/usb/gadget/built-in.o
 .text.do_read  0x000000000026d188      0x208 drivers/usb/gadget/built-in.o
 .text.do_write
                0x000000000026d390      0x2ec drivers/usb/gadget/built-in.o
 .text.send_status
                0x000000000026d67c      0x11c drivers/usb/gadget/built-in.o
 .text.check_command.isra.23
                0x000000000026d798      0x184 drivers/usb/gadget/built-in.o
 .text.do_mode_sense.isra.28
                0x000000000026d91c      0x198 drivers/usb/gadget/built-in.o
 .text.fsg_add  0x000000000026dab4      0x2c8 drivers/usb/gadget/built-in.o
                0x000000000026dab4                fsg_add
 .text.do_set_interface
                0x000000000026dd7c      0x2d0 drivers/usb/gadget/built-in.o
 .text.fsg_main_thread
                0x000000000026e04c     0x1a9c drivers/usb/gadget/built-in.o
                0x000000000026e04c                fsg_main_thread
 .text.usb_copy_descriptors
                0x000000000026fae8       0x9c drivers/usb/gadget/built-in.o
                0x000000000026fae8                usb_copy_descriptors
 .text.fsg_bind
                0x000000000026fb84      0x1b0 drivers/usb/gadget/built-in.o
 .text.fsg_init
                0x000000000026fd34       0x18 drivers/usb/gadget/built-in.o
                0x000000000026fd34                fsg_init
 .text.rx_bytes_expected
                0x000000000026fd4c       0x54 drivers/usb/gadget/built-in.o
 .text.fastboot_start_ep
                0x000000000026fda0       0x7c drivers/usb/gadget/built-in.o
 .text.fastboot_unbind
                0x000000000026fe1c       0x14 drivers/usb/gadget/built-in.o
 .text.fastboot_add
                0x000000000026fe30       0xc8 drivers/usb/gadget/built-in.o
 .text.fastboot_disable
                0x000000000026fef8       0x8c drivers/usb/gadget/built-in.o
 .text.fastboot_complete
                0x000000000026ff84       0x2c drivers/usb/gadget/built-in.o
 .text.fastboot_tx_write
                0x000000000026ffb0       0x90 drivers/usb/gadget/built-in.o
 .text.do_exit_on_complete
                0x0000000000270040        0x4 drivers/usb/gadget/built-in.o
 .text.do_bootm_on_complete
                0x0000000000270044       0x7c drivers/usb/gadget/built-in.o
 .text.compl_do_reset
                0x00000000002700c0       0x14 drivers/usb/gadget/built-in.o
 .text.strcmp_l1
                0x00000000002700d4       0x44 drivers/usb/gadget/built-in.o
 .text.fastboot_tx_write_str
                0x0000000000270118      0x12c drivers/usb/gadget/built-in.o
 .text.rx_handler_command
                0x0000000000270244      0x100 drivers/usb/gadget/built-in.o
 .text.cb_oem   0x0000000000270344      0x59c drivers/usb/gadget/built-in.o
 .text.cb_flash
                0x00000000002708e0       0xec drivers/usb/gadget/built-in.o
 .text.cb_flashing
                0x00000000002709cc      0x11c drivers/usb/gadget/built-in.o
 .text.cb_continue
                0x0000000000270ae8       0x24 drivers/usb/gadget/built-in.o
 .text.cb_boot  0x0000000000270b0c       0x24 drivers/usb/gadget/built-in.o
 .text.cb_upload
                0x0000000000270b30       0x80 drivers/usb/gadget/built-in.o
 .text.tx_handler_ul
                0x0000000000270bb0      0x114 drivers/usb/gadget/built-in.o
 .text.cb_download
                0x0000000000270cc4       0xd8 drivers/usb/gadget/built-in.o
 .text.rx_handler_dl_image
                0x0000000000270d9c      0x134 drivers/usb/gadget/built-in.o
 .text.fastboot_bind
                0x0000000000270ed0      0x128 drivers/usb/gadget/built-in.o
 .text.fb_add_string.part.1
                0x0000000000270ff8       0x28 drivers/usb/gadget/built-in.o
 .text.fb_add_number.part.2
                0x0000000000271020       0x3c drivers/usb/gadget/built-in.o
 .text.cb_erase
                0x000000000027105c       0x7c drivers/usb/gadget/built-in.o
 .text.cb_set_active
                0x00000000002710d8       0xa4 drivers/usb/gadget/built-in.o
 .text.fb_get_fstype.constprop.7
                0x000000000027117c       0x68 drivers/usb/gadget/built-in.o
 .text.fastboot_set_alt
                0x00000000002711e4      0x19c drivers/usb/gadget/built-in.o
 .text.fb_read_var
                0x0000000000271380      0x688 drivers/usb/gadget/built-in.o
 .text.fb_getvar_single
                0x0000000000271a08      0x104 drivers/usb/gadget/built-in.o
 .text.cb_getvar
                0x0000000000271b0c      0x520 drivers/usb/gadget/built-in.o
 .text.cb_reboot
                0x000000000027202c       0xc4 drivers/usb/gadget/built-in.o
 .text.usb_gadget_remove_driver
                0x00000000002720f0       0x68 drivers/usb/gadget/udc/built-in.o
 .text.usb_udc_release
                0x0000000000272158        0x8 drivers/usb/gadget/udc/built-in.o
 .text.usb_gadget_map_request
                0x0000000000272160       0x18 drivers/usb/gadget/udc/built-in.o
                0x0000000000272160                usb_gadget_map_request
 .text.usb_gadget_unmap_request
                0x0000000000272178        0x4 drivers/usb/gadget/udc/built-in.o
                0x0000000000272178                usb_gadget_unmap_request
 .text.usb_gadget_giveback_request
                0x000000000027217c        0x8 drivers/usb/gadget/udc/built-in.o
                0x000000000027217c                usb_gadget_giveback_request
 .text.usb_gadget_set_state
                0x0000000000272184        0x8 drivers/usb/gadget/udc/built-in.o
                0x0000000000272184                usb_gadget_set_state
 .text.usb_gadget_udc_reset
                0x000000000027218c       0x2c drivers/usb/gadget/udc/built-in.o
                0x000000000027218c                usb_gadget_udc_reset
 .text.usb_add_gadget_udc_release
                0x00000000002721b8       0x74 drivers/usb/gadget/udc/built-in.o
                0x00000000002721b8                usb_add_gadget_udc_release
 .text.usb_add_gadget_udc
                0x000000000027222c        0x8 drivers/usb/gadget/udc/built-in.o
                0x000000000027222c                usb_add_gadget_udc
 .text.usb_gadget_probe_driver
                0x0000000000272234      0x12c drivers/usb/gadget/udc/built-in.o
                0x0000000000272234                usb_gadget_probe_driver
 .text.usb_gadget_register_driver
                0x0000000000272360        0x4 drivers/usb/gadget/udc/built-in.o
                0x0000000000272360                usb_gadget_register_driver
 .text.usb_gadget_unregister_driver
                0x0000000000272364       0x7c drivers/usb/gadget/udc/built-in.o
                0x0000000000272364                usb_gadget_unregister_driver
 .text.usb_match_device
                0x00000000002723e0       0xc4 drivers/usb/host/built-in.o
 .text.usb_child_post_bind
                0x00000000002724a4       0xa0 drivers/usb/host/built-in.o
 .text.usb_match_one_id_intf.isra.0
                0x0000000000272544       0x80 drivers/usb/host/built-in.o
 .text.remove_inactive_children.isra.2
                0x00000000002725c4       0x80 drivers/usb/host/built-in.o
 .text.usb_disable_asynch
                0x0000000000272644       0x1c drivers/usb/host/built-in.o
                0x0000000000272644                usb_disable_asynch
 .text.submit_int_msg
                0x0000000000272660       0x3c drivers/usb/host/built-in.o
                0x0000000000272660                submit_int_msg
 .text.submit_control_msg
                0x000000000027269c       0x9c drivers/usb/host/built-in.o
                0x000000000027269c                submit_control_msg
 .text.submit_bulk_msg
                0x0000000000272738       0x34 drivers/usb/host/built-in.o
                0x0000000000272738                submit_bulk_msg
 .text.usb_alloc_device
                0x000000000027276c       0x24 drivers/usb/host/built-in.o
                0x000000000027276c                usb_alloc_device
 .text.usb_reset_root_port
                0x0000000000272790       0x24 drivers/usb/host/built-in.o
                0x0000000000272790                usb_reset_root_port
 .text.usb_update_hub_device
                0x00000000002727b4       0x24 drivers/usb/host/built-in.o
                0x00000000002727b4                usb_update_hub_device
 .text.usb_get_max_xfer_size
                0x00000000002727d8       0x20 drivers/usb/host/built-in.o
                0x00000000002727d8                usb_get_max_xfer_size
 .text.usb_stop
                0x00000000002727f8       0xb8 drivers/usb/host/built-in.o
                0x00000000002727f8                usb_stop
 .text.usb_get_bus
                0x00000000002728b0       0x3c drivers/usb/host/built-in.o
                0x00000000002728b0                usb_get_bus
 .text.usb_scan_device
                0x00000000002728ec      0x2a4 drivers/usb/host/built-in.o
                0x00000000002728ec                usb_scan_device
 .text.usb_scan_bus.isra.3
                0x0000000000272b90       0x80 drivers/usb/host/built-in.o
 .text.usb_init
                0x0000000000272c10      0x1a8 drivers/usb/host/built-in.o
                0x0000000000272c10                usb_init
 .text.usb_child_pre_probe
                0x0000000000272db8       0x84 drivers/usb/host/built-in.o
                0x0000000000272db8                usb_child_pre_probe
 .text.ep_rev   0x0000000000272e3c       0x34 drivers/usb/host/built-in.o
 .text.urb_free_priv
                0x0000000000272e70       0x34 drivers/usb/host/built-in.o
 .text.ohci_get_ohci_dev
                0x0000000000272ea4       0xa0 drivers/usb/host/built-in.o
 .text.td_fill.isra.2
                0x0000000000272f44      0x104 drivers/usb/host/built-in.o
 .text.ohci_destroy_int_queue
                0x0000000000273048       0x54 drivers/usb/host/built-in.o
 .text.hc_reset
                0x000000000027309c       0xf4 drivers/usb/host/built-in.o
 .text.hc_interrupt
                0x0000000000273190      0x5b4 drivers/usb/host/built-in.o
 .text.ohci_poll_int_queue
                0x0000000000273744       0x60 drivers/usb/host/built-in.o
 .text.sohci_submit_job
                0x00000000002737a4      0x79c drivers/usb/host/built-in.o
                0x00000000002737a4                sohci_submit_job
 .text.ohci_create_int_queue
                0x0000000000273f40      0x154 drivers/usb/host/built-in.o
 .text.submit_common_msg
                0x0000000000274094      0x1a8 drivers/usb/host/built-in.o
 .text.ohci_submit_int_msg
                0x000000000027423c       0x38 drivers/usb/host/built-in.o
 .text.ohci_submit_bulk_msg
                0x0000000000274274       0x38 drivers/usb/host/built-in.o
 .text.ohci_submit_control_msg
                0x00000000002742ac      0x558 drivers/usb/host/built-in.o
 .text.ohci_register
                0x0000000000274804      0x194 drivers/usb/host/built-in.o
                0x0000000000274804                ohci_register
 .text.ohci_deregister
                0x0000000000274998       0x40 drivers/usb/host/built-in.o
                0x0000000000274998                ohci_deregister
 .text.ohci_shutdown_phy
                0x00000000002749d8       0x6c drivers/usb/host/built-in.o
 .text.ohci_usb_remove
                0x0000000000274a44       0x64 drivers/usb/host/built-in.o
 .text.ohci_usb_probe
                0x0000000000274aa8      0x2dc drivers/usb/host/built-in.o
 .text.ehci_get_port_speed
                0x0000000000274d84        0x8 drivers/usb/host/built-in.o
 .text.ehci_set_usbmode
                0x0000000000274d8c       0x20 drivers/usb/host/built-in.o
 .text.ehci_get_portsc_register
                0x0000000000274dac       0x34 drivers/usb/host/built-in.o
 .text.ehci_get_max_xfer_size
                0x0000000000274de0       0x10 drivers/usb/host/built-in.o
 .text.ehci_powerup_fixup
                0x0000000000274df0       0x30 drivers/usb/host/built-in.o
 .text.handshake
                0x0000000000274e20       0xe0 drivers/usb/host/built-in.o
 .text.ehci_td_buffer
                0x0000000000274f00       0x94 drivers/usb/host/built-in.o
 .text.ehci_shutdown
                0x0000000000274f94       0xf4 drivers/usb/host/built-in.o
 .text._ehci_poll_int_queue
                0x0000000000275088       0xe0 drivers/usb/host/built-in.o
 .text.ehci_poll_int_queue
                0x0000000000275168        0xc drivers/usb/host/built-in.o
 .text.disable_periodic.isra.1
                0x0000000000275174       0x54 drivers/usb/host/built-in.o
 .text.enable_periodic.isra.2
                0x00000000002751c8       0x5c drivers/usb/host/built-in.o
 .text.ehci_get_ctrl.isra.3
                0x0000000000275224       0x14 drivers/usb/host/built-in.o
 .text._ehci_destroy_int_queue
                0x0000000000275238       0xf8 drivers/usb/host/built-in.o
 .text.ehci_destroy_int_queue
                0x0000000000275330        0xc drivers/usb/host/built-in.o
 .text.ehci_update_endpt2_dev_n_port.isra.4
                0x000000000027533c       0x60 drivers/usb/host/built-in.o
 .text.ehci_submit_async
                0x000000000027539c      0x5a0 drivers/usb/host/built-in.o
 .text.ehci_submit_bulk_msg
                0x000000000027593c       0x2c drivers/usb/host/built-in.o
 .text._ehci_create_int_queue.isra.5
                0x0000000000275968      0x3b0 drivers/usb/host/built-in.o
 .text.ehci_create_int_queue
                0x0000000000275d18       0x18 drivers/usb/host/built-in.o
 .text.ehci_submit_int_msg
                0x0000000000275d30       0xdc drivers/usb/host/built-in.o
 .text.ehci_submit_control_msg
                0x0000000000275e0c      0x578 drivers/usb/host/built-in.o
 .text.ehci_register
                0x0000000000276384      0x390 drivers/usb/host/built-in.o
                0x0000000000276384                ehci_register
 .text.ehci_deregister
                0x0000000000276714       0x28 drivers/usb/host/built-in.o
                0x0000000000276714                ehci_deregister
 .text.ehci_setup_phy
                0x000000000027673c       0x98 drivers/usb/host/built-in.o
                0x000000000027673c                ehci_setup_phy
 .text.ehci_shutdown_phy
                0x00000000002767d4       0x64 drivers/usb/host/built-in.o
                0x00000000002767d4                ehci_shutdown_phy
 .text.ehci_usb_probe
                0x0000000000276838      0x304 drivers/usb/host/built-in.o
 .text.ehci_usb_remove
                0x0000000000276b3c       0x78 drivers/usb/host/built-in.o
 .text.xhci_microframes_to_exponent
                0x0000000000276bb4       0x78 drivers/usb/host/built-in.o
 .text.xhci_get_max_xfer_size
                0x0000000000276c2c       0x10 drivers/usb/host/built-in.o
 .text.xhci_reset
                0x0000000000276c3c       0xbc drivers/usb/host/built-in.o
 .text.xhci_submit_bulk_msg
                0x0000000000276cf8       0x40 drivers/usb/host/built-in.o
 .text.xhci_get_ep_index
                0x0000000000276d38       0x24 drivers/usb/host/built-in.o
 .text.xhci_submit_int_msg
                0x0000000000276d5c       0x40 drivers/usb/host/built-in.o
 .text.xhci_get_ctrl
                0x0000000000276d9c       0x38 drivers/usb/host/built-in.o
                0x0000000000276d9c                xhci_get_ctrl
 .text.xhci_configure_endpoints
                0x0000000000276dd4      0x104 drivers/usb/host/built-in.o
 .text.xhci_update_hub_device
                0x0000000000276ed8      0x160 drivers/usb/host/built-in.o
 .text.xhci_alloc_device
                0x0000000000277038       0xe0 drivers/usb/host/built-in.o
 .text.xhci_submit_control_msg
                0x0000000000277118      0xa94 drivers/usb/host/built-in.o
 .text.xhci_check_maxpacket
                0x0000000000277bac       0xc8 drivers/usb/host/built-in.o
                0x0000000000277bac                xhci_check_maxpacket
 .text.xhci_register
                0x0000000000277c74      0x198 drivers/usb/host/built-in.o
                0x0000000000277c74                xhci_register
 .text.xhci_deregister
                0x0000000000277e0c       0x6c drivers/usb/host/built-in.o
                0x0000000000277e0c                xhci_deregister
 .text.xhci_link_segments
                0x0000000000277e78       0x3c drivers/usb/host/built-in.o
 .text.xhci_ring_free
                0x0000000000277eb4       0x98 drivers/usb/host/built-in.o
 .text.xhci_flush_cache
                0x0000000000277f4c       0x54 drivers/usb/host/built-in.o
                0x0000000000277f4c                xhci_flush_cache
 .text.xhci_malloc
                0x0000000000277fa0       0x7c drivers/usb/host/built-in.o
 .text.xhci_segment_alloc
                0x000000000027801c       0x64 drivers/usb/host/built-in.o
 .text.xhci_alloc_container_ctx.isra.5
                0x0000000000278080       0xc8 drivers/usb/host/built-in.o
 .text.xhci_inval_cache
                0x0000000000278148       0x54 drivers/usb/host/built-in.o
                0x0000000000278148                xhci_inval_cache
 .text.xhci_cleanup
                0x000000000027819c      0x10c drivers/usb/host/built-in.o
                0x000000000027819c                xhci_cleanup
 .text.xhci_ring_alloc
                0x00000000002782a8      0x108 drivers/usb/host/built-in.o
                0x00000000002782a8                xhci_ring_alloc
 .text.xhci_alloc_virt_device
                0x00000000002783b0       0xfc drivers/usb/host/built-in.o
                0x00000000002783b0                xhci_alloc_virt_device
 .text.xhci_mem_init
                0x00000000002784ac      0x2cc drivers/usb/host/built-in.o
                0x00000000002784ac                xhci_mem_init
 .text.xhci_get_input_control_ctx
                0x0000000000278778       0x48 drivers/usb/host/built-in.o
                0x0000000000278778                xhci_get_input_control_ctx
 .text.xhci_get_slot_ctx
                0x00000000002787c0       0x38 drivers/usb/host/built-in.o
                0x00000000002787c0                xhci_get_slot_ctx
 .text.xhci_get_ep_ctx
                0x00000000002787f8       0x3c drivers/usb/host/built-in.o
                0x00000000002787f8                xhci_get_ep_ctx
 .text.xhci_endpoint_copy
                0x0000000000278834       0x60 drivers/usb/host/built-in.o
                0x0000000000278834                xhci_endpoint_copy
 .text.xhci_slot_copy
                0x0000000000278894       0x48 drivers/usb/host/built-in.o
                0x0000000000278894                xhci_slot_copy
 .text.xhci_setup_addressable_virt_dev
                0x00000000002788dc      0x29c drivers/usb/host/built-in.o
                0x00000000002788dc                xhci_setup_addressable_virt_dev
 .text.giveback_first_trb
                0x0000000000278b78       0x84 drivers/usb/host/built-in.o
 .text.record_transfer_result
                0x0000000000278bfc       0xa4 drivers/usb/host/built-in.o
 .text.queue_trb
                0x0000000000278ca0      0x160 drivers/usb/host/built-in.o
 .text.prepare_ring
                0x0000000000278e00      0x148 drivers/usb/host/built-in.o
 .text.xhci_queue_command
                0x0000000000278f48       0xc8 drivers/usb/host/built-in.o
                0x0000000000278f48                xhci_queue_command
 .text.xhci_acknowledge_event
                0x0000000000279010       0x78 drivers/usb/host/built-in.o
                0x0000000000279010                xhci_acknowledge_event
 .text.xhci_wait_for_event
                0x0000000000279088      0x12c drivers/usb/host/built-in.o
                0x0000000000279088                xhci_wait_for_event
 .text.abort_td
                0x00000000002791b4      0x16c drivers/usb/host/built-in.o
 .text.xhci_bulk_tx
                0x0000000000279320      0x33c drivers/usb/host/built-in.o
                0x0000000000279320                xhci_bulk_tx
 .text.xhci_ctrl_tx
                0x000000000027965c      0x348 drivers/usb/host/built-in.o
                0x000000000027965c                xhci_ctrl_tx
 .text.xhci_dwc3_remove
                0x00000000002799a4       0x34 drivers/usb/host/built-in.o
 .text.dwc3_set_mode
                0x00000000002799d8       0x14 drivers/usb/host/built-in.o
                0x00000000002799d8                dwc3_set_mode
 .text.dwc3_core_soft_reset
                0x00000000002799ec       0x94 drivers/usb/host/built-in.o
                0x00000000002799ec                dwc3_core_soft_reset
 .text.dwc3_core_init
                0x0000000000279a80       0x90 drivers/usb/host/built-in.o
                0x0000000000279a80                dwc3_core_init
 .text.xhci_dwc3_probe
                0x0000000000279b10      0x148 drivers/usb/host/built-in.o
 .text.env_get_yesno
                0x0000000000279c58       0x4c env/built-in.o
                0x0000000000279c58                env_get_yesno
 .text.board_env_fixup
                0x0000000000279ca4        0x4 env/built-in.o
                0x0000000000279ca4                board_env_fixup
 .text.env_get_default
                0x0000000000279ca8       0x3c env/built-in.o
                0x0000000000279ca8                env_get_default
 .text.set_default_env
                0x0000000000279ce4       0xa8 env/built-in.o
                0x0000000000279ce4                set_default_env
 .text.set_default_vars
                0x0000000000279d8c       0x2c env/built-in.o
                0x0000000000279d8c                set_default_vars
 .text.env_complete
                0x0000000000279db8      0x10c env/built-in.o
                0x0000000000279db8                env_complete
 .text.env_driver_lookup_default
                0x0000000000279ec4       0x50 env/built-in.o
                0x0000000000279ec4                env_driver_lookup_default
 .text.env_get_char
                0x0000000000279f14       0x5c env/built-in.o
                0x0000000000279f14                env_get_char
 .text.env_init
                0x0000000000279f70       0x50 env/built-in.o
                0x0000000000279f70                env_init
 .text.regex_callback
                0x0000000000279fc0      0x148 env/built-in.o
 .text.env_attr_walk
                0x000000000027a108      0x130 env/built-in.o
                0x000000000027a108                env_attr_walk
 .text.env_attr_lookup
                0x000000000027a238       0x7c env/built-in.o
                0x000000000027a238                env_attr_lookup
 .text.clear_callback
                0x000000000027a2b4        0xc env/built-in.o
 .text.find_env_callback
                0x000000000027a2c0       0x74 env/built-in.o
 .text.on_callbacks
                0x000000000027a334       0x60 env/built-in.o
 .text.set_callback
                0x000000000027a394       0x90 env/built-in.o
 .text.env_callback_init
                0x000000000027a424       0xb4 env/built-in.o
                0x000000000027a424                env_callback_init
 .text.skip_num
                0x000000000027a4d8       0x68 env/built-in.o
 .text.clear_flags
                0x000000000027a540        0xc env/built-in.o
 .text.on_flags
                0x000000000027a54c       0x60 env/built-in.o
 .text.env_flags_parse_vartype
                0x000000000027a5ac       0x58 env/built-in.o
                0x000000000027a5ac                env_flags_parse_vartype
 .text.env_flags_parse_varaccess
                0x000000000027a604       0x5c env/built-in.o
                0x000000000027a604                env_flags_parse_varaccess
 .text.set_flags
                0x000000000027a660       0xac env/built-in.o
 .text.eth_validate_ethaddr_str
                0x000000000027a70c       0x98 env/built-in.o
                0x000000000027a70c                eth_validate_ethaddr_str
 .text.env_flags_init
                0x000000000027a7a4       0xbc env/built-in.o
                0x000000000027a7a4                env_flags_init
 .text.env_flags_validate
                0x000000000027a860      0x278 env/built-in.o
                0x000000000027a860                env_flags_validate
 .text.env_nowhere_init
                0x000000000027aad8       0x18 env/built-in.o
 .text.fs_probe_unsupported
                0x000000000027aaf0       0x20 fs/built-in.o
 .text.fs_ls_unsupported
                0x000000000027ab10        0x8 fs/built-in.o
 .text.fs_exists_unsupported
                0x000000000027ab18        0x8 fs/built-in.o
 .text.fs_size_unsupported
                0x000000000027ab20        0x8 fs/built-in.o
 .text.fs_read_unsupported
                0x000000000027ab28        0x8 fs/built-in.o
 .text.fs_close_unsupported
                0x000000000027ab30        0x4 fs/built-in.o
 .text.fs_opendir_unsupported
                0x000000000027ab34        0x8 fs/built-in.o
 .text.fs_get_info.part.0
                0x000000000027ab3c       0x34 fs/built-in.o
 .text.fs_close
                0x000000000027ab70       0x30 fs/built-in.o
 .text.fs_write_unsupported
                0x000000000027aba0        0x8 fs/built-in.o
 .text.fs_uuid_unsupported
                0x000000000027aba8        0x8 fs/built-in.o
 .text.fs_set_blk_dev
                0x000000000027abb0       0xbc fs/built-in.o
                0x000000000027abb0                fs_set_blk_dev
 .text.fs_set_blk_dev_with_part
                0x000000000027ac6c       0xa4 fs/built-in.o
                0x000000000027ac6c                fs_set_blk_dev_with_part
 .text.fs_get_fstype
                0x000000000027ad10       0x58 fs/built-in.o
                0x000000000027ad10                fs_get_fstype
 .text.fs_ls    0x000000000027ad68       0x44 fs/built-in.o
                0x000000000027ad68                fs_ls
 .text.fs_exists
                0x000000000027adac       0x38 fs/built-in.o
                0x000000000027adac                fs_exists
 .text.fs_size  0x000000000027ade4       0x40 fs/built-in.o
                0x000000000027ade4                fs_size
 .text.fs_read  0x000000000027ae24       0x84 fs/built-in.o
                0x000000000027ae24                fs_read
 .text.fs_write
                0x000000000027aea8       0x80 fs/built-in.o
                0x000000000027aea8                fs_write
 .text.fs_opendir
                0x000000000027af28       0x78 fs/built-in.o
                0x000000000027af28                fs_opendir
 .text.fs_readdir
                0x000000000027afa0       0x68 fs/built-in.o
                0x000000000027afa0                fs_readdir
 .text.fs_closedir
                0x000000000027b008       0x48 fs/built-in.o
                0x000000000027b008                fs_closedir
 .text.fs_ls_generic
                0x000000000027b050       0xc0 fs/built-in.o
 .text.do_size  0x000000000027b110       0x6c fs/built-in.o
                0x000000000027b110                do_size
 .text.do_load  0x000000000027b17c      0x208 fs/built-in.o
                0x000000000027b17c                do_load
 .text.do_ls    0x000000000027b384       0x84 fs/built-in.o
                0x000000000027b384                do_ls
 .text.file_exists
                0x000000000027b408       0x3c fs/built-in.o
                0x000000000027b408                file_exists
 .text.do_save  0x000000000027b444      0x148 fs/built-in.o
                0x000000000027b444                do_save
 .text.do_fs_type
                0x000000000027b58c       0x8c fs/built-in.o
                0x000000000027b58c                do_fs_type
 .text.get_fs   0x000000000027b618        0xc fs/built-in.o
                0x000000000027b618                get_fs
 .text.ext4fs_free_node
                0x000000000027b624       0x24 fs/built-in.o
                0x000000000027b624                ext4fs_free_node
 .text.ext4fs_read_file
                0x000000000027b648      0x294 fs/built-in.o
                0x000000000027b648                ext4fs_read_file
 .text.ext4fs_ls
                0x000000000027b8dc       0x90 fs/built-in.o
                0x000000000027b8dc                ext4fs_ls
 .text.ext4fs_exists
                0x000000000027b96c       0x20 fs/built-in.o
                0x000000000027b96c                ext4fs_exists
 .text.ext4fs_size
                0x000000000027b98c        0x4 fs/built-in.o
                0x000000000027b98c                ext4fs_size
 .text.ext4fs_read
                0x000000000027b990       0x30 fs/built-in.o
                0x000000000027b990                ext4fs_read
 .text.ext4fs_probe
                0x000000000027b9c0       0x3c fs/built-in.o
                0x000000000027b9c0                ext4fs_probe
 .text.ext4_read_file
                0x000000000027b9fc       0x74 fs/built-in.o
                0x000000000027b9fc                ext4_read_file
 .text.ext4fs_uuid
                0x000000000027ba70       0x38 fs/built-in.o
                0x000000000027ba70                ext4fs_uuid
 .text.ext4fs_bg_get_inode_table_id
                0x000000000027baa8       0x20 fs/built-in.o
                0x000000000027baa8                ext4fs_bg_get_inode_table_id
 .text.ext4fs_read_inode
                0x000000000027bac8      0x108 fs/built-in.o
                0x000000000027bac8                ext4fs_read_inode
 .text.read_allocated_block
                0x000000000027bbd0      0x848 fs/built-in.o
                0x000000000027bbd0                read_allocated_block
 .text.ext4fs_reinit_global
                0x000000000027c418       0x90 fs/built-in.o
                0x000000000027c418                ext4fs_reinit_global
 .text.ext4fs_close
                0x000000000027c4a8       0x4c fs/built-in.o
                0x000000000027c4a8                ext4fs_close
 .text.ext4fs_iterate_dir
                0x000000000027c4f4      0x28c fs/built-in.o
                0x000000000027c4f4                ext4fs_iterate_dir
 .text.ext4fs_find_file1
                0x000000000027c780      0x290 fs/built-in.o
 .text.ext4fs_find_file
                0x000000000027ca10       0x74 fs/built-in.o
                0x000000000027ca10                ext4fs_find_file
 .text.ext4fs_open
                0x000000000027ca84       0xa0 fs/built-in.o
                0x000000000027ca84                ext4fs_open
 .text.ext4fs_mount
                0x000000000027cb24       0xec fs/built-in.o
                0x000000000027cb24                ext4fs_mount
 .text.ext4fs_set_blk_dev
                0x000000000027cc10       0x5c fs/built-in.o
                0x000000000027cc10                ext4fs_set_blk_dev
 .text.ext4fs_devread
                0x000000000027cc6c       0x4c fs/built-in.o
                0x000000000027cc6c                ext4fs_devread
 .text.ext4_read_superblock
                0x000000000027ccb8       0x40 fs/built-in.o
                0x000000000027ccb8                ext4_read_superblock
 .text.downcase
                0x000000000027ccf8       0x3c fs/built-in.o
 .text.mkcksum  0x000000000027cd34       0x54 fs/built-in.o
 .text.check_overflow
                0x000000000027cd88       0x44 fs/built-in.o
 .text.disk_read
                0x000000000027cdcc       0x64 fs/built-in.o
 .text.get_name
                0x000000000027ce30       0xf4 fs/built-in.o
 .text.get_cluster
                0x000000000027cf24      0x184 fs/built-in.o
 .text.read_bootsectandvi
                0x000000000027d0a8      0x134 fs/built-in.o
 .text.fat_itr_root
                0x000000000027d1dc      0x14c fs/built-in.o
 .text.disk_write
                0x000000000027d328       0x88 fs/built-in.o
 .text.flush_dirty_fat_buffer
                0x000000000027d3b0       0xb8 fs/built-in.o
 .text.get_fatent
                0x000000000027d468      0x19c fs/built-in.o
 .text.next_dent
                0x000000000027d604      0x134 fs/built-in.o
 .text.find_empty_cluster
                0x000000000027d738       0x3c fs/built-in.o
 .text.set_fatent_value
                0x000000000027d774      0x1dc fs/built-in.o
 .text.set_cluster
                0x000000000027d950      0x188 fs/built-in.o
 .text.set_name
                0x000000000027dad8      0x16c fs/built-in.o
 .text.slot2str
                0x000000000027dc44       0xb0 fs/built-in.o
 .text.fat_itr_next
                0x000000000027dcf4      0x134 fs/built-in.o
 .text.fat_itr_resolve
                0x000000000027de28      0x154 fs/built-in.o
 .text.flush_dir_table.constprop.7
                0x000000000027df7c       0xf4 fs/built-in.o
 .text.do_fat_write
                0x000000000027e070      0xbc4 fs/built-in.o
 .text.fat_set_blk_dev
                0x000000000027ec34       0xcc fs/built-in.o
                0x000000000027ec34                fat_set_blk_dev
 .text.file_fat_detectfs
                0x000000000027ed00      0x140 fs/built-in.o
                0x000000000027ed00                file_fat_detectfs
 .text.fat_exists
                0x000000000027ee40       0x80 fs/built-in.o
                0x000000000027ee40                fat_exists
 .text.fat_size
                0x000000000027eec0       0xc4 fs/built-in.o
                0x000000000027eec0                fat_size
 .text.file_fat_read_at
                0x000000000027ef84      0x350 fs/built-in.o
                0x000000000027ef84                file_fat_read_at
 .text.fat_read_file
                0x000000000027f2d4       0x48 fs/built-in.o
                0x000000000027f2d4                fat_read_file
 .text.fat_opendir
                0x000000000027f31c       0x9c fs/built-in.o
                0x000000000027f31c                fat_opendir
 .text.fat_readdir
                0x000000000027f3b8       0x8c fs/built-in.o
                0x000000000027f3b8                fat_readdir
 .text.fat_closedir
                0x000000000027f444       0x28 fs/built-in.o
                0x000000000027f444                fat_closedir
 .text.fat_close
                0x000000000027f46c        0x4 fs/built-in.o
                0x000000000027f46c                fat_close
 .text.file_fat_write
                0x000000000027f470       0x74 fs/built-in.o
                0x000000000027f470                file_fat_write
 .text.fs_devread
                0x000000000027f4e4      0x24c fs/built-in.o
                0x000000000027f4e4                fs_devread
 .text          0x000000000027f730       0x2c lib/built-in.o
                0x000000000027f730                tee_smc_call
 .text.fdt_check_header
                0x000000000027f75c       0x74 lib/built-in.o
                0x000000000027f75c                fdt_check_header
 .text.fdt_offset_ptr
                0x000000000027f7d0       0x74 lib/built-in.o
                0x000000000027f7d0                fdt_offset_ptr
 .text.fdt_next_tag
                0x000000000027f844       0xe0 lib/built-in.o
                0x000000000027f844                fdt_next_tag
 .text._fdt_check_node_offset
                0x000000000027f924       0x40 lib/built-in.o
                0x000000000027f924                _fdt_check_node_offset
 .text._fdt_check_prop_offset
                0x000000000027f964       0x40 lib/built-in.o
                0x000000000027f964                _fdt_check_prop_offset
 .text.fdt_next_node
                0x000000000027f9a4       0xb0 lib/built-in.o
                0x000000000027f9a4                fdt_next_node
 .text.fdt_first_subnode
                0x000000000027fa54       0x34 lib/built-in.o
                0x000000000027fa54                fdt_first_subnode
 .text.fdt_next_subnode
                0x000000000027fa88       0x50 lib/built-in.o
                0x000000000027fa88                fdt_next_subnode
 .text._fdt_find_string
                0x000000000027fad8       0x70 lib/built-in.o
                0x000000000027fad8                _fdt_find_string
 .text.fdt_move
                0x000000000027fb48       0x5c lib/built-in.o
                0x000000000027fb48                fdt_move
 .text.fdt_setprop_inplace_namelen_partial
                0x000000000027fba4       0x68 lib/built-in.o
                0x000000000027fba4                fdt_setprop_inplace_namelen_partial
 .text.fdt_setprop_inplace
                0x000000000027fc0c       0x8c lib/built-in.o
                0x000000000027fc0c                fdt_setprop_inplace
 .text._fdt_node_end_offset
                0x000000000027fc98       0x48 lib/built-in.o
                0x000000000027fc98                _fdt_node_end_offset
 .text.fdt_strerror
                0x000000000027fce0       0x4c lib/built-in.o
                0x000000000027fce0                fdt_strerror
 .text._fdt_blocks_misordered
                0x000000000027fd2c       0x60 lib/built-in.o
 .text._fdt_splice
                0x000000000027fd8c       0x98 lib/built-in.o
 .text._fdt_splice_mem_rsv
                0x000000000027fe24       0x6c lib/built-in.o
 .text._fdt_splice_struct
                0x000000000027fe90       0x60 lib/built-in.o
 .text._fdt_packblocks
                0x000000000027fef0       0xb0 lib/built-in.o
 .text._fdt_add_property
                0x000000000027ffa0      0x144 lib/built-in.o
 .text._fdt_rw_check_header
                0x00000000002800e4       0x6c lib/built-in.o
 .text.fdt_add_mem_rsv
                0x0000000000280150       0x7c lib/built-in.o
                0x0000000000280150                fdt_add_mem_rsv
 .text.fdt_del_mem_rsv
                0x00000000002801cc       0x70 lib/built-in.o
                0x00000000002801cc                fdt_del_mem_rsv
 .text.fdt_setprop_placeholder
                0x000000000028023c       0xd8 lib/built-in.o
                0x000000000028023c                fdt_setprop_placeholder
 .text.fdt_setprop
                0x0000000000280314       0x54 lib/built-in.o
                0x0000000000280314                fdt_setprop
 .text.fdt_delprop
                0x0000000000280368       0x6c lib/built-in.o
                0x0000000000280368                fdt_delprop
 .text.fdt_add_subnode_namelen
                0x00000000002803d4      0x11c lib/built-in.o
                0x00000000002803d4                fdt_add_subnode_namelen
 .text.fdt_add_subnode
                0x00000000002804f0       0x3c lib/built-in.o
                0x00000000002804f0                fdt_add_subnode
 .text.fdt_del_node
                0x000000000028052c       0x60 lib/built-in.o
                0x000000000028052c                fdt_del_node
 .text.fdt_open_into
                0x000000000028058c      0x19c lib/built-in.o
                0x000000000028058c                fdt_open_into
 .text.fdt_pack
                0x0000000000280728       0x6c lib/built-in.o
                0x0000000000280728                fdt_pack
 .text.fdt_address_cells
                0x0000000000280794       0x58 lib/built-in.o
                0x0000000000280794                fdt_address_cells
 .text.fdt_size_cells
                0x00000000002807ec       0x54 lib/built-in.o
                0x00000000002807ec                fdt_size_cells
 .text.overlay_phandle_add_offset
                0x0000000000280840       0x98 lib/built-in.o
 .text.overlay_adjust_node_phandles
                0x00000000002808d8       0xa8 lib/built-in.o
 .text.overlay_update_local_node_references
                0x0000000000280980      0x1ac lib/built-in.o
 .text.overlay_get_target
                0x0000000000280b2c       0xdc lib/built-in.o
 .text.overlay_apply_node
                0x0000000000280c08      0x13c lib/built-in.o
 .text.fdt_overlay_apply
                0x0000000000280d44      0x680 lib/built-in.o
                0x0000000000280d44                fdt_overlay_apply
 .text.fdt_path_next_separator
                0x00000000002813c4       0x68 lib/built-in.o
 .text._nextprop.part.0
                0x000000000028142c       0x64 lib/built-in.o
 .text.fdt_string
                0x0000000000281490       0x14 lib/built-in.o
                0x0000000000281490                fdt_string
 .text.fdt_get_mem_rsv
                0x00000000002814a4       0x60 lib/built-in.o
                0x00000000002814a4                fdt_get_mem_rsv
 .text.fdt_num_mem_rsv
                0x0000000000281504       0x28 lib/built-in.o
                0x0000000000281504                fdt_num_mem_rsv
 .text.fdt_subnode_offset_namelen
                0x000000000028152c       0xe4 lib/built-in.o
                0x000000000028152c                fdt_subnode_offset_namelen
 .text.fdt_subnode_offset
                0x0000000000281610       0x3c lib/built-in.o
                0x0000000000281610                fdt_subnode_offset
 .text.fdt_get_name
                0x000000000028164c       0x84 lib/built-in.o
                0x000000000028164c                fdt_get_name
 .text.fdt_first_property_offset
                0x00000000002816d0       0x38 lib/built-in.o
                0x00000000002816d0                fdt_first_property_offset
 .text.fdt_next_property_offset
                0x0000000000281708       0x38 lib/built-in.o
                0x0000000000281708                fdt_next_property_offset
 .text.fdt_get_property_by_offset
                0x0000000000281740       0x64 lib/built-in.o
                0x0000000000281740                fdt_get_property_by_offset
 .text.fdt_get_property_namelen
                0x00000000002817a4       0xd4 lib/built-in.o
                0x00000000002817a4                fdt_get_property_namelen
 .text.fdt_get_property
                0x0000000000281878       0x40 lib/built-in.o
                0x0000000000281878                fdt_get_property
 .text.fdt_getprop_namelen
                0x00000000002818b8       0x1c lib/built-in.o
                0x00000000002818b8                fdt_getprop_namelen
 .text.fdt_getprop_by_offset
                0x00000000002818d4       0x50 lib/built-in.o
                0x00000000002818d4                fdt_getprop_by_offset
 .text.fdt_getprop
                0x0000000000281924       0x40 lib/built-in.o
                0x0000000000281924                fdt_getprop
 .text.fdt_get_phandle
                0x0000000000281964       0x78 lib/built-in.o
                0x0000000000281964                fdt_get_phandle
 .text.fdt_get_max_phandle
                0x00000000002819dc       0x80 lib/built-in.o
                0x00000000002819dc                fdt_get_max_phandle
 .text.fdt_get_alias_namelen
                0x0000000000281a5c       0x5c lib/built-in.o
                0x0000000000281a5c                fdt_get_alias_namelen
 .text.fdt_path_offset_namelen
                0x0000000000281ab8       0xfc lib/built-in.o
                0x0000000000281ab8                fdt_path_offset_namelen
 .text.fdt_path_offset
                0x0000000000281bb4       0x34 lib/built-in.o
                0x0000000000281bb4                fdt_path_offset
 .text.fdt_get_alias
                0x0000000000281be8       0x34 lib/built-in.o
                0x0000000000281be8                fdt_get_alias
 .text.fdt_get_path
                0x0000000000281c1c      0x168 lib/built-in.o
                0x0000000000281c1c                fdt_get_path
 .text.fdt_supernode_atdepth_offset
                0x0000000000281d84       0xb8 lib/built-in.o
                0x0000000000281d84                fdt_supernode_atdepth_offset
 .text.fdt_node_depth
                0x0000000000281e3c       0x30 lib/built-in.o
                0x0000000000281e3c                fdt_node_depth
 .text.fdt_parent_offset
                0x0000000000281e6c       0x44 lib/built-in.o
                0x0000000000281e6c                fdt_parent_offset
 .text.fdt_node_offset_by_phandle
                0x0000000000281eb0       0x84 lib/built-in.o
                0x0000000000281eb0                fdt_node_offset_by_phandle
 .text.fdt_stringlist_contains
                0x0000000000281f34       0x98 lib/built-in.o
                0x0000000000281f34                fdt_stringlist_contains
 .text.fdt_stringlist_count
                0x0000000000281fcc       0x7c lib/built-in.o
                0x0000000000281fcc                fdt_stringlist_count
 .text.fdt_stringlist_search
                0x0000000000282048       0xc4 lib/built-in.o
                0x0000000000282048                fdt_stringlist_search
 .text.fdt_stringlist_get
                0x000000000028210c       0xb4 lib/built-in.o
                0x000000000028210c                fdt_stringlist_get
 .text.fdt_node_check_compatible
                0x00000000002821c0       0x4c lib/built-in.o
                0x00000000002821c0                fdt_node_check_compatible
 .text.fdt_node_offset_by_compatible
                0x000000000028220c       0x84 lib/built-in.o
                0x000000000028220c                fdt_node_offset_by_compatible
 .text.unflatten_dt_node
                0x0000000000282290      0x3f8 lib/built-in.o
 .text.of_live_build
                0x0000000000282688       0xe4 lib/built-in.o
                0x0000000000282688                of_live_build
 .text.utf16_strnlen
                0x000000000028276c       0x24 lib/built-in.o
                0x000000000028276c                utf16_strnlen
 .text.utf16_to_utf8
                0x0000000000282790      0x124 lib/built-in.o
                0x0000000000282790                utf16_to_utf8
 .text.fdtdec_get_int
                0x00000000002828b4       0x40 lib/built-in.o
                0x00000000002828b4                fdtdec_get_int
 .text.initcall_run_list
                0x00000000002828f4       0x94 lib/built-in.o
                0x00000000002828f4                initcall_run_list
 .text.lmb_add_region
                0x0000000000282988      0x168 lib/built-in.o
 .text.lmb_init
                0x0000000000282af0       0x18 lib/built-in.o
                0x0000000000282af0                lmb_init
 .text.lmb_add  0x0000000000282b08        0x4 lib/built-in.o
                0x0000000000282b08                lmb_add
 .text.lmb_free
                0x0000000000282b0c       0xd4 lib/built-in.o
                0x0000000000282b0c                lmb_free
 .text.lmb_reserve
                0x0000000000282be0        0x8 lib/built-in.o
                0x0000000000282be0                lmb_reserve
 .text.__lmb_alloc_base
                0x0000000000282be8      0x108 lib/built-in.o
                0x0000000000282be8                __lmb_alloc_base
 .text.lmb_alloc_base
                0x0000000000282cf0       0x44 lib/built-in.o
                0x0000000000282cf0                lmb_alloc_base
 .text.lmb_alloc
                0x0000000000282d34        0x8 lib/built-in.o
                0x0000000000282d34                lmb_alloc
 .text.sysmem_has_init
                0x0000000000282d3c       0x20 lib/built-in.o
                0x0000000000282d3c                sysmem_has_init
 .text.sysmem_alloc_align_base
                0x0000000000282d5c      0x494 lib/built-in.o
 .text.sysmem_dump
                0x00000000002831f0      0x2c4 lib/built-in.o
                0x00000000002831f0                sysmem_dump
 .text.do_sysmem_dump
                0x00000000002834b4       0x18 lib/built-in.o
 .text.sysmem_overflow_check
                0x00000000002834cc      0x1f0 lib/built-in.o
                0x00000000002834cc                sysmem_overflow_check
 .text.sysmem_alloc
                0x00000000002836bc       0x3c lib/built-in.o
                0x00000000002836bc                sysmem_alloc
 .text.sysmem_alloc_by_name
                0x00000000002836f8       0x40 lib/built-in.o
                0x00000000002836f8                sysmem_alloc_by_name
 .text.sysmem_alloc_base
                0x0000000000283738       0x3c lib/built-in.o
                0x0000000000283738                sysmem_alloc_base
 .text.sysmem_alloc_base_by_name
                0x0000000000283774       0x40 lib/built-in.o
                0x0000000000283774                sysmem_alloc_base_by_name
 .text.sysmem_fdt_reserve_alloc_base
                0x00000000002837b4       0x40 lib/built-in.o
                0x00000000002837b4                sysmem_fdt_reserve_alloc_base
 .text.sysmem_free
                0x00000000002837f4       0xf8 lib/built-in.o
                0x00000000002837f4                sysmem_free
 .text.do_sysmem_search
                0x00000000002838ec       0x94 lib/built-in.o
 .text.board_sysmem_reserve
                0x0000000000283980        0x8 lib/built-in.o
                0x0000000000283980                board_sysmem_reserve
 .text.sysmem_init
                0x0000000000283988      0x198 lib/built-in.o
                0x0000000000283988                sysmem_init
 .text.sysmem_initr
                0x0000000000283b20        0x4 lib/built-in.o
                0x0000000000283b20                sysmem_initr
 .text.bidram_has_init
                0x0000000000283b24       0x34 lib/built-in.o
 .text.bidram_core_reserve
                0x0000000000283b58      0x1f8 lib/built-in.o
 .text.bidram_dump
                0x0000000000283d50      0x1c4 lib/built-in.o
                0x0000000000283d50                bidram_dump
 .text.do_bidram_dump
                0x0000000000283f14       0x18 lib/built-in.o
 .text.bidram_gen_gd_bi_dram
                0x0000000000283f2c      0x150 lib/built-in.o
                0x0000000000283f2c                bidram_gen_gd_bi_dram
 .text.bidram_fixup
                0x000000000028407c       0x24 lib/built-in.o
                0x000000000028407c                bidram_fixup
 .text.bidram_append_size
                0x00000000002840a0       0x20 lib/built-in.o
                0x00000000002840a0                bidram_append_size
 .text.bidram_reserved_is_overlap
                0x00000000002840c0       0x74 lib/built-in.o
                0x00000000002840c0                bidram_reserved_is_overlap
 .text.bidram_reserve
                0x0000000000284134       0x40 lib/built-in.o
                0x0000000000284134                bidram_reserve
 .text.bidram_reserve_by_name
                0x0000000000284174       0x44 lib/built-in.o
                0x0000000000284174                bidram_reserve_by_name
 .text.bidram_get_ram_size
                0x00000000002841b8      0x278 lib/built-in.o
                0x00000000002841b8                bidram_get_ram_size
 .text.bidram_initr
                0x0000000000284430       0x1c lib/built-in.o
                0x0000000000284430                bidram_initr
 .text.MD5Transform
                0x000000000028444c      0xa00 lib/built-in.o
 .text.MD5Update
                0x0000000000284e4c      0x104 lib/built-in.o
 .text.MD5Final
                0x0000000000284f50       0xbc lib/built-in.o
 .text.md5_wd   0x000000000028500c       0x64 lib/built-in.o
                0x000000000028500c                md5_wd
 .text.string_to_ip
                0x0000000000285070       0xa0 lib/built-in.o
                0x0000000000285070                string_to_ip
 .text.qsort    0x0000000000285110       0xf8 lib/built-in.o
                0x0000000000285110                qsort
 .text.strcmp_compar
                0x0000000000285208        0xc lib/built-in.o
                0x0000000000285208                strcmp_compar
 .text.sha256_process
                0x0000000000285214     0x1fa8 lib/built-in.o
 .text.sha256_update.part.0
                0x00000000002871bc      0x100 lib/built-in.o
 .text.sha256_starts
                0x00000000002872bc       0x68 lib/built-in.o
                0x00000000002872bc                sha256_starts
 .text.sha256_update
                0x0000000000287324        0xc lib/built-in.o
                0x0000000000287324                sha256_update
 .text.sha256_finish
                0x0000000000287330      0x194 lib/built-in.o
                0x0000000000287330                sha256_finish
 .text.sha256_csum_wd
                0x00000000002874c4       0x4c lib/built-in.o
                0x00000000002874c4                sha256_csum_wd
 .text.my_malloc_init
                0x0000000000287510       0xbc lib/built-in.o
                0x0000000000287510                my_malloc_init
 .text.write_usedblock
                0x00000000002875cc       0x48 lib/built-in.o
                0x00000000002875cc                write_usedblock
 .text.find_sizeblock
                0x0000000000287614       0x4c lib/built-in.o
                0x0000000000287614                find_sizeblock
 .text.free_usedblock
                0x0000000000287660       0x54 lib/built-in.o
                0x0000000000287660                free_usedblock
 .text.my_malloc
                0x00000000002876b4      0x118 lib/built-in.o
                0x00000000002876b4                my_malloc
 .text.my_free  0x00000000002877cc       0xa4 lib/built-in.o
                0x00000000002877cc                my_free
 .text.OpteeClientMemInit
                0x0000000000287870       0x38 lib/built-in.o
                0x0000000000287870                OpteeClientMemInit
 .text.OpteeClientMemAlloc
                0x00000000002878a8        0x4 lib/built-in.o
                0x00000000002878a8                OpteeClientMemAlloc
 .text.OpteeClientMemFree
                0x00000000002878ac        0x4 lib/built-in.o
                0x00000000002878ac                OpteeClientMemFree
 .text.OpteeClientApiLibInitialize
                0x00000000002878b0       0xbc lib/built-in.o
                0x00000000002878b0                OpteeClientApiLibInitialize
 .text.TEEC_InitializeContext
                0x000000000028796c       0x3c lib/built-in.o
                0x000000000028796c                TEEC_InitializeContext
 .text.TEEC_FinalizeContext
                0x00000000002879a8        0x8 lib/built-in.o
                0x00000000002879a8                TEEC_FinalizeContext
 .text.TEEC_AllocateSharedMemory
                0x00000000002879b0       0x60 lib/built-in.o
                0x00000000002879b0                TEEC_AllocateSharedMemory
 .text.TEEC_ReleaseSharedMemory
                0x0000000000287a10       0x40 lib/built-in.o
                0x0000000000287a10                TEEC_ReleaseSharedMemory
 .text.TEEC_OpenSession
                0x0000000000287a50       0xb4 lib/built-in.o
                0x0000000000287a50                TEEC_OpenSession
 .text.TEEC_CloseSession
                0x0000000000287b04       0x24 lib/built-in.o
                0x0000000000287b04                TEEC_CloseSession
 .text.TEEC_InvokeCommand
                0x0000000000287b28       0x7c lib/built-in.o
                0x0000000000287b28                TEEC_InvokeCommand
 .text.trusty_base_read_security_data
                0x0000000000287ba4      0x1ac lib/built-in.o
 .text.trusty_base_write_security_data
                0x0000000000287d50      0x1ac lib/built-in.o
 .text.trusty_base_efuse_or_otp_operation
                0x0000000000287efc      0x140 lib/built-in.o
 .text.trusty_base_end_security_data
                0x000000000028803c       0xbc lib/built-in.o
 .text.trusty_base_end_efuse_or_otp
                0x00000000002880f8       0xc0 lib/built-in.o
 .text.b2hs.constprop.0
                0x00000000002881b8       0x58 lib/built-in.o
 .text.trusty_read_rollback_index
                0x0000000000288210       0x3c lib/built-in.o
                0x0000000000288210                trusty_read_rollback_index
 .text.trusty_write_rollback_index
                0x000000000028824c       0x38 lib/built-in.o
                0x000000000028824c                trusty_write_rollback_index
 .text.trusty_read_permanent_attributes
                0x0000000000288284       0x18 lib/built-in.o
                0x0000000000288284                trusty_read_permanent_attributes
 .text.trusty_write_permanent_attributes
                0x000000000028829c       0x18 lib/built-in.o
                0x000000000028829c                trusty_write_permanent_attributes
 .text.trusty_read_permanent_attributes_flag
                0x00000000002882b4       0x18 lib/built-in.o
                0x00000000002882b4                trusty_read_permanent_attributes_flag
 .text.trusty_write_permanent_attributes_flag
                0x00000000002882cc       0x2c lib/built-in.o
                0x00000000002882cc                trusty_write_permanent_attributes_flag
 .text.trusty_read_permanent_attributes_cer
                0x00000000002882f8       0x18 lib/built-in.o
                0x00000000002882f8                trusty_read_permanent_attributes_cer
 .text.trusty_write_permanent_attributes_cer
                0x0000000000288310       0x18 lib/built-in.o
                0x0000000000288310                trusty_write_permanent_attributes_cer
 .text.trusty_read_lock_state
                0x0000000000288328       0x18 lib/built-in.o
                0x0000000000288328                trusty_read_lock_state
 .text.trusty_write_lock_state
                0x0000000000288340       0x2c lib/built-in.o
                0x0000000000288340                trusty_write_lock_state
 .text.trusty_read_flash_lock_state
                0x000000000028836c       0x18 lib/built-in.o
                0x000000000028836c                trusty_read_flash_lock_state
 .text.trusty_write_flash_lock_state
                0x0000000000288384       0x2c lib/built-in.o
                0x0000000000288384                trusty_write_flash_lock_state
 .text.trusty_read_attribute_hash
                0x00000000002883b0       0x14 lib/built-in.o
                0x00000000002883b0                trusty_read_attribute_hash
 .text.trusty_write_attribute_hash
                0x00000000002883c4       0x14 lib/built-in.o
                0x00000000002883c4                trusty_write_attribute_hash
 .text.trusty_notify_optee_uboot_end
                0x00000000002883d8       0x28 lib/built-in.o
                0x00000000002883d8                trusty_notify_optee_uboot_end
 .text.trusty_write_vbootkey_hash
                0x0000000000288400       0x14 lib/built-in.o
                0x0000000000288400                trusty_write_vbootkey_hash
 .text.trusty_read_vbootkey_enable_flag
                0x0000000000288414       0x48 lib/built-in.o
                0x0000000000288414                trusty_read_vbootkey_enable_flag
 .text.trusty_write_ta_encryption_key
                0x000000000028845c       0x14 lib/built-in.o
                0x000000000028845c                trusty_write_ta_encryption_key
 .text.trusty_attest_dh
                0x0000000000288470      0x168 lib/built-in.o
                0x0000000000288470                trusty_attest_dh
 .text.trusty_attest_uuid
                0x00000000002885d8      0x168 lib/built-in.o
                0x00000000002885d8                trusty_attest_uuid
 .text.trusty_attest_get_ca
                0x0000000000288740      0x1c0 lib/built-in.o
                0x0000000000288740                trusty_attest_get_ca
 .text.trusty_attest_set_ca
                0x0000000000288900      0x15c lib/built-in.o
                0x0000000000288900                trusty_attest_set_ca
 .text.SetTeeSmc32Params
                0x0000000000288a5c       0x64 lib/built-in.o
 .text.OpteeSmcCall
                0x0000000000288ac0       0x58 lib/built-in.o
 .text.TEEC_SMC_OpenSession
                0x0000000000288b18      0x158 lib/built-in.o
                0x0000000000288b18                TEEC_SMC_OpenSession
 .text.TEEC_SMC_CloseSession
                0x0000000000288c70       0x8c lib/built-in.o
                0x0000000000288c70                TEEC_SMC_CloseSession
 .text.TEEC_SMC_InvokeCommand
                0x0000000000288cfc       0xdc lib/built-in.o
                0x0000000000288cfc                TEEC_SMC_InvokeCommand
 .text.OpteeRpcAlloc
                0x0000000000288dd8       0x44 lib/built-in.o
                0x0000000000288dd8                OpteeRpcAlloc
 .text.OpteeRpcCmdLoadV2Ta
                0x0000000000288e1c       0x58 lib/built-in.o
                0x0000000000288e1c                OpteeRpcCmdLoadV2Ta
 .text.OpteeRpcCmdRpmb
                0x0000000000288e74      0x37c lib/built-in.o
                0x0000000000288e74                OpteeRpcCmdRpmb
 .text.OpteeRpcCmdFs
                0x00000000002891f0       0x10 lib/built-in.o
                0x00000000002891f0                OpteeRpcCmdFs
 .text.OpteeRpcCallback
                0x0000000000289200      0x178 lib/built-in.o
                0x0000000000289200                OpteeRpcCallback
 .text.get_rkss_version.part.0
                0x0000000000289378      0x104 lib/built-in.o
 .text.OpteeClientRkFsInit
                0x000000000028947c       0x64 lib/built-in.o
                0x000000000028947c                OpteeClientRkFsInit
 .text.OpteeClientRkFsProcess
                0x00000000002894e0       0x68 lib/built-in.o
                0x00000000002894e0                OpteeClientRkFsProcess
 .text.check_security_exist
                0x0000000000289548       0x84 lib/built-in.o
 .text.rkss_read_patition_tables
                0x00000000002895cc       0x5c lib/built-in.o
 .text.rkss_get_fileinfo_by_name
                0x0000000000289628      0x3a8 lib/built-in.o
 .text.rkss_get_dirs_by_name
                0x00000000002899d0      0x1c4 lib/built-in.o
 .text.rkss_read_multi_sections
                0x0000000000289b94       0x70 lib/built-in.o
 .text.rkss_get_fileinfo_by_index
                0x0000000000289c04      0x15c lib/built-in.o
 .text.rkss_backup_sections
                0x0000000000289d60      0x200 lib/built-in.o
 .text.rkss_write_multi_sections
                0x0000000000289f60       0x94 lib/built-in.o
 .text.rkss_write_empty_ptable
                0x0000000000289ff4      0x15c lib/built-in.o
 .text.rkss_decref_multi_usedflags_sections
                0x000000000028a150      0x294 lib/built-in.o
 .text.rkss_incref_multi_usedflags_sections
                0x000000000028a3e4      0x284 lib/built-in.o
 .text.rkss_begin_commit
                0x000000000028a668       0xa0 lib/built-in.o
 .text.rkss_finish_commit
                0x000000000028a708       0x74 lib/built-in.o
 .text.tee_fs_link
                0x000000000028a77c      0x248 lib/built-in.o
 .text.rkss_write_back_ptable
                0x000000000028a9c4      0x140 lib/built-in.o
 .text.tee_fs_write
                0x000000000028ab04      0x230 lib/built-in.o
 .text.tee_supp_rk_fs_init_v1
                0x000000000028ad34      0x3f0 lib/built-in.o
                0x000000000028ad34                tee_supp_rk_fs_init_v1
 .text.tee_supp_rk_fs_process_v1
                0x000000000028b124      0x624 lib/built-in.o
                0x000000000028b124                tee_supp_rk_fs_process_v1
 .text.rkss_storage_write
                0x000000000028b748      0x154 lib/built-in.o
 .text.rkss_write_area_empty_ptable
                0x000000000028b89c       0xdc lib/built-in.o
 .text.check_security_exist.constprop.11
                0x000000000028b978       0x70 lib/built-in.o
 .text.tee_supp_rk_fs_init_v2
                0x000000000028b9e8      0x330 lib/built-in.o
                0x000000000028b9e8                tee_supp_rk_fs_init_v2
 .text.tee_supp_rk_fs_process_v2
                0x000000000028bd18      0xb70 lib/built-in.o
                0x000000000028bd18                tee_supp_rk_fs_process_v2
 .text.avb_chain_partition_descriptor_validate_and_byteswap
                0x000000000028c888      0x2c0 lib/built-in.o
                0x000000000028c888                avb_chain_partition_descriptor_validate_and_byteswap
 .text.uint64_to_base10
                0x000000000028cb48       0x78 lib/built-in.o
 .text.cmdline_append_option.isra.0
                0x000000000028cbc0       0xf4 lib/built-in.o
 .text.avb_sub_cmdline
                0x000000000028ccb4      0x240 lib/built-in.o
                0x000000000028ccb4                avb_sub_cmdline
 .text.avb_append_options
                0x000000000028cef4      0x3e0 lib/built-in.o
                0x000000000028cef4                avb_append_options
 .text.avb_new_cmdline_subst_list
                0x000000000028d2d4        0x8 lib/built-in.o
                0x000000000028d2d4                avb_new_cmdline_subst_list
 .text.avb_free_cmdline_subst_list
                0x000000000028d2dc       0x5c lib/built-in.o
                0x000000000028d2dc                avb_free_cmdline_subst_list
 .text.avb_add_root_digest_substitution
                0x000000000028d338       0xcc lib/built-in.o
                0x000000000028d338                avb_add_root_digest_substitution
 .text.avb_get_algorithm_data
                0x000000000028d404       0x20 lib/built-in.o
                0x000000000028d404                avb_get_algorithm_data
 .text.avb_rsa_public_key_header_validate_and_byteswap
                0x000000000028d424       0xa8 lib/built-in.o
                0x000000000028d424                avb_rsa_public_key_header_validate_and_byteswap
 .text.count_descriptors
                0x000000000028d4cc       0x14 lib/built-in.o
 .text.set_descriptors
                0x000000000028d4e0       0x18 lib/built-in.o
 .text.avb_descriptor_validate_and_byteswap
                0x000000000028d4f8      0x160 lib/built-in.o
                0x000000000028d4f8                avb_descriptor_validate_and_byteswap
 .text.avb_descriptor_foreach
                0x000000000028d658      0x3c8 lib/built-in.o
                0x000000000028d658                avb_descriptor_foreach
 .text.avb_descriptor_get_all
                0x000000000028da20       0x84 lib/built-in.o
                0x000000000028da20                avb_descriptor_get_all
 .text.avb_footer_validate_and_byteswap
                0x000000000028daa4      0x2c0 lib/built-in.o
                0x000000000028daa4                avb_footer_validate_and_byteswap
 .text.avb_hash_descriptor_validate_and_byteswap
                0x000000000028dd64      0x358 lib/built-in.o
                0x000000000028dd64                avb_hash_descriptor_validate_and_byteswap
 .text.avb_hashtree_descriptor_validate_and_byteswap
                0x000000000028e0bc      0x638 lib/built-in.o
                0x000000000028e0bc                avb_hashtree_descriptor_validate_and_byteswap
 .text.avb_kernel_cmdline_descriptor_validate_and_byteswap
                0x000000000028e6f4      0x204 lib/built-in.o
                0x000000000028e6f4                avb_kernel_cmdline_descriptor_validate_and_byteswap
 .text.subM     0x000000000028e8f8       0x40 lib/built-in.o
 .text.montMul  0x000000000028e938       0xf4 lib/built-in.o
 .text.avb_rsa_verify
                0x000000000028ea2c      0x55c lib/built-in.o
                0x000000000028ea2c                avb_rsa_verify
 .text.avb_sha256_init
                0x000000000028ef88       0x8c lib/built-in.o
                0x000000000028ef88                avb_sha256_init
 .text.avb_sha256_update
                0x000000000028f014       0x10 lib/built-in.o
                0x000000000028f014                avb_sha256_update
 .text.avb_sha256_final
                0x000000000028f024       0x38 lib/built-in.o
                0x000000000028f024                avb_sha256_final
 .text.SHA512_transform
                0x000000000028f05c      0x1c0 lib/built-in.o
 .text.avb_sha512_init
                0x000000000028f21c       0xa8 lib/built-in.o
                0x000000000028f21c                avb_sha512_init
 .text.avb_sha512_update
                0x000000000028f2c4       0xc4 lib/built-in.o
                0x000000000028f2c4                avb_sha512_update
 .text.avb_sha512_final
                0x000000000028f388      0x114 lib/built-in.o
                0x000000000028f388                avb_sha512_final
 .text.avb_memcmp
                0x000000000028f49c        0x4 lib/built-in.o
                0x000000000028f49c                avb_memcmp
 .text.avb_memcpy
                0x000000000028f4a0        0x4 lib/built-in.o
                0x000000000028f4a0                avb_memcpy
 .text.avb_memset
                0x000000000028f4a4        0x4 lib/built-in.o
                0x000000000028f4a4                avb_memset
 .text.avb_strcmp
                0x000000000028f4a8        0x4 lib/built-in.o
                0x000000000028f4a8                avb_strcmp
 .text.avb_strncmp
                0x000000000028f4ac        0x4 lib/built-in.o
                0x000000000028f4ac                avb_strncmp
 .text.avb_strlen
                0x000000000028f4b0        0x4 lib/built-in.o
                0x000000000028f4b0                avb_strlen
 .text.avb_abort
                0x000000000028f4b4        0x4 lib/built-in.o
                0x000000000028f4b4                avb_abort
 .text.avb_printv
                0x000000000028f4b8       0x98 lib/built-in.o
                0x000000000028f4b8                avb_printv
 .text.avb_malloc_
                0x000000000028f550        0x4 lib/built-in.o
                0x000000000028f550                avb_malloc_
 .text.avb_free
                0x000000000028f554        0x4 lib/built-in.o
                0x000000000028f554                avb_free
 .text.avb_div_by_10
                0x000000000028f558       0x18 lib/built-in.o
                0x000000000028f558                avb_div_by_10
 .text.load_full_partition
                0x000000000028f570      0x1a8 lib/built-in.o
 .text.read_persistent_digest
                0x000000000028f718      0x32c lib/built-in.o
 .text.load_and_verify_vbmeta
                0x000000000028fa44     0x13dc lib/built-in.o
 .text.avb_slot_verify_data_free
                0x0000000000290e20       0xd8 lib/built-in.o
                0x0000000000290e20                avb_slot_verify_data_free
 .text.avb_slot_verify_data_calculate_vbmeta_digest
                0x0000000000290ef8      0x180 lib/built-in.o
                0x0000000000290ef8                avb_slot_verify_data_calculate_vbmeta_digest
 .text.avb_slot_verify
                0x0000000000291078      0x63c lib/built-in.o
                0x0000000000291078                avb_slot_verify
 .text.avb_be32toh
                0x00000000002916b4        0x8 lib/built-in.o
                0x00000000002916b4                avb_be32toh
 .text.avb_be64toh
                0x00000000002916bc        0x8 lib/built-in.o
                0x00000000002916bc                avb_be64toh
 .text.avb_safe_memcmp
                0x00000000002916c4       0x40 lib/built-in.o
                0x00000000002916c4                avb_safe_memcmp
 .text.avb_validate_utf8
                0x0000000000291704       0x84 lib/built-in.o
                0x0000000000291704                avb_validate_utf8
 .text.avb_strstr
                0x0000000000291788       0x4c lib/built-in.o
                0x0000000000291788                avb_strstr
 .text.avb_strv_find_str
                0x00000000002917d4       0x60 lib/built-in.o
                0x00000000002917d4                avb_strv_find_str
 .text.avb_basename
                0x0000000000291834       0x50 lib/built-in.o
                0x0000000000291834                avb_basename
 .text.avb_safe_add_to
                0x0000000000291884       0x64 lib/built-in.o
                0x0000000000291884                avb_safe_add_to
 .text.avb_safe_add
                0x00000000002918e8       0x24 lib/built-in.o
                0x00000000002918e8                avb_safe_add
 .text.avb_str_concat
                0x000000000029190c      0x110 lib/built-in.o
                0x000000000029190c                avb_str_concat
 .text.avb_malloc
                0x0000000000291a1c       0x5c lib/built-in.o
                0x0000000000291a1c                avb_malloc
 .text.avb_calloc
                0x0000000000291a78       0x38 lib/built-in.o
                0x0000000000291a78                avb_calloc
 .text.avb_strdup
                0x0000000000291ab0       0x48 lib/built-in.o
                0x0000000000291ab0                avb_strdup
 .text.avb_replace
                0x0000000000291af8      0x1a0 lib/built-in.o
                0x0000000000291af8                avb_replace
 .text.avb_strdupv
                0x0000000000291c98      0x1a0 lib/built-in.o
                0x0000000000291c98                avb_strdupv
 .text.avb_uppercase
                0x0000000000291e38       0x2c lib/built-in.o
                0x0000000000291e38                avb_uppercase
 .text.avb_bin2hex
                0x0000000000291e64       0xa8 lib/built-in.o
                0x0000000000291e64                avb_bin2hex
 .text.avb_vbmeta_image_header_to_host_byte_order
                0x0000000000291f0c      0x768 lib/built-in.o
                0x0000000000291f0c                avb_vbmeta_image_header_to_host_byte_order
 .text.avb_vbmeta_image_verify
                0x0000000000292674      0x614 lib/built-in.o
                0x0000000000292674                avb_vbmeta_image_verify
 .text.avb_vbmeta_verify_result_to_string
                0x0000000000292c88       0x64 lib/built-in.o
                0x0000000000292c88                avb_vbmeta_verify_result_to_string
 .text.avb_version_string
                0x0000000000292cec        0xc lib/built-in.o
                0x0000000000292cec                avb_version_string
 .text.sha256   0x0000000000292cf8       0x60 lib/built-in.o
 .text.avb_atx_generate_unlock_challenge
                0x0000000000292d58      0x110 lib/built-in.o
                0x0000000000292d58                avb_atx_generate_unlock_challenge
 .text.validate_vbmeta_public_key
                0x0000000000292e68       0x14 lib/built-in.o
 .text.validate_public_key_for_partition
                0x0000000000292e7c       0x18 lib/built-in.o
                0x0000000000292e7c                validate_public_key_for_partition
 .text.avb_read_perm_attr
                0x0000000000292e94       0x2c lib/built-in.o
                0x0000000000292e94                avb_read_perm_attr
 .text.avb_read_perm_attr_hash
                0x0000000000292ec0       0x24 lib/built-in.o
                0x0000000000292ec0                avb_read_perm_attr_hash
 .text.rk_get_random
                0x0000000000292ee4       0x54 lib/built-in.o
                0x0000000000292ee4                rk_get_random
 .text.avb_set_key_version
                0x0000000000292f38       0x78 lib/built-in.o
 .text.byte_to_block.isra.0
                0x0000000000292fb0       0x5c lib/built-in.o
 .text.write_to_partition
                0x000000000029300c      0x138 lib/built-in.o
 .text.write_rollback_index
                0x0000000000293144       0x38 lib/built-in.o
 .text.read_rollback_index
                0x000000000029317c       0xbc lib/built-in.o
 .text.get_preloaded_partition
                0x0000000000293238       0xb0 lib/built-in.o
 .text.get_size_of_partition
                0x00000000002932e8       0x74 lib/built-in.o
 .text.read_from_partition
                0x000000000029335c      0x170 lib/built-in.o
 .text.get_unique_guid_for_partition
                0x00000000002934cc       0x90 lib/built-in.o
 .text.write_is_device_unlocked
                0x000000000029355c       0x40 lib/built-in.o
 .text.read_is_device_unlocked
                0x000000000029359c       0xac lib/built-in.o
 .text.avb_ops_user_new
                0x0000000000293648      0x170 lib/built-in.o
                0x0000000000293648                avb_ops_user_new
 .text.avb_ops_user_free
                0x00000000002937b8       0x30 lib/built-in.o
                0x00000000002937b8                avb_ops_user_free
 .text.rk_avb_get_perm_attr_cer
                0x00000000002937e8       0x30 lib/built-in.o
                0x00000000002937e8                rk_avb_get_perm_attr_cer
 .text.rk_avb_set_perm_attr_cer
                0x0000000000293818       0x20 lib/built-in.o
                0x0000000000293818                rk_avb_set_perm_attr_cer
 .text.rk_avb_read_permanent_attributes
                0x0000000000293838       0x30 lib/built-in.o
                0x0000000000293838                rk_avb_read_permanent_attributes
 .text.rk_avb_write_permanent_attributes
                0x0000000000293868       0x30 lib/built-in.o
                0x0000000000293868                rk_avb_write_permanent_attributes
 .text.rk_avb_read_flash_lock_state
                0x0000000000293898       0xc0 lib/built-in.o
                0x0000000000293898                rk_avb_read_flash_lock_state
 .text.rk_avb_write_flash_lock_state
                0x0000000000293958       0x30 lib/built-in.o
                0x0000000000293958                rk_avb_write_flash_lock_state
 .text.rk_avb_write_lock_state
                0x0000000000293988       0x30 lib/built-in.o
                0x0000000000293988                rk_avb_write_lock_state
 .text.rk_avb_read_lock_state
                0x00000000002939b8       0xc0 lib/built-in.o
                0x00000000002939b8                rk_avb_read_lock_state
 .text.rk_avb_write_perm_attr_flag
                0x0000000000293a78       0x30 lib/built-in.o
                0x0000000000293a78                rk_avb_write_perm_attr_flag
 .text.rk_avb_read_perm_attr_flag
                0x0000000000293aa8       0xc0 lib/built-in.o
                0x0000000000293aa8                rk_avb_read_perm_attr_flag
 .text.rk_avb_write_vbootkey_hash
                0x0000000000293b68       0x34 lib/built-in.o
                0x0000000000293b68                rk_avb_write_vbootkey_hash
 .text.rk_avb_read_attribute_hash
                0x0000000000293b9c       0x34 lib/built-in.o
                0x0000000000293b9c                rk_avb_read_attribute_hash
 .text.rk_avb_write_attribute_hash
                0x0000000000293bd0       0x34 lib/built-in.o
                0x0000000000293bd0                rk_avb_write_attribute_hash
 .text.rk_avb_read_all_rollback_index
                0x0000000000293c04      0x258 lib/built-in.o
                0x0000000000293c04                rk_avb_read_all_rollback_index
 .text.rk_avb_read_bootloader_locked_flag
                0x0000000000293e5c       0x1c lib/built-in.o
                0x0000000000293e5c                rk_avb_read_bootloader_locked_flag
 .text.rk_bootloader_rollback_index_read
                0x0000000000293e78      0x124 lib/built-in.o
                0x0000000000293e78                rk_bootloader_rollback_index_read
 .text.rk_avb_get_bootloader_min_version
                0x0000000000293f9c      0x194 lib/built-in.o
                0x0000000000293f9c                rk_avb_get_bootloader_min_version
 .text.rk_avb_get_at_vboot_state
                0x0000000000294130      0x2e4 lib/built-in.o
                0x0000000000294130                rk_avb_get_at_vboot_state
 .text.rk_avb_get_ab_info
                0x0000000000294414       0xa4 lib/built-in.o
                0x0000000000294414                rk_avb_get_ab_info
 .text.rk_avb_get_part_has_slot_info
                0x00000000002944b8      0x110 lib/built-in.o
                0x00000000002944b8                rk_avb_get_part_has_slot_info
 .text.rk_generate_unlock_challenge
                0x00000000002945c8       0x98 lib/built-in.o
                0x00000000002945c8                rk_generate_unlock_challenge
 .text.rk_avb_init_ab_metadata
                0x0000000000294660       0x94 lib/built-in.o
                0x0000000000294660                rk_avb_init_ab_metadata
 .text.rk_avb_write_perm_attr
                0x00000000002946f4      0x1d4 lib/built-in.o
                0x00000000002946f4                rk_avb_write_perm_attr
 .text.rk_avb_read_perm_attr
                0x00000000002948c8       0x30 lib/built-in.o
                0x00000000002948c8                rk_avb_read_perm_attr
 .text.slot_is_bootable
                0x00000000002948f8       0x30 lib/built-in.o
 .text.slot_normalize
                0x0000000000294928       0x30 lib/built-in.o
 .text.save_metadata_if_changed
                0x0000000000294958       0x3c lib/built-in.o
                0x0000000000294958                save_metadata_if_changed
 .text.avb_ab_data_verify_and_byteswap
                0x0000000000294994      0x108 lib/built-in.o
                0x0000000000294994                avb_ab_data_verify_and_byteswap
 .text.avb_ab_data_update_crc_and_byteswap
                0x0000000000294a9c       0x5c lib/built-in.o
                0x0000000000294a9c                avb_ab_data_update_crc_and_byteswap
 .text.avb_ab_data_init
                0x0000000000294af8       0x70 lib/built-in.o
                0x0000000000294af8                avb_ab_data_init
 .text.avb_ab_data_write
                0x0000000000294b68       0x68 lib/built-in.o
                0x0000000000294b68                avb_ab_data_write
 .text.avb_ab_data_read
                0x0000000000294bd0       0xb8 lib/built-in.o
                0x0000000000294bd0                avb_ab_data_read
 .text.load_metadata
                0x0000000000294c88       0x6c lib/built-in.o
                0x0000000000294c88                load_metadata
 .text.rk_avb_read_slot_count
                0x0000000000294cf4       0x10 lib/built-in.o
                0x0000000000294cf4                rk_avb_read_slot_count
 .text.rk_avb_read_slot_suffixes
                0x0000000000294d04       0x40 lib/built-in.o
                0x0000000000294d04                rk_avb_read_slot_suffixes
 .text.avb_ab_mark_slot_active
                0x0000000000294d44       0x80 lib/built-in.o
                0x0000000000294d44                avb_ab_mark_slot_active
 .text.rk_avb_set_slot_active
                0x0000000000294dc4       0x70 lib/built-in.o
                0x0000000000294dc4                rk_avb_set_slot_active
 .text.rk_avb_ab_slot_select
                0x0000000000294e34       0xf4 lib/built-in.o
                0x0000000000294e34                rk_avb_ab_slot_select
 .text.rk_avb_get_current_slot
                0x0000000000294f28       0x58 lib/built-in.o
                0x0000000000294f28                rk_avb_get_current_slot
 .text.sha1_process
                0x0000000000294f80     0x154c lib/built-in.o
 .text.sha1_update.part.0
                0x00000000002964cc      0x10c lib/built-in.o
 .text.sha1_starts
                0x00000000002965d8       0x44 lib/built-in.o
                0x00000000002965d8                sha1_starts
 .text.sha1_update
                0x000000000029661c        0xc lib/built-in.o
                0x000000000029661c                sha1_update
 .text.sha1_finish
                0x0000000000296628      0x154 lib/built-in.o
                0x0000000000296628                sha1_finish
 .text.sha1_csum_wd
                0x000000000029677c       0x4c lib/built-in.o
                0x000000000029677c                sha1_csum_wd
 .text.zcalloc  0x00000000002967c8        0x8 lib/built-in.o
                0x00000000002967c8                zcalloc
 .text.zcfree   0x00000000002967d0        0x8 lib/built-in.o
                0x00000000002967d0                zcfree
 .text.inflate_fast
                0x00000000002967d8      0x504 lib/built-in.o
                0x00000000002967d8                inflate_fast
 .text.inflate_table
                0x0000000000296cdc      0x42c lib/built-in.o
                0x0000000000296cdc                inflate_table
 .text.inflateReset
                0x0000000000297108       0x60 lib/built-in.o
                0x0000000000297108                inflateReset
 .text.inflateInit2_
                0x0000000000297168      0x104 lib/built-in.o
                0x0000000000297168                inflateInit2_
 .text.inflateEnd
                0x000000000029726c       0x64 lib/built-in.o
                0x000000000029726c                inflateEnd
 .text.adler32  0x00000000002972d0      0x30c lib/built-in.o
                0x00000000002972d0                adler32
 .text.inflate  0x00000000002975dc     0x1334 lib/built-in.o
                0x00000000002975dc                inflate
 .text.gzalloc  0x0000000000298910       0x10 lib/built-in.o
                0x0000000000298910                gzalloc
 .text.gzfree   0x0000000000298920        0x8 lib/built-in.o
                0x0000000000298920                gzfree
 .text.gzip_parse_header
                0x0000000000298928       0xac lib/built-in.o
                0x0000000000298928                gzip_parse_header
 .text.zunzip   0x00000000002989d4      0x11c lib/built-in.o
                0x00000000002989d4                zunzip
 .text.gunzip   0x0000000000298af0       0x68 lib/built-in.o
                0x0000000000298af0                gunzip
 .text.get_prop_check_min_len
                0x0000000000298b58       0x48 lib/built-in.o
 .text.fdtdec_get_is_enabled
                0x0000000000298ba0       0x40 lib/built-in.o
                0x0000000000298ba0                fdtdec_get_is_enabled
 .text.fdtdec_get_alias_seq
                0x0000000000298be0      0x128 lib/built-in.o
                0x0000000000298be0                fdtdec_get_alias_seq
 .text.fdtdec_prepare_fdt
                0x0000000000298d08       0x44 lib/built-in.o
                0x0000000000298d08                fdtdec_prepare_fdt
 .text.fdtdec_get_int_array
                0x0000000000298d4c       0x60 lib/built-in.o
                0x0000000000298d4c                fdtdec_get_int_array
 .text.fdtdec_parse_phandle_with_args
                0x0000000000298dac      0x150 lib/built-in.o
                0x0000000000298dac                fdtdec_parse_phandle_with_args
 .text.fdtdec_get_config_int
                0x0000000000298efc       0x58 lib/built-in.o
                0x0000000000298efc                fdtdec_get_config_int
 .text.fdtdec_get_config_string
                0x0000000000298f54       0x4c lib/built-in.o
                0x0000000000298f54                fdtdec_get_config_string
 .text.fdtdec_get_number
                0x0000000000298fa0       0x30 lib/built-in.o
                0x0000000000298fa0                fdtdec_get_number
 .text.fdtdec_get_addr_size_fixed
                0x0000000000298fd0       0xc4 lib/built-in.o
                0x0000000000298fd0                fdtdec_get_addr_size_fixed
 .text.fdtdec_get_addr_size_auto_parent
                0x0000000000299094       0xa8 lib/built-in.o
                0x0000000000299094                fdtdec_get_addr_size_auto_parent
 .text.fdtdec_get_addr_size_auto_noparent
                0x000000000029913c       0x7c lib/built-in.o
                0x000000000029913c                fdtdec_get_addr_size_auto_noparent
 .text.fdtdec_get_addr_size
                0x00000000002991b8       0x20 lib/built-in.o
                0x00000000002991b8                fdtdec_get_addr_size
 .text.fdt_get_resource
                0x00000000002991d8      0x10c lib/built-in.o
                0x00000000002991d8                fdt_get_resource
 .text.fdtdec_setup
                0x00000000002992e4       0x54 lib/built-in.o
                0x00000000002992e4                fdtdec_setup
 .text.cmpkey   0x0000000000299338       0x14 lib/built-in.o
 .text._hdelete.isra.0
                0x000000000029934c       0x64 lib/built-in.o
 .text.drop_var_from_set.part.1
                0x00000000002993b0       0x6c lib/built-in.o
 .text.match_string
                0x000000000029941c       0xd0 lib/built-in.o
 .text.match_entry
                0x00000000002994ec       0xd4 lib/built-in.o
 .text.hcreate_r
                0x00000000002995c0       0x90 lib/built-in.o
                0x00000000002995c0                hcreate_r
 .text.hdestroy_r
                0x0000000000299650       0x88 lib/built-in.o
                0x0000000000299650                hdestroy_r
 .text.hmatch_r
                0x00000000002996d8       0xb8 lib/built-in.o
                0x00000000002996d8                hmatch_r
 .text.hsearch_r
                0x0000000000299790      0x41c lib/built-in.o
                0x0000000000299790                hsearch_r
 .text.hdelete_r
                0x0000000000299bac       0xf4 lib/built-in.o
                0x0000000000299bac                hdelete_r
 .text.hexport_r
                0x0000000000299ca0      0x294 lib/built-in.o
                0x0000000000299ca0                hexport_r
 .text.himport_r
                0x0000000000299f34      0x3a8 lib/built-in.o
                0x0000000000299f34                himport_r
 .text.hwalk_r  0x000000000029a2dc       0x70 lib/built-in.o
                0x000000000029a2dc                hwalk_r
 .text.display_options_get_banner_priv
                0x000000000029a34c       0xb8 lib/built-in.o
                0x000000000029a34c                display_options_get_banner_priv
 .text.display_options_get_banner
                0x000000000029a404       0x10 lib/built-in.o
                0x000000000029a404                display_options_get_banner
 .text.display_options
                0x000000000029a414       0x34 lib/built-in.o
                0x000000000029a414                display_options
 .text.print_size
                0x000000000029a448       0xf0 lib/built-in.o
                0x000000000029a448                print_size
 .text.print_buffer
                0x000000000029a538      0x1e8 lib/built-in.o
                0x000000000029a538                print_buffer
 .text.crc32_no_comp
                0x000000000029a720       0xd4 lib/built-in.o
                0x000000000029a720                crc32_no_comp
 .text.crc32    0x000000000029a7f4       0x1c lib/built-in.o
                0x000000000029a7f4                crc32
 .text.crc32_wd
                0x000000000029a810        0x4 lib/built-in.o
                0x000000000029a810                crc32_wd
 .text.crc32_wd_buf
                0x000000000029a814       0x3c lib/built-in.o
                0x000000000029a814                crc32_wd_buf
 .text.hang     0x000000000029a850       0x20 lib/built-in.o
                0x000000000029a850                hang
 .text.kmalloc  0x000000000029a870       0x44 lib/built-in.o
                0x000000000029a870                kmalloc
 .text.skip_spaces
                0x000000000029a8b4       0x20 lib/built-in.o
                0x000000000029a8b4                skip_spaces
 .text.strim    0x000000000029a8d4       0x5c lib/built-in.o
                0x000000000029a8d4                strim
 .text.emit     0x000000000029a930       0x2c lib/built-in.o
 .text.store_char_in_data
                0x000000000029a95c       0x30 lib/built-in.o
 .text.get_escape_char
                0x000000000029a98c       0x88 lib/built-in.o
 .text.relocate
                0x000000000029aa14       0x58 lib/built-in.o
 .text.match    0x000000000029aa6c      0x3f0 lib/built-in.o
 .text.loop_greedy
                0x000000000029ae5c       0xb4 lib/built-in.o
 .text.loop_non_greedy
                0x000000000029af10       0xa0 lib/built-in.o
 .text.quantifier
                0x000000000029afb0       0xbc lib/built-in.o
 .text.fixup_branch
                0x000000000029b06c       0x54 lib/built-in.o
 .text.compile  0x000000000029b0c0      0x378 lib/built-in.o
 .text.slre_compile
                0x000000000029b438       0xd4 lib/built-in.o
                0x000000000029b438                slre_compile
 .text.slre_match
                0x000000000029b50c       0xa4 lib/built-in.o
                0x000000000029b50c                slre_match
 .text.strncasecmp
                0x000000000029b5b0       0x74 lib/built-in.o
                0x000000000029b5b0                strncasecmp
 .text.strcasecmp
                0x000000000029b624        0x8 lib/built-in.o
                0x000000000029b624                strcasecmp
 .text.strcpy   0x000000000029b62c       0x18 lib/built-in.o
                0x000000000029b62c                strcpy
 .text.strncpy  0x000000000029b644       0x20 lib/built-in.o
                0x000000000029b644                strncpy
 .text.strcat   0x000000000029b664       0x30 lib/built-in.o
                0x000000000029b664                strcat
 .text.strncat  0x000000000029b694       0x40 lib/built-in.o
                0x000000000029b694                strncat
 .text.strcmp   0x000000000029b6d4       0x28 lib/built-in.o
                0x000000000029b6d4                strcmp
 .text.strncmp  0x000000000029b6fc       0x38 lib/built-in.o
                0x000000000029b6fc                strncmp
 .text.strchr   0x000000000029b734       0x28 lib/built-in.o
                0x000000000029b734                strchr
 .text.strchrnul
                0x000000000029b75c       0x20 lib/built-in.o
                0x000000000029b75c                strchrnul
 .text.strlen   0x000000000029b77c       0x1c lib/built-in.o
                0x000000000029b77c                strlen
 .text.strrchr  0x000000000029b798       0x40 lib/built-in.o
                0x000000000029b798                strrchr
 .text.strnlen  0x000000000029b7d8       0x28 lib/built-in.o
                0x000000000029b7d8                strnlen
 .text.strcspn  0x000000000029b800       0x38 lib/built-in.o
                0x000000000029b800                strcspn
 .text.strdup   0x000000000029b838       0x44 lib/built-in.o
                0x000000000029b838                strdup
 .text.strspn   0x000000000029b87c       0x38 lib/built-in.o
                0x000000000029b87c                strspn
 .text.strpbrk  0x000000000029b8b4       0x34 lib/built-in.o
                0x000000000029b8b4                strpbrk
 .text.strtok   0x000000000029b8e8       0x78 lib/built-in.o
                0x000000000029b8e8                strtok
 .text.strsep   0x000000000029b960       0x3c lib/built-in.o
                0x000000000029b960                strsep
 .text.memset   0x000000000029b99c       0x6c lib/built-in.o
                0x000000000029b99c                memset
 .text.memcpy   0x000000000029ba08       0x6c lib/built-in.o
                0x000000000029ba08                memcpy
 .text.memmove  0x000000000029ba74       0x58 lib/built-in.o
                0x000000000029ba74                memmove
 .text.memcmp   0x000000000029bacc       0x30 lib/built-in.o
                0x000000000029bacc                memcmp
 .text.strstr   0x000000000029bafc       0x68 lib/built-in.o
                0x000000000029bafc                strstr
 .text.memchr   0x000000000029bb64       0x30 lib/built-in.o
                0x000000000029bb64                memchr
 .text.memchr_inv
                0x000000000029bb94       0xe4 lib/built-in.o
                0x000000000029bb94                memchr_inv
 .text.atol     0x000000000029bc78       0x74 lib/built-in.o
                0x000000000029bc78                atol
 .text.atoi     0x000000000029bcec       0x14 lib/built-in.o
                0x000000000029bcec                atoi
 .text.timer_init
                0x000000000029bd00        0x8 lib/built-in.o
                0x000000000029bd00                timer_init
 .text.get_timer
                0x000000000029bd08       0x3c lib/built-in.o
                0x000000000029bd08                get_timer
 .text.timer_get_us
                0x000000000029bd44       0x38 lib/built-in.o
                0x000000000029bd44                timer_get_us
 .text.__udelay
                0x000000000029bd7c       0x4c lib/built-in.o
                0x000000000029bd7c                __udelay
 .text.udelay   0x000000000029bdc8       0x44 lib/built-in.o
                0x000000000029bdc8                udelay
 .text.print_hex_dump
                0x000000000029be0c        0x4 lib/built-in.o
                0x000000000029be0c                print_hex_dump
 .text.uuid_str_valid
                0x000000000029be10       0x84 lib/built-in.o
                0x000000000029be10                uuid_str_valid
 .text.uuid_str_to_bin
                0x000000000029be94      0x18c lib/built-in.o
                0x000000000029be94                uuid_str_to_bin
 .text.uuid_bin_to_str
                0x000000000029c020       0xd4 lib/built-in.o
                0x000000000029c020                uuid_bin_to_str
 .text.gen_rand_uuid
                0x000000000029c0f4       0x78 lib/built-in.o
                0x000000000029c0f4                gen_rand_uuid
 .text.gen_rand_uuid_str
                0x000000000029c16c       0x3c lib/built-in.o
                0x000000000029c16c                gen_rand_uuid_str
 .text.rand_r   0x000000000029c1a8       0x1c lib/built-in.o
                0x000000000029c1a8                rand_r
 .text.rand     0x000000000029c1c4        0xc lib/built-in.o
                0x000000000029c1c4                rand
 .text.srand    0x000000000029c1d0        0xc lib/built-in.o
                0x000000000029c1d0                srand
 .text.put_dec_trunc
                0x000000000029c1dc       0xe0 lib/built-in.o
 .text.put_dec  0x000000000029c2bc       0xd0 lib/built-in.o
 .text.number   0x000000000029c38c      0x2cc lib/built-in.o
 .text.string   0x000000000029c658       0xdc lib/built-in.o
 .text.vsnprintf_internal
                0x000000000029c734      0xa68 lib/built-in.o
 .text.vscnprintf
                0x000000000029d19c       0x74 lib/built-in.o
                0x000000000029d19c                vscnprintf
 .text.snprintf
                0x000000000029d210       0x7c lib/built-in.o
                0x000000000029d210                snprintf
 .text.vsprintf
                0x000000000029d28c       0x44 lib/built-in.o
                0x000000000029d28c                vsprintf
 .text.sprintf  0x000000000029d2d0       0x74 lib/built-in.o
                0x000000000029d2d0                sprintf
 .text.printf   0x000000000029d344       0xb4 lib/built-in.o
                0x000000000029d344                printf
 .text.vprintf  0x000000000029d3f8       0x54 lib/built-in.o
                0x000000000029d3f8                vprintf
 .text.simple_itoa
                0x000000000029d44c       0x44 lib/built-in.o
                0x000000000029d44c                simple_itoa
 .text.str2off  0x000000000029d490       0x50 lib/built-in.o
                0x000000000029d490                str2off
 .text.panic    0x000000000029d4e0       0x7c lib/built-in.o
                0x000000000029d4e0                panic
 .text._parse_integer_fixup_radix
                0x000000000029d55c       0xac lib/built-in.o
 .text.simple_strtoul
                0x000000000029d608       0x98 lib/built-in.o
                0x000000000029d608                simple_strtoul
 .text.strict_strtoul
                0x000000000029d6a0       0x84 lib/built-in.o
                0x000000000029d6a0                strict_strtoul
 .text.simple_strtol
                0x000000000029d724       0x2c lib/built-in.o
                0x000000000029d724                simple_strtol
 .text.ustrtoul
                0x000000000029d750       0x7c lib/built-in.o
                0x000000000029d750                ustrtoul
 .text.simple_strtoull
                0x000000000029d7cc       0x98 lib/built-in.o
                0x000000000029d7cc                simple_strtoull
 .text.ustrtoull
                0x000000000029d864       0x7c lib/built-in.o
                0x000000000029d864                ustrtoull
 .text.trailing_strtoln
                0x000000000029d8e0       0x78 lib/built-in.o
                0x000000000029d8e0                trailing_strtoln
 .text.trailing_strtol
                0x000000000029d958        0x8 lib/built-in.o
                0x000000000029d958                trailing_strtol
 .text.compute_ip_checksum
                0x000000000029d960       0x88 net/built-in.o
                0x000000000029d960                compute_ip_checksum
 .text.ip_checksum_ok
                0x000000000029d9e8       0x1c net/built-in.o
                0x000000000029d9e8                ip_checksum_ok
 .text.arp_init
                0x000000000029da04       0x3c net/built-in.o
                0x000000000029da04                arp_init
 .text.arp_raw_request
                0x000000000029da40       0xec net/built-in.o
                0x000000000029da40                arp_raw_request
 .text.arp_request
                0x000000000029db2c       0x84 net/built-in.o
                0x000000000029db2c                arp_request
 .text.arp_timeout_check
                0x000000000029dbb0       0x90 net/built-in.o
                0x000000000029dbb0                arp_timeout_check
 .text.arp_receive
                0x000000000029dc40      0x228 net/built-in.o
                0x000000000029dc40                arp_receive
 .text.dhcp_extended
                0x000000000029de68      0x268 net/built-in.o
 .text.dhcp_process_options
                0x000000000029e0d0      0x22c net/built-in.o
 .text.dhcp_packet_process_options
                0x000000000029e2fc       0x88 net/built-in.o
 .text.dhcp_handler
                0x000000000029e384      0x3c0 net/built-in.o
 .text.bootp_reset
                0x000000000029e744       0x3c net/built-in.o
                0x000000000029e744                bootp_reset
 .text.bootp_request
                0x000000000029e780      0x278 net/built-in.o
                0x000000000029e780                bootp_request
 .text.bootp_timeout_handler
                0x000000000029e9f8       0x68 net/built-in.o
 .text.dhcp_request
                0x000000000029ea60        0x4 net/built-in.o
                0x000000000029ea60                dhcp_request
 .text.eth_get_uclass_priv
                0x000000000029ea64       0x24 net/built-in.o
 .text.eth_pre_remove
                0x000000000029ea88       0x40 net/built-in.o
 .text.eth_post_probe
                0x000000000029eac8      0x1d8 net/built-in.o
 .text.eth_write_hwaddr
                0x000000000029eca0       0xdc net/built-in.o
 .text.on_ethaddr
                0x000000000029ed7c       0x90 net/built-in.o
 .text.eth_post_bind
                0x000000000029ee0c       0x48 net/built-in.o
 .text.eth_set_current_to_next
                0x000000000029ee54       0x48 net/built-in.o
                0x000000000029ee54                eth_set_current_to_next
 .text.eth_get_dev
                0x000000000029ee9c       0x40 net/built-in.o
                0x000000000029ee9c                eth_get_dev
 .text.eth_set_dev
                0x000000000029eedc       0x44 net/built-in.o
                0x000000000029eedc                eth_set_dev
 .text.eth_pre_unbind
                0x000000000029ef20       0x38 net/built-in.o
 .text.eth_get_dev_by_name
                0x000000000029ef58       0xf8 net/built-in.o
                0x000000000029ef58                eth_get_dev_by_name
 .text.eth_get_ethaddr
                0x000000000029f050       0x24 net/built-in.o
                0x000000000029f050                eth_get_ethaddr
 .text.eth_halt_state_only
                0x000000000029f074       0x2c net/built-in.o
                0x000000000029f074                eth_halt_state_only
 .text.eth_get_dev_index
                0x000000000029f0a0       0x28 net/built-in.o
                0x000000000029f0a0                eth_get_dev_index
 .text.eth_init
                0x000000000029f0c8       0xf8 net/built-in.o
                0x000000000029f0c8                eth_init
 .text.eth_halt
                0x000000000029f1c0       0x48 net/built-in.o
                0x000000000029f1c0                eth_halt
 .text.eth_send
                0x000000000029f208       0x60 net/built-in.o
                0x000000000029f208                eth_send
 .text.eth_rx   0x000000000029f268       0xc8 net/built-in.o
                0x000000000029f268                eth_rx
 .text.eth_initialize
                0x000000000029f330      0x118 net/built-in.o
                0x000000000029f330                eth_initialize
 .text.eth_parse_enetaddr
                0x000000000029f448       0x70 net/built-in.o
                0x000000000029f448                eth_parse_enetaddr
 .text.eth_env_get_enetaddr
                0x000000000029f4b8       0x68 net/built-in.o
                0x000000000029f4b8                eth_env_get_enetaddr
 .text.eth_env_set_enetaddr
                0x000000000029f520       0x54 net/built-in.o
                0x000000000029f520                eth_env_set_enetaddr
 .text.eth_env_get_enetaddr_by_index
                0x000000000029f574       0x50 net/built-in.o
                0x000000000029f574                eth_env_get_enetaddr_by_index
 .text.eth_env_set_enetaddr_by_index
                0x000000000029f5c4       0x50 net/built-in.o
                0x000000000029f5c4                eth_env_set_enetaddr_by_index
 .text.eth_common_init
                0x000000000029f614       0x1c net/built-in.o
                0x000000000029f614                eth_common_init
 .text.eth_mac_skip
                0x000000000029f630       0x44 net/built-in.o
                0x000000000029f630                eth_mac_skip
 .text.eth_get_name
                0x000000000029f674       0x2c net/built-in.o
                0x000000000029f674                eth_get_name
 .text.eth_current_changed
                0x000000000029f6a0       0x94 net/built-in.o
                0x000000000029f6a0                eth_current_changed
 .text.eth_try_another
                0x000000000029f734       0x80 net/built-in.o
                0x000000000029f734                eth_try_another
 .text.eth_set_current
                0x000000000029f7b4       0x8c net/built-in.o
                0x000000000029f7b4                eth_set_current
 .text.net_clear_handlers
                0x000000000029f840       0x24 net/built-in.o
 .text.start_again_timeout_handler
                0x000000000029f864       0x10 net/built-in.o
 .text.dummy_handler
                0x000000000029f874        0x4 net/built-in.o
 .text.on_ipaddr
                0x000000000029f878       0x34 net/built-in.o
 .text.on_gatewayip
                0x000000000029f8ac       0x34 net/built-in.o
 .text.on_netmask
                0x000000000029f8e0       0x34 net/built-in.o
 .text.on_serverip
                0x000000000029f914       0x34 net/built-in.o
 .text.net_init_loop.part.0
                0x000000000029f948       0x24 net/built-in.o
 .text.net_auto_load
                0x000000000029f96c       0x70 net/built-in.o
                0x000000000029f96c                net_auto_load
 .text.net_init
                0x000000000029f9dc       0x84 net/built-in.o
                0x000000000029f9dc                net_init
 .text.net_start_again
                0x000000000029fa60      0x14c net/built-in.o
                0x000000000029fa60                net_start_again
 .text.net_loop
                0x000000000029fbac      0x304 net/built-in.o
                0x000000000029fbac                net_loop
 .text.net_set_udp_handler
                0x000000000029feb0       0x18 net/built-in.o
                0x000000000029feb0                net_set_udp_handler
 .text.net_get_arp_handler
                0x000000000029fec8        0xc net/built-in.o
                0x000000000029fec8                net_get_arp_handler
 .text.net_set_timeout_handler
                0x000000000029fed4       0x54 net/built-in.o
                0x000000000029fed4                net_set_timeout_handler
 .text.net_process_received_packet
                0x000000000029ff28      0x2cc net/built-in.o
                0x000000000029ff28                net_process_received_packet
 .text.net_eth_hdr_size
                0x00000000002a01f4       0x40 net/built-in.o
                0x00000000002a01f4                net_eth_hdr_size
 .text.net_set_ether
                0x00000000002a0234       0xc0 net/built-in.o
                0x00000000002a0234                net_set_ether
 .text.net_update_ether
                0x00000000002a02f4       0xa8 net/built-in.o
                0x00000000002a02f4                net_update_ether
 .text.net_set_ip_header
                0x00000000002a039c       0xa0 net/built-in.o
                0x00000000002a039c                net_set_ip_header
 .text.net_set_udp_header
                0x00000000002a043c       0xc0 net/built-in.o
                0x00000000002a043c                net_set_udp_header
 .text.net_send_udp_packet
                0x00000000002a04fc      0x110 net/built-in.o
                0x00000000002a04fc                net_send_udp_packet
 .text.copy_filename
                0x00000000002a060c       0x50 net/built-in.o
                0x00000000002a060c                copy_filename
 .text.on_bootfile
                0x00000000002a065c       0x40 net/built-in.o
 .text.ip_to_string
                0x00000000002a069c       0x28 net/built-in.o
                0x00000000002a069c                ip_to_string
 .text.string_to_vlan
                0x00000000002a06c4       0x58 net/built-in.o
                0x00000000002a06c4                string_to_vlan
 .text.on_nvlan
                0x00000000002a071c       0x34 net/built-in.o
 .text.on_vlan  0x00000000002a0750       0x34 net/built-in.o
 .text.rpc_lookup_reply
                0x00000000002a0784       0xbc net/built-in.o
 .text.nfs_mount_reply
                0x00000000002a0840       0x9c net/built-in.o
 .text.nfs_umountall_reply
                0x00000000002a08dc       0x90 net/built-in.o
 .text.nfs_lookup_reply
                0x00000000002a096c      0x108 net/built-in.o
 .text.nfs3_get_attributes_offset
                0x00000000002a0a74       0x14 net/built-in.o
 .text.nfs_readlink_reply
                0x00000000002a0a88      0x140 net/built-in.o
 .text.basename
                0x00000000002a0bc8       0x48 net/built-in.o
 .text.rpc_req  0x00000000002a0c10      0x128 net/built-in.o
 .text.nfs_read_req
                0x00000000002a0d38       0xe8 net/built-in.o
 .text.nfs_read_reply.isra.0
                0x00000000002a0e20      0x170 net/built-in.o
 .text.nfs_mount_req
                0x00000000002a0f90       0xb4 net/built-in.o
 .text.nfs_readlink_req
                0x00000000002a1044       0xc0 net/built-in.o
 .text.nfs_umountall_req
                0x00000000002a1104       0x6c net/built-in.o
 .text.nfs_lookup_req
                0x00000000002a1170      0x144 net/built-in.o
 .text.nfs_send
                0x00000000002a12b4      0x104 net/built-in.o
 .text.nfs_handler
                0x00000000002a13b8      0x234 net/built-in.o
 .text.nfs_timeout_handler
                0x00000000002a15ec       0x6c net/built-in.o
 .text.nfs_start
                0x00000000002a1658      0x148 net/built-in.o
                0x00000000002a1658                nfs_start
 .text.ping_timeout_handler
                0x00000000002a17a0       0x20 net/built-in.o
 .text.ping_start
                0x00000000002a17c0      0x13c net/built-in.o
                0x00000000002a17c0                ping_start
 .text.ping_receive
                0x00000000002a18fc      0x110 net/built-in.o
                0x00000000002a18fc                ping_receive
 .text.tftp_send
                0x00000000002a1a0c      0x1ac net/built-in.o
 .text.tftp_handler
                0x00000000002a1bb8      0x388 net/built-in.o
 .text.tftp_timeout_handler
                0x00000000002a1f40       0x84 net/built-in.o
 .text.tftp_start
                0x00000000002a1fc4      0x314 net/built-in.o
                0x00000000002a1fc4                tftp_start
 .text.do_rockchip_test
                0x00000000002a22d8      0x4b4 test/built-in.o
 .text.do_test_distro
                0x00000000002a278c       0x10 test/built-in.o
 .text.do_test_bootrkp
                0x00000000002a279c       0x10 test/built-in.o
 .text.do_test_android
                0x00000000002a27ac       0x10 test/built-in.o
 .text.do_test_android_avb
                0x00000000002a27bc       0x10 test/built-in.o
 .text.do_test_rockusb
                0x00000000002a27cc       0x10 test/built-in.o
 .text.do_test_fastboot
                0x00000000002a27dc       0x10 test/built-in.o
 .text.do_test_brom
                0x00000000002a27ec       0x10 test/built-in.o
 .text.do_test_tftp
                0x00000000002a27fc       0xa4 test/built-in.o
 .text.do_test_display
                0x00000000002a28a0       0x98 test/built-in.o
                0x00000000002a28a0                do_test_display
 .text.timer_irq_handler
                0x00000000002a2938       0x58 test/built-in.o
 .text.do_test_timer
                0x00000000002a2990      0x174 test/built-in.o
                0x00000000002a2990                do_test_timer
 .text.do_test_adc
                0x00000000002a2b04       0x84 test/built-in.o
 .text.do_test_crypto
                0x00000000002a2b88       0x10 test/built-in.o
 .text.do_test_key
                0x00000000002a2b98       0xcc test/built-in.o
                0x00000000002a2b98                do_test_key
 .text.eth_loopback_test
                0x00000000002a2c64      0x3a8 test/built-in.o
 .text.do_test_eth
                0x00000000002a300c      0x228 test/built-in.o
                0x00000000002a300c                do_test_eth
 .text.do_test_charge
                0x00000000002a3234        0x8 test/built-in.o
 .text.do_test_reset
                0x00000000002a323c       0x10 test/built-in.o
 .text.do_test_regulator
                0x00000000002a324c      0x1c4 test/built-in.o
 .text.do_test_vendor
                0x00000000002a3410        0x4 test/built-in.o
 .text.do_test_part
                0x00000000002a3414       0x10 test/built-in.o
 .text.do_test_secure_storage
                0x00000000002a3424       0x10 test/built-in.o
 .text.do_test_efuse
                0x00000000002a3434       0x98 test/built-in.o
 .text.do_test_storage.isra.1
                0x00000000002a34cc      0x430 test/built-in.o
 .text.do_test_sdmmc
                0x00000000002a38fc       0x1c test/built-in.o
 .text.do_test_usb
                0x00000000002a3918       0x38 test/built-in.o
 .text.do_test_emmc
                0x00000000002a3950       0x1c test/built-in.o
 .text.do_dm_dump_devres
                0x00000000002a396c        0x8 test/dm/built-in.o
 .text.do_dm    0x00000000002a3974       0x94 test/dm/built-in.o
 .text.do_dm_dump_aliases
                0x00000000002a3a08       0x18 test/dm/built-in.o
 .text.do_dm_dump_uclass
                0x00000000002a3a20       0x18 test/dm/built-in.o
 .text.do_dm_dump_all
                0x00000000002a3a38       0x18 test/dm/built-in.o
                0x00000000002a3a50                . = ALIGN (0x8)

.rodata         0x00000000002a3a50    0x37f10
 *(SORT_BY_ALIGNMENT(SORT_BY_NAME(.rodata*)))
 .rodata        0x00000000002a3a50       0x60 arch/arm/mach-rockchip/built-in.o
 .rodata        0x00000000002a3ab0       0x70 cmd/built-in.o
 .rodata        0x00000000002a3b20       0xa0 common/built-in.o
 .rodata        0x00000000002a3bc0      0x276 drivers/built-in.o
 *fill*         0x00000000002a3e36        0x2 
 .rodata.CSWTCH.11
                0x00000000002a3e38       0x40 disk/built-in.o
 .rodata.CSWTCH.184
                0x00000000002a3e78       0xe0 common/built-in.o
 .rodata.CSWTCH.31
                0x00000000002a3f58       0x18 drivers/usb/host/built-in.o
 .rodata.CSWTCH.34
                0x00000000002a3f70       0x28 cmd/built-in.o
 .rodata.CSWTCH.5
                0x00000000002a3f98       0x30 lib/built-in.o
 .rodata.CSWTCH.64
                0x00000000002a3fc8       0x18 common/built-in.o
 .rodata.CSWTCH.91
                0x00000000002a3fe0       0x18 drivers/usb/host/built-in.o
 .rodata.adc_key_bus_match
                0x00000000002a3ff8       0x20 drivers/built-in.o
 .rodata.analogix_dp_connector_funcs
                0x00000000002a4018       0x58 drivers/built-in.o
 .rodata.analogix_dp_ids
                0x00000000002a4070       0x50 drivers/built-in.o
 .rodata.apll_cfgs
                0x00000000002a40c0       0x18 drivers/built-in.o
 .rodata.arasan_data
                0x00000000002a40d8       0x18 drivers/built-in.o
 .rodata.arasan_sdhci_ids
                0x00000000002a40f0       0x30 drivers/built-in.o
 .rodata.asix_eth_id_table
                0x00000000002a4120      0x1a0 drivers/usb/eth/built-in.o
 .rodata.asix_eth_ops
                0x00000000002a42c0       0x38 drivers/usb/eth/built-in.o
 .rodata.ax88179_eth_id_table
                0x00000000002a42f8      0x100 drivers/usb/eth/built-in.o
 .rodata.ax88179_eth_ops
                0x00000000002a43f8       0x38 drivers/usb/eth/built-in.o
 .rodata.boot_os
                0x00000000002a4430       0xc0 common/built-in.o
 .rodata.cc_to_string
                0x00000000002a44f0       0x80 drivers/usb/host/built-in.o
 .rodata.charge_animation_ids
                0x00000000002a4570       0x20 drivers/power/built-in.o
 .rodata.charge_animation_ops
                0x00000000002a4590        0x8 drivers/power/built-in.o
 .rodata.charger_ids
                0x00000000002a4598       0x30 drivers/power/charge/built-in.o
 .rodata.clk_fixed_rate_match
                0x00000000002a45c8       0x20 drivers/built-in.o
 .rodata.clk_fixed_rate_ops
                0x00000000002a45e8       0x50 drivers/built-in.o
                0x00000000002a45e8                clk_fixed_rate_ops
 .rodata.clks_dump
                0x00000000002a4638      0x168 drivers/built-in.o
 .rodata.cmd_dispatch_info
                0x00000000002a47a0       0xb0 drivers/usb/gadget/built-in.o
 .rodata.cmd_groups
                0x00000000002a4850       0x38 test/built-in.o
 .rodata.cmd_grp_boot
                0x00000000002a4888       0x20 test/built-in.o
                0x00000000002a4888                cmd_grp_boot
 .rodata.cmd_grp_display
                0x00000000002a48a8       0x20 test/built-in.o
                0x00000000002a48a8                cmd_grp_display
 .rodata.cmd_grp_download
                0x00000000002a48c8       0x20 test/built-in.o
                0x00000000002a48c8                cmd_grp_download
 .rodata.cmd_grp_misc
                0x00000000002a48e8       0x20 test/built-in.o
                0x00000000002a48e8                cmd_grp_misc
 .rodata.cmd_grp_name
                0x00000000002a4908       0x58 test/built-in.o
 .rodata.cmd_grp_power
                0x00000000002a4960       0x20 test/built-in.o
                0x00000000002a4960                cmd_grp_power
 .rodata.cmd_grp_storage
                0x00000000002a4980       0x20 test/built-in.o
                0x00000000002a4980                cmd_grp_storage
 .rodata.common_tmds_n_table
                0x00000000002a49a0      0x3c0 drivers/built-in.o
 .rodata.desc_and_len_tbl
                0x00000000002a4d60       0x60 cmd/built-in.o
 .rodata.designware_eth_ids
                0x00000000002a4dc0       0x60 drivers/net/built-in.o
 .rodata.designware_eth_ops
                0x00000000002a4e20       0x38 drivers/net/built-in.o
                0x00000000002a4e20                designware_eth_ops
 .rodata.dm_dwmci_ops
                0x00000000002a4e58       0x30 drivers/built-in.o
                0x00000000002a4e58                dm_dwmci_ops
 .rodata.dw_hdmi_phys
                0x00000000002a4e88       0xe0 drivers/built-in.o
 .rodata.dw_hdmi_synopsys_phy_ops
                0x00000000002a4f68       0x20 drivers/built-in.o
 .rodata.dw_mipi_dsi_connector_funcs
                0x00000000002a4f88       0x58 drivers/built-in.o
 .rodata.dw_mipi_dsi_host_ops
                0x00000000002a4fe0       0x18 drivers/built-in.o
 .rodata.dw_mipi_dsi_ids
                0x00000000002a4ff8       0xb0 drivers/built-in.o
 .rodata.dwc3_gadget_ep0_ops
                0x00000000002a50a8       0x50 drivers/usb/dwc3/built-in.o
 .rodata.dwc3_gadget_ep_ops
                0x00000000002a50f8       0x50 drivers/usb/dwc3/built-in.o
 .rodata.dwc3_gadget_ops
                0x00000000002a5148       0x58 drivers/usb/dwc3/built-in.o
 .rodata.ehci_usb_ids
                0x00000000002a51a0       0x20 drivers/usb/host/built-in.o
 .rodata.fdt_errtable
                0x00000000002a51c0       0x90 lib/built-in.o
 .rodata.fixed_regulator_ids
                0x00000000002a5250       0x20 drivers/power/regulator/built-in.o
 .rodata.fixed_regulator_ops
                0x00000000002a5270       0x68 drivers/power/regulator/built-in.o
 .rodata.fuel_gauge_info
                0x00000000002a52d8       0x60 drivers/power/pmic/built-in.o
 .rodata.generic_simple_bus_ids
                0x00000000002a5338       0x30 drivers/built-in.o
 .rodata.generic_syscon_ids
                0x00000000002a5368       0x20 drivers/built-in.o
 .rodata.getvar_table
                0x00000000002a5388      0x2a0 drivers/usb/gadget/built-in.o
 .rodata.gmac_rockchip_eth_ops
                0x00000000002a5628       0x38 drivers/net/built-in.o
                0x00000000002a5628                gmac_rockchip_eth_ops
 .rodata.gpio_key_bus_match
                0x00000000002a5660       0x20 drivers/built-in.o
 .rodata.gpio_rockchip_ops
                0x00000000002a5680       0x50 drivers/gpio/built-in.o
 .rodata.hub_id_table
                0x00000000002a56d0       0x40 common/built-in.o
 .rodata.if_typename_str
                0x00000000002a5710       0x88 drivers/built-in.o
 .rodata.image  0x00000000002a5798       0x70 drivers/power/built-in.o
 .rodata.init_sequence_f
                0x00000000002a5808      0x160 common/built-in.o
 .rodata.inno_dw_hdmi_phy_ops
                0x00000000002a5968       0x20 drivers/built-in.o
 .rodata.keywords
                0x00000000002a5988      0x130 cmd/built-in.o
 .rodata.mass_storage_id_table
                0x00000000002a5ab8       0x40 common/built-in.o
 .rodata.mcs7830_eth_id_table
                0x00000000002a5af8       0xa0 drivers/usb/eth/built-in.o
 .rodata.mcs7830_eth_ops
                0x00000000002a5b98       0x38 drivers/usb/eth/built-in.o
 .rodata.mmc_blk_ops
                0x00000000002a5bd0       0x20 drivers/built-in.o
 .rodata.ns16550_serial_ids
                0x00000000002a5bf0       0xc0 drivers/serial/built-in.o
 .rodata.ns16550_serial_ops
                0x00000000002a5cb0       0x28 drivers/serial/built-in.o
                0x00000000002a5cb0                ns16550_serial_ops
 .rodata.ohci_usb_ids
                0x00000000002a5cd8       0x20 drivers/usb/host/built-in.o
 .rodata.op_adv
                0x00000000002a5cf8      0x180 cmd/built-in.o
                0x00000000002a5cf8                op_adv
 .rodata.phy_interface_strings
                0x00000000002a5e78       0x90 drivers/net/phy/built-in.o
 .rodata.plat_mem_attr
                0x00000000002a5f08      0x2c0 arch/arm/mach-rockchip/built-in.o
 .rodata.pmic_children_info
                0x00000000002a61c8       0x60 drivers/power/pmic/built-in.o
 .rodata.power_key_info
                0x00000000002a6228       0x30 drivers/power/pmic/built-in.o
 .rodata.psci_of_match
                0x00000000002a6258       0x40 drivers/built-in.o
 .rodata.pwm_backlight_ids
                0x00000000002a6298       0x20 drivers/built-in.o
 .rodata.pwm_backlight_ops
                0x00000000002a62b8       0x10 drivers/built-in.o
 .rodata.pwm_data_v1
                0x00000000002a62c8       0x30 drivers/built-in.o
 .rodata.pwm_data_v2
                0x00000000002a62f8       0x30 drivers/built-in.o
 .rodata.pwm_data_v3
                0x00000000002a6328       0x30 drivers/built-in.o
 .rodata.pwm_data_vop
                0x00000000002a6358       0x30 drivers/built-in.o
 .rodata.pwm_regulator_ids
                0x00000000002a6388       0x20 drivers/power/regulator/built-in.o
 .rodata.pwm_regulator_ops
                0x00000000002a63a8       0x68 drivers/power/regulator/built-in.o
 .rodata.px30_gmac_ops
                0x00000000002a6410       0x20 drivers/net/built-in.o
                0x00000000002a6410                px30_gmac_ops
 .rodata.px30_mipi_dsi_driver_data
                0x00000000002a6430       0x10 drivers/built-in.o
 .rodata.px30_mipi_dsi_plat_data
                0x00000000002a6440       0x18 drivers/built-in.o
 .rodata.px30_pin_ctrl
                0x00000000002a6458       0x80 drivers/built-in.o
 .rodata.px30_vop_big
                0x00000000002a64d8       0x50 drivers/built-in.o
                0x00000000002a64d8                px30_vop_big
 .rodata.px30_vop_big_data
                0x00000000002a6528       0xc0 drivers/built-in.o
 .rodata.px30_vop_lit
                0x00000000002a65e8       0x50 drivers/built-in.o
                0x00000000002a65e8                px30_vop_lit
 .rodata.px30_vop_lit_data
                0x00000000002a6638       0xc0 drivers/built-in.o
 .rodata.r8152_eth_id_table
                0x00000000002a66f8      0x1e0 drivers/usb/eth/built-in.o
 .rodata.r8152_eth_ops
                0x00000000002a68d8       0x38 drivers/usb/eth/built-in.o
 .rodata.reg_0_5_desc_tbl
                0x00000000002a6910       0x60 cmd/built-in.o
 .rodata.reg_0_desc_tbl
                0x00000000002a6970       0xa0 cmd/built-in.o
 .rodata.reg_1_desc_tbl
                0x00000000002a6a10      0x100 cmd/built-in.o
 .rodata.reg_2_desc_tbl
                0x00000000002a6b10       0x10 cmd/built-in.o
 .rodata.reg_3_desc_tbl
                0x00000000002a6b20       0x30 cmd/built-in.o
 .rodata.reg_4_desc_tbl
                0x00000000002a6b50       0xc0 cmd/built-in.o
 .rodata.reg_5_desc_tbl
                0x00000000002a6c10       0xc0 cmd/built-in.o
 .rodata.rk1808_gmac_ops
                0x00000000002a6cd0       0x20 drivers/net/built-in.o
                0x00000000002a6cd0                rk1808_gmac_ops
 .rodata.rk1808_mipi_dsi_driver_data
                0x00000000002a6cf0       0x10 drivers/built-in.o
 .rodata.rk1808_mipi_dsi_plat_data
                0x00000000002a6d00       0x18 drivers/built-in.o
 .rodata.rk1808_phy_cfgs
                0x00000000002a6d18      0x870 drivers/built-in.o
 .rodata.rk1808_pin_ctrl
                0x00000000002a7588       0x80 drivers/built-in.o
 .rodata.rk1808_vop
                0x00000000002a7608       0x50 drivers/built-in.o
                0x00000000002a7608                rk1808_vop
 .rodata.rk1808_vop_data
                0x00000000002a7658       0xc0 drivers/built-in.o
 .rodata.rk2928_pin_ctrl
                0x00000000002a7718       0x80 drivers/built-in.o
 .rodata.rk3036_pin_ctrl
                0x00000000002a7798       0x80 drivers/built-in.o
 .rodata.rk3036_vop
                0x00000000002a7818       0x50 drivers/built-in.o
                0x00000000002a7818                rk3036_vop
 .rodata.rk3036_vop_data
                0x00000000002a7868       0xc0 drivers/built-in.o
 .rodata.rk3066_tsadc_data
                0x00000000002a7928       0x10 drivers/built-in.o
 .rodata.rk3066a_pin_ctrl
                0x00000000002a7938       0x80 drivers/built-in.o
 .rodata.rk3066b_pin_ctrl
                0x00000000002a79b8       0x80 drivers/built-in.o
 .rodata.rk3126_win1_data
                0x00000000002a7a38       0x88 drivers/built-in.o
 .rodata.rk3128_mipi_dsi_driver_data
                0x00000000002a7ac0       0x10 drivers/built-in.o
 .rodata.rk3128_mipi_dsi_plat_data
                0x00000000002a7ad0       0x18 drivers/built-in.o
 .rodata.rk3128_pin_ctrl
                0x00000000002a7ae8       0x80 drivers/built-in.o
 .rodata.rk312x_phy_cfgs
                0x00000000002a7b68      0x870 drivers/built-in.o
 .rodata.rk3188_pin_ctrl
                0x00000000002a83d8       0x80 drivers/built-in.o
 .rodata.rk3228_dw_hdmi_data
                0x00000000002a8458       0x10 drivers/built-in.o
 .rodata.rk3228_gmac_ops
                0x00000000002a8468       0x20 drivers/net/built-in.o
                0x00000000002a8468                rk3228_gmac_ops
 .rodata.rk3228_hdmi_drv_data
                0x00000000002a8488       0x90 drivers/built-in.o
                0x00000000002a8488                rk3228_hdmi_drv_data
 .rodata.rk3228_pin_ctrl
                0x00000000002a8518       0x80 drivers/built-in.o
 .rodata.rk322x_phy_cfgs
                0x00000000002a8598      0xca8 drivers/built-in.o
 .rodata.rk322x_vop
                0x00000000002a9240       0x50 drivers/built-in.o
                0x00000000002a9240                rk322x_vop
 .rodata.rk322x_vop_data
                0x00000000002a9290       0xc0 drivers/built-in.o
 .rodata.rk3288_dw_hdmi_data
                0x00000000002a9350       0x10 drivers/built-in.o
 .rodata.rk3288_edp_driver_data
                0x00000000002a9360       0x10 drivers/built-in.o
 .rodata.rk3288_gmac_ops
                0x00000000002a9370       0x20 drivers/net/built-in.o
                0x00000000002a9370                rk3288_gmac_ops
 .rodata.rk3288_hdmi_drv_data
                0x00000000002a9390       0x90 drivers/built-in.o
                0x00000000002a9390                rk3288_hdmi_drv_data
 .rodata.rk3288_mipi_dsi_driver_data
                0x00000000002a9420       0x10 drivers/built-in.o
 .rodata.rk3288_mipi_dsi_plat_data
                0x00000000002a9430       0x18 drivers/built-in.o
 .rodata.rk3288_pin_ctrl
                0x00000000002a9448       0x80 drivers/built-in.o
 .rodata.rk3288_vop_big
                0x00000000002a94c8       0x50 drivers/built-in.o
                0x00000000002a94c8                rk3288_vop_big
 .rodata.rk3288_vop_big_data
                0x00000000002a9518       0xc0 drivers/built-in.o
 .rodata.rk3288_vop_lit
                0x00000000002a95d8       0x50 drivers/built-in.o
                0x00000000002a95d8                rk3288_vop_lit
 .rodata.rk3288_vop_lit_data
                0x00000000002a9628       0xc0 drivers/built-in.o
 .rodata.rk3288_win01_data
                0x00000000002a96e8       0x88 drivers/built-in.o
 .rodata.rk3288_win_full_scl
                0x00000000002a9770       0x28 drivers/built-in.o
 .rodata.rk3308_gmac_ops
                0x00000000002a9798       0x20 drivers/net/built-in.o
                0x00000000002a9798                rk3308_gmac_ops
 .rodata.rk3308_vop
                0x00000000002a97b8       0x50 drivers/built-in.o
                0x00000000002a97b8                rk3308_vop
 .rodata.rk3308_vop_data
                0x00000000002a9808       0xc0 drivers/built-in.o
 .rodata.rk3328_dw_hdmi_data
                0x00000000002a98c8       0x10 drivers/built-in.o
 .rodata.rk3328_gmac_ops
                0x00000000002a98d8       0x20 drivers/net/built-in.o
                0x00000000002a98d8                rk3328_gmac_ops
 .rodata.rk3328_hdmi_drv_data
                0x00000000002a98f8       0x90 drivers/built-in.o
                0x00000000002a98f8                rk3328_hdmi_drv_data
 .rodata.rk3328_phy_cfgs
                0x00000000002a9988      0x870 drivers/built-in.o
 .rodata.rk3328_pin_ctrl
                0x00000000002aa1f8       0x80 drivers/built-in.o
 .rodata.rk3328_vop
                0x00000000002aa278       0x50 drivers/built-in.o
                0x00000000002aa278                rk3328_vop
 .rodata.rk3328_vop_data
                0x00000000002aa2c8       0xc0 drivers/built-in.o
 .rodata.rk3366_lit_win_scl
                0x00000000002aa388       0x28 drivers/built-in.o
 .rodata.rk3366_mipi_dsi_driver_data
                0x00000000002aa3b0       0x10 drivers/built-in.o
 .rodata.rk3366_mipi_dsi_plat_data
                0x00000000002aa3c0       0x18 drivers/built-in.o
 .rodata.rk3366_vop
                0x00000000002aa3d8       0x50 drivers/built-in.o
                0x00000000002aa3d8                rk3366_vop
 .rodata.rk3366_vop_data
                0x00000000002aa428       0xc0 drivers/built-in.o
 .rodata.rk3366_win0_data
                0x00000000002aa4e8       0x88 drivers/built-in.o
 .rodata.rk3366_win1_data
                0x00000000002aa570       0x88 drivers/built-in.o
 .rodata.rk3368_dw_hdmi_data
                0x00000000002aa5f8       0x10 drivers/built-in.o
 .rodata.rk3368_edp_driver_data
                0x00000000002aa608       0x10 drivers/built-in.o
 .rodata.rk3368_gmac_ops
                0x00000000002aa618       0x20 drivers/net/built-in.o
                0x00000000002aa618                rk3368_gmac_ops
 .rodata.rk3368_hdmi_drv_data
                0x00000000002aa638       0x90 drivers/built-in.o
                0x00000000002aa638                rk3368_hdmi_drv_data
 .rodata.rk3368_mipi_dsi_driver_data
                0x00000000002aa6c8       0x10 drivers/built-in.o
 .rodata.rk3368_mipi_dsi_plat_data
                0x00000000002aa6d8       0x18 drivers/built-in.o
 .rodata.rk3368_phy_cfgs
                0x00000000002aa6f0      0x870 drivers/built-in.o
 .rodata.rk3368_pin_ctrl
                0x00000000002aaf60       0x80 drivers/built-in.o
 .rodata.rk3368_vop
                0x00000000002aafe0       0x50 drivers/built-in.o
                0x00000000002aafe0                rk3368_vop
 .rodata.rk3368_vop_data
                0x00000000002ab030       0xc0 drivers/built-in.o
 .rodata.rk3368_win23_data
                0x00000000002ab0f0       0x88 drivers/built-in.o
 .rodata.rk3399_clk_ids
                0x00000000002ab178       0x20 drivers/built-in.o
 .rodata.rk3399_csc_table
                0x00000000002ab198       0x20 drivers/built-in.o
 .rodata.rk3399_dmc_ids
                0x00000000002ab1b8       0x20 drivers/built-in.o
 .rodata.rk3399_dw_hdmi_data
                0x00000000002ab1d8       0x10 drivers/built-in.o
 .rodata.rk3399_edp_driver_data
                0x00000000002ab1e8       0x10 drivers/built-in.o
 .rodata.rk3399_gmac_ops
                0x00000000002ab1f8       0x20 drivers/net/built-in.o
                0x00000000002ab1f8                rk3399_gmac_ops
 .rodata.rk3399_hdmi_drv_data
                0x00000000002ab218       0x90 drivers/built-in.o
                0x00000000002ab218                rk3399_hdmi_drv_data
 .rodata.rk3399_mipi_dsi_driver_data
                0x00000000002ab2a8       0x10 drivers/built-in.o
 .rodata.rk3399_mipi_dsi_plat_data
                0x00000000002ab2b8       0x18 drivers/built-in.o
 .rodata.rk3399_phy_cfgs
                0x00000000002ab2d0      0xca8 drivers/built-in.o
 .rodata.rk3399_pin_ctrl
                0x00000000002abf78       0x80 drivers/built-in.o
 .rodata.rk3399_pmuclk_ids
                0x00000000002abff8       0x20 drivers/built-in.o
 .rodata.rk3399_saradc_data
                0x00000000002ac018       0x10 drivers/built-in.o
 .rodata.rk3399_syscon_ids
                0x00000000002ac028       0x60 arch/arm/mach-rockchip/built-in.o
 .rodata.rk3399_vop_big
                0x00000000002ac088       0x50 drivers/built-in.o
                0x00000000002ac088                rk3399_vop_big
 .rodata.rk3399_vop_big_data
                0x00000000002ac0d8       0xc0 drivers/built-in.o
 .rodata.rk3399_vop_lit
                0x00000000002ac198       0x50 drivers/built-in.o
                0x00000000002ac198                rk3399_vop_lit
 .rodata.rk3399_vop_lit_data
                0x00000000002ac1e8       0xc0 drivers/built-in.o
 .rodata.rk3568_dw_hdmi_data
                0x00000000002ac2a8       0x10 drivers/built-in.o
 .rodata.rk3568_edp_driver_data
                0x00000000002ac2b8       0x10 drivers/built-in.o
 .rodata.rk3568_hdmi_drv_data
                0x00000000002ac2c8       0x90 drivers/built-in.o
                0x00000000002ac2c8                rk3568_hdmi_drv_data
 .rodata.rk3568_mipi_dsi_driver_data
                0x00000000002ac358       0x10 drivers/built-in.o
 .rodata.rk3568_mipi_dsi_plat_data
                0x00000000002ac368       0x18 drivers/built-in.o
 .rodata.rk3568_phy_cfgs
                0x00000000002ac380      0xca8 drivers/built-in.o
 .rodata.rk3568_vop
                0x00000000002ad028       0x28 drivers/built-in.o
                0x00000000002ad028                rk3568_vop
 .rodata.rk3568_vop_data
                0x00000000002ad050       0xc0 drivers/built-in.o
 .rodata.rk817_codec_info
                0x00000000002ad110       0x30 drivers/power/pmic/built-in.o
 .rodata.rk8xx_buck_ops
                0x00000000002ad140       0x68 drivers/power/regulator/built-in.o
 .rodata.rk8xx_ids
                0x00000000002ad1a8       0x70 drivers/power/pmic/built-in.o
 .rodata.rk8xx_ldo_ops
                0x00000000002ad218       0x68 drivers/power/regulator/built-in.o
 .rodata.rk8xx_switch_ops
                0x00000000002ad280       0x68 drivers/power/regulator/built-in.o
 .rodata.rk_key_bus_match
                0x00000000002ad2e8       0x20 drivers/built-in.o
 .rodata.rk_pwm_ids
                0x00000000002ad308       0x60 drivers/built-in.o
 .rodata.rk_pwm_ops
                0x00000000002ad368       0x18 drivers/built-in.o
 .rodata.rockchip_conf_params
                0x00000000002ad380      0x120 drivers/built-in.o
 .rodata.rockchip_crypto_ids
                0x00000000002ad4a0       0x70 drivers/built-in.o
 .rodata.rockchip_crypto_ops
                0x00000000002ad510       0x58 drivers/built-in.o
 .rodata.rockchip_cur_ctr
                0x00000000002ad568       0x20 drivers/built-in.o
 .rodata.rockchip_display_ids
                0x00000000002ad588       0x20 drivers/built-in.o
 .rodata.rockchip_dw_hdmi_funcs
                0x00000000002ad5a8       0x58 drivers/built-in.o
 .rodata.rockchip_dw_hdmi_ids
                0x00000000002ad600       0x80 drivers/built-in.o
 .rodata.rockchip_dwmmc_ids
                0x00000000002ad680       0x30 drivers/built-in.o
 .rodata.rockchip_efuse_ids
                0x00000000002ad6b0       0x90 drivers/built-in.o
 .rodata.rockchip_efuse_ops
                0x00000000002ad740       0x20 drivers/built-in.o
 .rodata.rockchip_gmac_ids
                0x00000000002ad760       0xa0 drivers/net/built-in.o
 .rodata.rockchip_gpio_ids
                0x00000000002ad800       0x20 drivers/gpio/built-in.o
 .rodata.rockchip_i2c_ids
                0x00000000002ad820       0x80 drivers/i2c/built-in.o
 .rodata.rockchip_i2c_ops
                0x00000000002ad8a0       0x30 drivers/i2c/built-in.o
 .rodata.rockchip_iodomain_match
                0x00000000002ad8d0      0x110 drivers/power/io-domain/built-in.o
 .rodata.rockchip_mpll_cfg
                0x00000000002ad9e0      0x150 drivers/built-in.o
 .rodata.rockchip_mpll_cfg_420
                0x00000000002adb30       0x90 drivers/built-in.o
 .rodata.rockchip_panel_funcs
                0x00000000002adbc0       0x28 drivers/built-in.o
 .rodata.rockchip_panel_ids
                0x00000000002adbe8       0x30 drivers/built-in.o
 .rodata.rockchip_phy_config
                0x00000000002adc18       0x60 drivers/built-in.o
 .rodata.rockchip_pinctrl_dt_match
                0x00000000002adc78      0x110 drivers/built-in.o
 .rodata.rockchip_saradc_ids
                0x00000000002add88       0x40 drivers/built-in.o
 .rodata.rockchip_saradc_ops
                0x00000000002addc8       0x28 drivers/built-in.o
 .rodata.rockchip_usb2phy_ids
                0x00000000002addf0       0xa0 drivers/built-in.o
 .rodata.rockchip_vop2_funcs
                0x00000000002ade90       0x50 drivers/built-in.o
                0x00000000002ade90                rockchip_vop2_funcs
 .rodata.rockchip_vop_funcs
                0x00000000002adee0       0x50 drivers/built-in.o
                0x00000000002adee0                rockchip_vop_funcs
 .rodata.rockchip_vop_ids
                0x00000000002adf30      0x120 drivers/built-in.o
 .rodata.root_info
                0x00000000002ae050       0x10 drivers/built-in.o
 .rodata.rpmb_err_msg
                0x00000000002ae060       0x40 drivers/built-in.o
 .rodata.rtc_info
                0x00000000002ae0a0       0x30 drivers/power/pmic/built-in.o
 .rodata.rv1108_gmac_ops
                0x00000000002ae0d0       0x20 drivers/net/built-in.o
                0x00000000002ae0d0                rv1108_gmac_ops
 .rodata.rv1108_mipi_dsi_driver_data
                0x00000000002ae0f0       0x10 drivers/built-in.o
 .rodata.rv1108_mipi_dsi_plat_data
                0x00000000002ae100       0x18 drivers/built-in.o
 .rodata.rv1108_phy_cfgs
                0x00000000002ae118      0x870 drivers/built-in.o
 .rodata.rv1108_pin_ctrl
                0x00000000002ae988       0x80 drivers/built-in.o
 .rodata.rv1108_vop
                0x00000000002aea08       0x50 drivers/built-in.o
                0x00000000002aea08                rv1108_vop
 .rodata.rv1108_vop_data
                0x00000000002aea58       0xc0 drivers/built-in.o
 .rodata.rv1126_mipi_dsi_driver_data
                0x00000000002aeb18       0x10 drivers/built-in.o
 .rodata.rv1126_mipi_dsi_plat_data
                0x00000000002aeb28       0x18 drivers/built-in.o
 .rodata.rv1126_pin_ctrl
                0x00000000002aeb40       0x80 drivers/built-in.o
 .rodata.rv1126_vop
                0x00000000002aebc0       0x50 drivers/built-in.o
                0x00000000002aebc0                rv1126_vop
 .rodata.rv1126_vop_data
                0x00000000002aec10       0xc0 drivers/built-in.o
 .rodata.rv1126_win2_data
                0x00000000002aecd0       0x88 drivers/built-in.o
 .rodata.saradc_data
                0x00000000002aed58       0x10 drivers/built-in.o
 .rodata.sdhci_ops
                0x00000000002aed68       0x30 drivers/built-in.o
                0x00000000002aed68                sdhci_ops
 .rodata.sha512_k
                0x00000000002aed98      0x280 lib/built-in.o
 .rodata.simple_panel_ids
                0x00000000002af018       0x50 drivers/built-in.o
 .rodata.simple_panel_ops
                0x00000000002af068        0x8 drivers/built-in.o
 .rodata.smsc95xx_eth_id_table
                0x00000000002af070       0xe0 drivers/usb/eth/built-in.o
 .rodata.smsc95xx_eth_ops
                0x00000000002af150       0x38 drivers/usb/eth/built-in.o
 .rodata.snps_data
                0x00000000002af188       0x18 drivers/built-in.o
 .rodata.soc_data_px30
                0x00000000002af1a0       0x90 drivers/power/io-domain/built-in.o
 .rodata.soc_data_px30_pmu
                0x00000000002af230       0x90 drivers/power/io-domain/built-in.o
 .rodata.soc_data_rk3188
                0x00000000002af2c0       0x90 drivers/power/io-domain/built-in.o
 .rodata.soc_data_rk322x
                0x00000000002af350       0x90 drivers/power/io-domain/built-in.o
 .rodata.soc_data_rk3288
                0x00000000002af3e0       0x90 drivers/power/io-domain/built-in.o
 .rodata.soc_data_rk3308
                0x00000000002af470       0x90 drivers/power/io-domain/built-in.o
 .rodata.soc_data_rk3328
                0x00000000002af500       0x90 drivers/power/io-domain/built-in.o
 .rodata.soc_data_rk3366
                0x00000000002af590       0x90 drivers/power/io-domain/built-in.o
 .rodata.soc_data_rk3368
                0x00000000002af620       0x90 drivers/power/io-domain/built-in.o
 .rodata.soc_data_rk3368_pmu
                0x00000000002af6b0       0x90 drivers/power/io-domain/built-in.o
 .rodata.soc_data_rk3399
                0x00000000002af740       0x90 drivers/power/io-domain/built-in.o
 .rodata.soc_data_rk3399_pmu
                0x00000000002af7d0       0x90 drivers/power/io-domain/built-in.o
 .rodata.soc_data_rk3568_pmu
                0x00000000002af860       0x90 drivers/power/io-domain/built-in.o
 .rodata.soc_data_rv1108
                0x00000000002af8f0       0x90 drivers/power/io-domain/built-in.o
 .rodata.soc_data_rv1108_pmu
                0x00000000002af980       0x90 drivers/power/io-domain/built-in.o
 .rodata.soc_data_rv1126_pmu
                0x00000000002afa10       0x90 drivers/power/io-domain/built-in.o
 .rodata.syscon_reboot_match
                0x00000000002afaa0       0x20 drivers/built-in.o
 .rodata.syscon_reboot_ops
                0x00000000002afac0       0x10 drivers/built-in.o
 .rodata.uimage_arch
                0x00000000002afad0      0x288 common/built-in.o
 .rodata.uimage_comp
                0x00000000002afd58       0xa8 common/built-in.o
 .rodata.uimage_os
                0x00000000002afe00      0x108 common/built-in.o
 .rodata.uimage_type
                0x00000000002aff08      0x330 common/built-in.o
 .rodata.usb_dr_modes
                0x00000000002b0238       0x20 drivers/usb/common/built-in.o
 .rodata.usb_hub_ids
                0x00000000002b0258       0x20 common/built-in.o
 .rodata.usb_mass_storage_ids
                0x00000000002b0278       0x20 common/built-in.o
 .rodata.usb_storage_ops
                0x00000000002b0298       0x20 common/built-in.o
 .rodata.xhci_dwc3_ids
                0x00000000002b02b8       0x20 drivers/usb/host/built-in.o
 .rodata        0x00000000002b02d8       0x55 lib/built-in.o
 *fill*         0x00000000002b032d        0x3 
 .rodata.CSWTCH.29
                0x00000000002b0330       0x14 drivers/usb/host/built-in.o
 .rodata.OpteeRpcCallback
                0x00000000002b0344        0x8 lib/built-in.o
 .rodata.OpteeRpcCmdRpmb
                0x00000000002b034c        0x4 lib/built-in.o
 .rodata.analogix_dp_connector_enable
                0x00000000002b0350        0xa drivers/built-in.o
 *fill*         0x00000000002b035a        0x2 
 .rodata.analogix_dp_set_analog_power_down
                0x00000000002b035c        0x7 drivers/built-in.o
 *fill*         0x00000000002b0363        0x1 
 .rodata.analogix_dp_set_training_pattern
                0x00000000002b0364        0x5 drivers/built-in.o
 *fill*         0x00000000002b0369        0x3 
 .rodata.apll_1600_cfg
                0x00000000002b036c       0x18 drivers/built-in.o
 .rodata.apll_600_cfg
                0x00000000002b0384       0x18 drivers/built-in.o
 .rodata.apll_816_cfg
                0x00000000002b039c       0x18 drivers/built-in.o
 .rodata.avb_append_options
                0x00000000002b03b4        0xc lib/built-in.o
 .rodata.avb_vbmeta_image_verify
                0x00000000002b03c0        0x6 lib/built-in.o
 *fill*         0x00000000002b03c6        0x2 
 .rodata.blk_common_cmd
                0x00000000002b03c8        0x4 cmd/built-in.o
 .rodata.cb_getvar
                0x00000000002b03cc       0x20 drivers/usb/gadget/built-in.o
 .rodata.cc_to_error
                0x00000000002b03ec       0x40 drivers/usb/host/built-in.o
 .rodata.cea_interlaced.8324
                0x00000000002b042c       0x38 common/built-in.o
 .rodata.cli_readline_into_buffer
                0x00000000002b0464       0x40 common/built-in.o
 .rodata.composite_setup
                0x00000000002b04a4       0x2a drivers/usb/gadget/built-in.o
 *fill*         0x00000000002b04ce        0x2 
 .rodata.crc_table
                0x00000000002b04d0      0x400 lib/built-in.o
 .rodata.crypto_sha_final
                0x00000000002b08d0       0x10 drivers/built-in.o
 .rodata.dev_print
                0x00000000002b08e0       0x1c disk/built-in.o
 .rodata.do_cvt_mode
                0x00000000002b08fc        0xd common/built-in.o
 *fill*         0x00000000002b0909        0x3 
 .rodata.do_fdt
                0x00000000002b090c       0x12 cmd/built-in.o
 *fill*         0x00000000002b091e        0x2 
 .rodata.do_test
                0x00000000002b0920        0xd cmd/built-in.o
 *fill*         0x00000000002b092d        0x3 
 .rodata.drm_dmt_modes
                0x00000000002b0930     0x2940 common/built-in.o
 .rodata.drm_rk_selete_output
                0x00000000002b3270        0x5 drivers/built-in.o
 *fill*         0x00000000002b3275        0x3 
 .rodata.dwc3_gadget_uboot_handle_interrupt
                0x00000000002b3278       0x19 drivers/usb/dwc3/built-in.o
 *fill*         0x00000000002b3291        0x3 
 .rodata.edid_4k_modes
                0x00000000002b3294      0x258 common/built-in.o
 .rodata.edid_cea_modes
                0x00000000002b34ec     0x32a0 common/built-in.o
 .rodata.edid_est_modes
                0x00000000002b678c      0x7f8 common/built-in.o
 .rodata.env_flags_validate
                0x00000000002b6f84        0x6 env/built-in.o
 *fill*         0x00000000002b6f8a        0x2 
 .rodata.env_flags_varaccess_mask
                0x00000000002b6f8c       0x10 env/built-in.o
 .rodata.fastboot_tx_write_str
                0x00000000002b6f9c        0x8 drivers/usb/gadget/built-in.o
 .rodata.fb_read_var
                0x00000000002b6fa4       0x38 drivers/usb/gadget/built-in.o
 .rodata.fdt_next_tag
                0x00000000002b6fdc        0x9 lib/built-in.o
 *fill*         0x00000000002b6fe5        0x3 
 .rodata.file_fat_detectfs
                0x00000000002b6fe8        0x8 fs/built-in.o
 .rodata.fsg_main_thread
                0x00000000002b6ff0        0x6 drivers/usb/gadget/built-in.o
 *fill*         0x00000000002b6ff6        0x2 
 .rodata.gic_irq_set_type
                0x00000000002b6ff8        0x8 drivers/built-in.o
 .rodata.gpio_irq_set_type
                0x00000000002b7000        0x8 drivers/built-in.o
 .rodata.gpio_set_intr_type
                0x00000000002b7008        0x4 drivers/built-in.o
 .rodata.gpll_init_cfg
                0x00000000002b700c       0x18 drivers/built-in.o
 .rodata.hotkey_run
                0x00000000002b7024        0x9 arch/arm/mach-rockchip/built-in.o
 *fill*         0x00000000002b702d        0x3 
 .rodata.if_type_uclass_id
                0x00000000002b7030       0x44 drivers/built-in.o
 .rodata.image_load.constprop.5
                0x00000000002b7074        0xc common/built-in.o
 .rodata.inflate
                0x00000000002b7080       0x3a lib/built-in.o
 *fill*         0x00000000002b70ba        0x2 
 .rodata.is_hotkey
                0x00000000002b70bc        0xa arch/arm/mach-rockchip/built-in.o
 *fill*         0x00000000002b70c6        0x2 
 .rodata.load_and_verify_vbmeta
                0x00000000002b70c8       0x10 lib/built-in.o
 .rodata.match  0x00000000002b70d8       0x22 lib/built-in.o
 *fill*         0x00000000002b70fa        0x2 
 .rodata.mmc_set_capacity
                0x00000000002b70fc        0x8 drivers/built-in.o
 .rodata.mmc_startup
                0x00000000002b7104       0x14 drivers/built-in.o
 .rodata.net_loop
                0x00000000002b7118       0x18 net/built-in.o
 .rodata.nfs_handler
                0x00000000002b7130        0x7 net/built-in.o
 *fill*         0x00000000002b7137        0x1 
 .rodata.nfs_send
                0x00000000002b7138        0x7 net/built-in.o
 *fill*         0x00000000002b713f        0x1 
 .rodata.npll_init_cfg
                0x00000000002b7140       0x18 drivers/built-in.o
 .rodata.ohci_submit_control_msg
                0x00000000002b7158       0x1c drivers/usb/host/built-in.o
 .rodata.parse_pxefile_top
                0x00000000002b7174       0x37 cmd/built-in.o
 *fill*         0x00000000002b71ab        0x1 
 .rodata.part_print
                0x00000000002b71ac       0x10 disk/built-in.o
 .rodata.ppll_init_cfg
                0x00000000002b71bc       0x18 drivers/built-in.o
 .rodata.prepare_ring
                0x00000000002b71d4        0x5 drivers/usb/host/built-in.o
 *fill*         0x00000000002b71d9        0x3 
 .rodata.px30_ctrl_data
                0x00000000002b71dc      0x388 drivers/built-in.o
 .rodata.px30_dsi_grf_reg_fields
                0x00000000002b7564       0x34 drivers/built-in.o
 .rodata.px30_grf_ctrl
                0x00000000002b7598        0x8 drivers/built-in.o
 .rodata.record_transfer_result
                0x00000000002b75a0        0xd drivers/usb/host/built-in.o
 *fill*         0x00000000002b75ad        0x3 
 .rodata.resolution_white
                0x00000000002b75b0      0x5e4 common/built-in.o
 .rodata.rk1808_dsi_grf_reg_fields
                0x00000000002b7b94       0x34 drivers/built-in.o
 .rodata.rk1808_grf_ctrl
                0x00000000002b7bc8        0x8 drivers/built-in.o
 .rodata.rk3036_ctrl_data
                0x00000000002b7bd0      0x388 drivers/built-in.o
 .rodata.rk3036_vop_line_flag
                0x00000000002b7f58       0x10 drivers/built-in.o
 .rodata.rk3128_dsi_grf_reg_fields
                0x00000000002b7f68       0x34 drivers/built-in.o
 .rodata.rk3288_ctrl_data
                0x00000000002b7f9c      0x388 drivers/built-in.o
 .rodata.rk3288_dsi0_grf_reg_fields
                0x00000000002b8324       0x34 drivers/built-in.o
 .rodata.rk3288_dsi1_grf_reg_fields
                0x00000000002b8358       0x34 drivers/built-in.o
 .rodata.rk3288_edp_platform_data
                0x00000000002b838c       0x14 drivers/built-in.o
 .rodata.rk3288_vop_big_grf_ctrl
                0x00000000002b83a0        0x8 drivers/built-in.o
 .rodata.rk3288_vop_line_flag
                0x00000000002b83a8       0x10 drivers/built-in.o
 .rodata.rk3288_vop_lit_grf_ctrl
                0x00000000002b83b8        0x8 drivers/built-in.o
 .rodata.rk3288_win_full_scl_ext
                0x00000000002b83c0       0xa8 drivers/built-in.o
 .rodata.rk3308_ctrl_data
                0x00000000002b8468      0x388 drivers/built-in.o
 .rodata.rk3328_ctrl_data
                0x00000000002b87f0      0x388 drivers/built-in.o
 .rodata.rk3328_vop_line_flag
                0x00000000002b8b78       0x10 drivers/built-in.o
 .rodata.rk3366_dsi_grf_reg_fields
                0x00000000002b8b88       0x34 drivers/built-in.o
 .rodata.rk3366_vop_line_flag
                0x00000000002b8bbc       0x10 drivers/built-in.o
 .rodata.rk3366_vop_lite_line_flag
                0x00000000002b8bcc       0x10 drivers/built-in.o
 .rodata.rk3368_dsi_grf_reg_fields
                0x00000000002b8bdc       0x34 drivers/built-in.o
 .rodata.rk3368_edp_platform_data
                0x00000000002b8c10       0x14 drivers/built-in.o
 .rodata.rk3368_vop_grf_ctrl
                0x00000000002b8c24        0x8 drivers/built-in.o
 .rodata.rk3368_vop_line_flag
                0x00000000002b8c2c       0x10 drivers/built-in.o
 .rodata.rk3399_clk_get_rate
                0x00000000002b8c3c        0x6 drivers/built-in.o
 *fill*         0x00000000002b8c42        0x2 
 .rodata.rk3399_clk_set_rate
                0x00000000002b8c44        0x5 drivers/built-in.o
 *fill*         0x00000000002b8c49        0x3 
 .rodata.rk3399_dsi0_grf_reg_fields
                0x00000000002b8c4c       0x34 drivers/built-in.o
 .rodata.rk3399_dsi1_grf_reg_fields
                0x00000000002b8c80       0x34 drivers/built-in.o
 .rodata.rk3399_edp_platform_data
                0x00000000002b8cb4       0x14 drivers/built-in.o
 .rodata.rk3399_i2c_get_clk
                0x00000000002b8cc8        0x6 drivers/built-in.o
 *fill*         0x00000000002b8cce        0x2 
 .rodata.rk3399_win0_csc
                0x00000000002b8cd0       0x24 drivers/built-in.o
 .rodata.rk3399_win2_csc
                0x00000000002b8cf4       0x24 drivers/built-in.o
 .rodata.rk3568_dsi0_grf_reg_fields
                0x00000000002b8d18       0x34 drivers/built-in.o
 .rodata.rk3568_dsi1_grf_reg_fields
                0x00000000002b8d4c       0x34 drivers/built-in.o
 .rodata.rk3568_edp_platform_data
                0x00000000002b8d80       0x14 drivers/built-in.o
 .rodata.rk3568_pmu_iodomain_write
                0x00000000002b8d94        0x9 drivers/power/io-domain/built-in.o
 *fill*         0x00000000002b8d9d        0x3 
 .rodata.rk805_irqs
                0x00000000002b8da0       0x10 drivers/power/pmic/built-in.o
 .rodata.rk808_buck
                0x00000000002b8db0       0x40 drivers/power/regulator/built-in.o
 .rodata.rk808_irqs
                0x00000000002b8df0       0x18 drivers/power/pmic/built-in.o
 .rodata.rk808_ldo
                0x00000000002b8e08       0x80 drivers/power/regulator/built-in.o
 .rodata.rk809_buck5
                0x00000000002b8e88       0x40 drivers/power/regulator/built-in.o
 .rodata.rk816_buck
                0x00000000002b8ec8       0x80 drivers/power/regulator/built-in.o
 .rodata.rk816_irqs
                0x00000000002b8f48       0x28 drivers/power/pmic/built-in.o
 .rodata.rk816_ldo
                0x00000000002b8f70       0x60 drivers/power/regulator/built-in.o
 .rodata.rk817_bat_get_charger_type
                0x00000000002b8fd0        0x5 drivers/power/fuel_gauge/built-in.o
 *fill*         0x00000000002b8fd5        0x3 
 .rodata.rk817_buck
                0x00000000002b8fd8       0xc0 drivers/power/regulator/built-in.o
 .rodata.rk817_irqs
                0x00000000002b9098       0x20 drivers/power/pmic/built-in.o
 .rodata.rk817_ldo
                0x00000000002b90b8      0x120 drivers/power/regulator/built-in.o
 .rodata.rk818_buck
                0x00000000002b91d8       0x40 drivers/power/regulator/built-in.o
 .rodata.rk818_irqs
                0x00000000002b9218       0x28 drivers/power/pmic/built-in.o
 .rodata.rk818_ldo
                0x00000000002b9240       0x80 drivers/power/regulator/built-in.o
 .rodata.rockchip_dw_hdmi_enable
                0x00000000002b92c0       0x22 drivers/built-in.o
 *fill*         0x00000000002b92e2        0x2 
 .rodata.rockchip_get_boot_mode
                0x00000000002b92e4        0xd arch/arm/mach-rockchip/built-in.o
 *fill*         0x00000000002b92f1        0x3 
 .rodata.rockchip_perpin_drv_list
                0x00000000002b92f4      0x140 drivers/built-in.o
 .rodata.rockchip_pinctrl_set_state
                0x00000000002b9434       0x34 drivers/built-in.o
 .rodata.rockchip_pull_list
                0x00000000002b9468       0x40 drivers/built-in.o
 .rodata.rockchip_vop_init
                0x00000000002b94a8       0x14 drivers/built-in.o
 .rodata.rockchip_vop_set_plane
                0x00000000002b94bc       0x16 drivers/built-in.o
 *fill*         0x00000000002b94d2        0x2 
 .rodata.rv1108_dsi_grf_reg_fields
                0x00000000002b94d4       0x34 drivers/built-in.o
 .rodata.rv1126_ctrl_data
                0x00000000002b9508      0x388 drivers/built-in.o
 .rodata.rv1126_dsi_grf_reg_fields
                0x00000000002b9890       0x34 drivers/built-in.o
 .rodata.sd_au_size
                0x00000000002b98c4       0x40 drivers/built-in.o
 .rodata.setup_boot_mode
                0x00000000002b9904        0x4 arch/arm/mach-rockchip/built-in.o
 .rodata.sin_table
                0x00000000002b9908      0x16c drivers/built-in.o
 .rodata.sleep_thread.isra.20
                0x00000000002b9a74        0x8 drivers/usb/gadget/built-in.o
 .rodata.stereo_mandatory_modes
                0x00000000002b9a7c       0x80 common/built-in.o
 .rodata.tee_supp_rk_fs_process_v1
                0x00000000002b9afc       0x1e lib/built-in.o
 *fill*         0x00000000002b9b1a        0x2 
 .rodata.tee_supp_rk_fs_process_v2
                0x00000000002b9b1c       0x1e lib/built-in.o
 *fill*         0x00000000002b9b3a        0x2 
 .rodata.tftp_send
                0x00000000002b9b3c        0x7 net/built-in.o
 *fill*         0x00000000002b9b43        0x1 
 .rodata.usb_display_class_sub
                0x00000000002b9b44        0x6 cmd/built-in.o
 *fill*         0x00000000002b9b4a        0x2 
 .rodata.vendor_ops
                0x00000000002b9b4c        0x9 arch/arm/mach-rockchip/built-in.o
 *fill*         0x00000000002b9b55        0x3 
 .rodata.vendor_storage_init
                0x00000000002b9b58        0x9 arch/arm/mach-rockchip/built-in.o
 *fill*         0x00000000002b9b61        0x3 
 .rodata.vendor_storage_test
                0x00000000002b9b64       0x16 arch/arm/mach-rockchip/built-in.o
 *fill*         0x00000000002b9b7a        0x2 
 .rodata.vendor_storage_write
                0x00000000002b9b7c        0x9 arch/arm/mach-rockchip/built-in.o
 *fill*         0x00000000002b9b85        0x3 
 .rodata.vendor_test_reset
                0x00000000002b9b88        0x9 arch/arm/mach-rockchip/built-in.o
 *fill*         0x00000000002b9b91        0x3 
 .rodata.vidconsole_put_char
                0x00000000002b9b94        0x7 drivers/built-in.o
 *fill*         0x00000000002b9b9b        0x1 
 .rodata.vop_csc_r2y_bt2020
                0x00000000002b9b9c       0x20 drivers/built-in.o
 .rodata.vop_csc_r2y_bt601
                0x00000000002b9bbc       0x20 drivers/built-in.o
 .rodata.vop_csc_r2y_bt601_12_235
                0x00000000002b9bdc       0x20 drivers/built-in.o
 .rodata.vop_csc_r2y_bt709
                0x00000000002b9bfc       0x20 drivers/built-in.o
 .rodata.write_sparse_image
                0x00000000002b9c1c        0x8 common/built-in.o
 .rodata.xhci_setup_addressable_virt_dev
                0x00000000002b9c24        0xd drivers/usb/host/built-in.o
 *fill*         0x00000000002b9c31        0x3 
 .rodata.xhci_submit_control_msg
                0x00000000002b9c34       0x16 drivers/usb/host/built-in.o
 .rodata.CSWTCH.129
                0x00000000002b9c4a        0x8 common/built-in.o
 .rodata.CSWTCH.36
                0x00000000002b9c52        0x6 drivers/built-in.o
 .rodata.csc_coeff_default
                0x00000000002b9c58       0x18 drivers/built-in.o
 .rodata.csc_coeff_full_to_limited
                0x00000000002b9c70       0x18 drivers/built-in.o
 .rodata.csc_coeff_rgb_in_eitu601
                0x00000000002b9c88       0x18 drivers/built-in.o
 .rodata.csc_coeff_rgb_in_eitu709
                0x00000000002b9ca0       0x18 drivers/built-in.o
 .rodata.csc_coeff_rgb_out_eitu601
                0x00000000002b9cb8       0x18 drivers/built-in.o
 .rodata.csc_coeff_rgb_out_eitu709
                0x00000000002b9cd0       0x18 drivers/built-in.o
 .rodata.dbase.6170
                0x00000000002b9ce8       0x40 lib/built-in.o
 .rodata.dext.6171
                0x00000000002b9d28       0x40 lib/built-in.o
 .rodata.distfix
                0x00000000002b9d68       0x80 lib/built-in.o
 .rodata.est3_modes
                0x00000000002b9de8      0x160 common/built-in.o
 .rodata.extra_modes
                0x00000000002b9f48       0x38 common/built-in.o
 .rodata.lbase.6168
                0x00000000002b9f80       0x3e lib/built-in.o
 .rodata.lenfix
                0x00000000002b9fbe      0x800 lib/built-in.o
 .rodata.lext.6169
                0x00000000002ba7be       0x3e lib/built-in.o
 .rodata.order.6264
                0x00000000002ba7fc       0x26 lib/built-in.o
 .rodata.r8152_versions
                0x00000000002ba822       0x2a drivers/usb/eth/built-in.o
 .rodata.r8152b_pla_patch_a2_bp
                0x00000000002ba84c       0x14 drivers/usb/eth/built-in.o
 .rodata.r8152b_pla_patch_a_bp
                0x00000000002ba860       0x2c drivers/usb/eth/built-in.o
 .rodata.r8152b_ram_code1
                0x00000000002ba88c      0x3cc drivers/usb/eth/built-in.o
 .rodata.r8153_pla_patch_b_bp
                0x00000000002bac58       0x28 drivers/usb/eth/built-in.o
 .rodata.r8153_pla_patch_c_bp
                0x00000000002bac80       0x28 drivers/usb/eth/built-in.o
 .rodata.r8153_ram_code_a
                0x00000000002baca8      0x15c drivers/usb/eth/built-in.o
 .rodata.r8153_ram_code_bc
                0x00000000002bae04       0x80 drivers/usb/eth/built-in.o
 .rodata.r8153_ram_code_d
                0x00000000002bae84       0x60 drivers/usb/eth/built-in.o
 .rodata.r8153_usb_patch_b_bp
                0x00000000002baee4       0x28 drivers/usb/eth/built-in.o
 .rodata.r8153_usb_patch_c_bp
                0x00000000002baf0c       0x24 drivers/usb/eth/built-in.o
 .rodata.r8153_usb_patch_d_bp
                0x00000000002baf30       0x28 drivers/usb/eth/built-in.o
 .rodata.vsnprintf_internal.str2.2
                0x00000000002baf58        0xe lib/built-in.o
 .rodata        0x00000000002baf66       0x10 disk/built-in.o
 .rodata        0x00000000002baf76       0x79 drivers/usb/host/built-in.o
 .rodata        0x00000000002bafef        0x7 net/built-in.o
 .rodata        0x00000000002baff6      0x200 test/built-in.o
 .rodata.AX88179_BULKIN_SIZE
                0x00000000002bb1f6       0x14 drivers/usb/eth/built-in.o
 .rodata.CSWTCH.18
                0x00000000002bb20a        0x4 drivers/built-in.o
 .rodata.CSWTCH.19
                0x00000000002bb20e        0x4 drivers/built-in.o
 .rodata.CSWTCH.32
                0x00000000002bb212        0x4 drivers/built-in.o
 .rodata.CSWTCH.32
                0x00000000002bb216        0x3 drivers/usb/host/built-in.o
 .rodata.CSWTCH.49
                0x00000000002bb219        0x7 drivers/built-in.o
 .rodata.CSWTCH.50
                0x00000000002bb220        0x7 drivers/built-in.o
 .rodata.CSWTCH.58
                0x00000000002bb227        0xb drivers/built-in.o
 .rodata.CSWTCH.65
                0x00000000002bb232        0xb drivers/built-in.o
 .rodata.CSWTCH.92
                0x00000000002bb23d        0x3 drivers/usb/host/built-in.o
 .rodata.OpteeClientApiLibInitialize.str1.1
                0x00000000002bb240       0xa0 lib/built-in.o
 .rodata.OpteeRpcCallback.str1.1
                0x00000000002bb2e0       0x4e lib/built-in.o
 .rodata.__FUNCTION__.6959
                0x00000000002bb32e       0x17 common/built-in.o
 .rodata.__FUNCTION__.7114
                0x00000000002bb345       0x17 common/built-in.o
 .rodata.__do_arch_irq_init.str1.1
                0x00000000002bb35c      0x116 drivers/built-in.o
 .rodata.__dwc3_ep0_do_control_data.str1.1
                0x00000000002bb472       0x17 drivers/usb/dwc3/built-in.o
                                         0x2f (size before relaxing)
 .rodata.__dwc3_gadget_ep_set_halt.str1.1
                0x00000000002bb489       0x53 drivers/usb/dwc3/built-in.o
 .rodata.__dwc3_gadget_kick_transfer.str1.1
                0x00000000002bb4dc       0x1a drivers/usb/dwc3/built-in.o
                                         0x32 (size before relaxing)
 .rodata.__func__.10028
                0x00000000002bb4f6       0x16 drivers/built-in.o
 .rodata.__func__.10118
                0x00000000002bb50c       0x11 drivers/usb/gadget/built-in.o
 .rodata.__func__.10262
                0x00000000002bb51d        0xf drivers/usb/gadget/built-in.o
 .rodata.__func__.5833
                0x00000000002bb52c        0xe cmd/built-in.o
 .rodata.__func__.5839
                0x00000000002bb53a        0xb fs/built-in.o
 .rodata.__func__.5898
                0x00000000002bb545       0x11 lib/built-in.o
 .rodata.__func__.5922
                0x00000000002bb556       0x15 lib/built-in.o
 .rodata.__func__.5923
                0x00000000002bb56b       0x14 disk/built-in.o
 .rodata.__func__.5924
                0x00000000002bb57f       0x15 lib/built-in.o
 .rodata.__func__.5934
                0x00000000002bb594       0x16 lib/built-in.o
 .rodata.__func__.5954
                0x00000000002bb5aa       0x19 lib/built-in.o
 .rodata.__func__.5961
                0x00000000002bb5c3       0x1a lib/built-in.o
 .rodata.__func__.5963
                0x00000000002bb5dd       0x1c cmd/built-in.o
 .rodata.__func__.5969
                0x00000000002bb5f9       0x1b lib/built-in.o
 .rodata.__func__.5972
                0x00000000002bb614       0x1f disk/built-in.o
 .rodata.__func__.5974
                0x00000000002bb633        0xe common/built-in.o
 .rodata.__func__.5978
                0x00000000002bb641       0x27 cmd/built-in.o
 .rodata.__func__.5978
                0x00000000002bb668       0x14 common/built-in.o
 .rodata.__func__.5986
                0x00000000002bb67c       0x12 disk/built-in.o
 .rodata.__func__.5995
                0x00000000002bb68e       0x13 common/built-in.o
 .rodata.__func__.6001
                0x00000000002bb6a1       0x15 disk/built-in.o
 .rodata.__func__.6001
                0x00000000002bb6b6       0x20 lib/built-in.o
 .rodata.__func__.6019
                0x00000000002bb6d6       0x1f lib/built-in.o
 .rodata.__func__.6030
                0x00000000002bb6f5       0x13 common/built-in.o
 .rodata.__func__.6032
                0x00000000002bb708       0x26 lib/built-in.o
 .rodata.__func__.6035
                0x00000000002bb72e       0x15 common/built-in.o
 .rodata.__func__.6039
                0x00000000002bb743       0x15 common/built-in.o
 .rodata.__func__.6046
                0x00000000002bb758       0x25 lib/built-in.o
 .rodata.__func__.6053
                0x00000000002bb77d       0x1f common/built-in.o
 .rodata.__func__.6058
                0x00000000002bb79c       0x25 lib/built-in.o
 .rodata.__func__.6104
                0x00000000002bb7c1       0x1d lib/built-in.o
 .rodata.__func__.6121
                0x00000000002bb7de       0x17 lib/built-in.o
 .rodata.__func__.6134
                0x00000000002bb7f5       0x10 arch/arm/mach-rockchip/built-in.o
 .rodata.__func__.6145
                0x00000000002bb805       0x11 lib/built-in.o
 .rodata.__func__.6153
                0x00000000002bb816        0xc lib/built-in.o
 .rodata.__func__.6160
                0x00000000002bb822       0x13 lib/built-in.o
 .rodata.__func__.6177
                0x00000000002bb835       0x15 lib/built-in.o
 .rodata.__func__.6178
                0x00000000002bb84a        0xd lib/built-in.o
 .rodata.__func__.6185
                0x00000000002bb857        0xc lib/built-in.o
 .rodata.__func__.6193
                0x00000000002bb863       0x15 lib/built-in.o
 .rodata.__func__.6195
                0x00000000002bb878        0xe lib/built-in.o
 .rodata.__func__.6228
                0x00000000002bb886       0x10 lib/built-in.o
 .rodata.__func__.6239
                0x00000000002bb896        0xf lib/built-in.o
 .rodata.__func__.6253
                0x00000000002bb8a5        0x7 cmd/built-in.o
 .rodata.__func__.6265
                0x00000000002bb8ac        0xe lib/built-in.o
 .rodata.__func__.6275
                0x00000000002bb8ba        0xd drivers/built-in.o
 .rodata.__func__.6346
                0x00000000002bb8c7        0xb cmd/built-in.o
 .rodata.__func__.6360
                0x00000000002bb8d2        0xc cmd/built-in.o
 .rodata.__func__.6405
                0x00000000002bb8de        0xa cmd/built-in.o
 .rodata.__func__.6429
                0x00000000002bb8e8       0x1d drivers/built-in.o
 .rodata.__func__.6537
                0x00000000002bb905       0x13 common/built-in.o
 .rodata.__func__.6552
                0x00000000002bb918        0xd common/built-in.o
 .rodata.__func__.6613
                0x00000000002bb925        0xe disk/built-in.o
 .rodata.__func__.6623
                0x00000000002bb933        0xf disk/built-in.o
 .rodata.__func__.6634
                0x00000000002bb942       0x12 disk/built-in.o
 .rodata.__func__.6673
                0x00000000002bb954       0x13 disk/built-in.o
 .rodata.__func__.6736
                0x00000000002bb967        0xc disk/built-in.o
 .rodata.__func__.6754
                0x00000000002bb973       0x13 disk/built-in.o
 .rodata.__func__.6778
                0x00000000002bb986       0x11 disk/built-in.o
 .rodata.__func__.6788
                0x00000000002bb997       0x1d disk/built-in.o
 .rodata.__func__.6795
                0x00000000002bb9b4       0x18 common/built-in.o
 .rodata.__func__.6805
                0x00000000002bb9cc        0xd disk/built-in.o
 .rodata.__func__.6817
                0x00000000002bb9d9       0x17 disk/built-in.o
 .rodata.__func__.6822
                0x00000000002bb9f0        0xd disk/built-in.o
 .rodata.__func__.6959
                0x00000000002bb9fd       0x16 lib/built-in.o
 .rodata.__func__.6973
                0x00000000002bba13       0x14 lib/built-in.o
 .rodata.__func__.6987
                0x00000000002bba27       0x13 lib/built-in.o
 .rodata.__func__.7036
                0x00000000002bba3a       0x1e lib/built-in.o
 .rodata.__func__.7215
                0x00000000002bba58       0x12 common/built-in.o
 .rodata.__func__.7242
                0x00000000002bba6a        0xe drivers/built-in.o
 .rodata.__func__.7292
                0x00000000002bba78       0x1e lib/built-in.o
 .rodata.__func__.7335
                0x00000000002bba96       0x11 common/built-in.o
 .rodata.__func__.7360
                0x00000000002bbaa7       0x1f common/built-in.o
 .rodata.__func__.7361
                0x00000000002bbac6        0xc drivers/built-in.o
 .rodata.__func__.7394
                0x00000000002bbad2       0x14 drivers/built-in.o
 .rodata.__func__.7417
                0x00000000002bbae6       0x13 drivers/built-in.o
 .rodata.__func__.7430
                0x00000000002bbaf9       0x10 drivers/built-in.o
 .rodata.__func__.7478
                0x00000000002bbb09        0xb drivers/built-in.o
 .rodata.__func__.7518
                0x00000000002bbb14       0x10 drivers/built-in.o
 .rodata.__func__.7553
                0x00000000002bbb24       0x12 drivers/built-in.o
 .rodata.__func__.7555
                0x00000000002bbb36       0x14 arch/arm/mach-rockchip/built-in.o
 .rodata.__func__.7570
                0x00000000002bbb4a       0x11 drivers/built-in.o
 .rodata.__func__.7676
                0x00000000002bbb5b       0x1e drivers/built-in.o
 .rodata.__func__.7702
                0x00000000002bbb79       0x11 drivers/power/io-domain/built-in.o
 .rodata.__func__.7761
                0x00000000002bbb8a       0x1a drivers/built-in.o
 .rodata.__func__.7788
                0x00000000002bbba4        0xe drivers/built-in.o
 .rodata.__func__.7794
                0x00000000002bbbb2        0xa drivers/built-in.o
 .rodata.__func__.7806
                0x00000000002bbbbc        0xd drivers/built-in.o
 .rodata.__func__.7809
                0x00000000002bbbc9        0xe drivers/built-in.o
 .rodata.__func__.7812
                0x00000000002bbbd7       0x11 drivers/built-in.o
 .rodata.__func__.7816
                0x00000000002bbbe8       0x18 drivers/built-in.o
 .rodata.__func__.7820
                0x00000000002bbc00       0x18 drivers/built-in.o
 .rodata.__func__.7824
                0x00000000002bbc18        0xd drivers/built-in.o
 .rodata.__func__.7828
                0x00000000002bbc25       0x14 drivers/built-in.o
 .rodata.__func__.7832
                0x00000000002bbc39       0x14 drivers/built-in.o
 .rodata.__func__.7856
                0x00000000002bbc4d       0x13 drivers/usb/host/built-in.o
 .rodata.__func__.7891
                0x00000000002bbc60       0x14 drivers/usb/host/built-in.o
 .rodata.__func__.7902
                0x00000000002bbc74        0x9 drivers/usb/host/built-in.o
 .rodata.__func__.7912
                0x00000000002bbc7d       0x17 drivers/usb/host/built-in.o
 .rodata.__func__.7920
                0x00000000002bbc94        0xc drivers/power/pmic/built-in.o
 .rodata.__func__.7924
                0x00000000002bbca0       0x18 test/built-in.o
 .rodata.__func__.7928
                0x00000000002bbcb8        0xb drivers/power/pmic/built-in.o
 .rodata.__func__.7940
                0x00000000002bbcc3       0x10 drivers/built-in.o
 .rodata.__func__.7956
                0x00000000002bbcd3        0xd drivers/usb/host/built-in.o
 .rodata.__func__.7959
                0x00000000002bbce0       0x12 test/built-in.o
 .rodata.__func__.7964
                0x00000000002bbcf2        0xf drivers/power/pmic/built-in.o
 .rodata.__func__.7980
                0x00000000002bbd01        0xd drivers/usb/host/built-in.o
 .rodata.__func__.8031
                0x00000000002bbd0e        0xc drivers/power/pmic/built-in.o
 .rodata.__func__.8034
                0x00000000002bbd1a       0x13 drivers/built-in.o
 .rodata.__func__.8044
                0x00000000002bbd2d       0x13 drivers/built-in.o
 .rodata.__func__.8117
                0x00000000002bbd40       0x14 drivers/built-in.o
 .rodata.__func__.8129
                0x00000000002bbd54        0x9 drivers/built-in.o
 .rodata.__func__.8145
                0x00000000002bbd5d       0x19 drivers/built-in.o
 .rodata.__func__.8167
                0x00000000002bbd76       0x1e drivers/built-in.o
 .rodata.__func__.8172
                0x00000000002bbd94       0x16 drivers/built-in.o
 .rodata.__func__.8198
                0x00000000002bbdaa        0xd drivers/usb/gadget/built-in.o
 .rodata.__func__.8248
                0x00000000002bbdb7       0x13 drivers/built-in.o
 .rodata.__func__.8351
                0x00000000002bbdca       0x15 common/built-in.o
 .rodata.__func__.8434
                0x00000000002bbddf       0x11 drivers/usb/host/built-in.o
 .rodata.__func__.8439
                0x00000000002bbdf0       0x11 drivers/usb/host/built-in.o
 .rodata.__func__.8448
                0x00000000002bbe01        0xf drivers/usb/host/built-in.o
 .rodata.__func__.8483
                0x00000000002bbe10        0xc drivers/usb/host/built-in.o
 .rodata.__func__.8488
                0x00000000002bbe1c        0xb arch/arm/mach-rockchip/built-in.o
 .rodata.__func__.8498
                0x00000000002bbe27       0x13 drivers/usb/host/built-in.o
 .rodata.__func__.8505
                0x00000000002bbe3a       0x10 drivers/usb/host/built-in.o
 .rodata.__func__.8513
                0x00000000002bbe4a       0x1b drivers/usb/host/built-in.o
 .rodata.__func__.8525
                0x00000000002bbe65       0x16 drivers/usb/host/built-in.o
 .rodata.__func__.8536
                0x00000000002bbe7b       0x19 drivers/usb/host/built-in.o
 .rodata.__func__.8538
                0x00000000002bbe94        0xd drivers/built-in.o
 .rodata.__func__.8539
                0x00000000002bbea1       0x19 drivers/usb/host/built-in.o
 .rodata.__func__.8568
                0x00000000002bbeba       0x1b drivers/usb/host/built-in.o
 .rodata.__func__.8583
                0x00000000002bbed5       0x14 arch/arm/mach-rockchip/built-in.o
 .rodata.__func__.8588
                0x00000000002bbee9       0x14 drivers/usb/host/built-in.o
 .rodata.__func__.8595
                0x00000000002bbefd       0x13 drivers/usb/dwc3/built-in.o
 .rodata.__func__.8602
                0x00000000002bbf10       0x13 drivers/usb/host/built-in.o
 .rodata.__func__.8612
                0x00000000002bbf23       0x20 drivers/usb/host/built-in.o
 .rodata.__func__.8636
                0x00000000002bbf43       0x15 arch/arm/mach-rockchip/built-in.o
 .rodata.__func__.8636
                0x00000000002bbf58       0x18 drivers/power/built-in.o
 .rodata.__func__.8661
                0x00000000002bbf70       0x1c drivers/usb/dwc3/built-in.o
 .rodata.__func__.8686
                0x00000000002bbf8c       0x17 drivers/usb/dwc3/built-in.o
 .rodata.__func__.8695
                0x00000000002bbfa3       0x16 drivers/usb/dwc3/built-in.o
 .rodata.__func__.8735
                0x00000000002bbfb9       0x17 drivers/usb/host/built-in.o
 .rodata.__func__.8755
                0x00000000002bbfd0       0x17 drivers/usb/dwc3/built-in.o
 .rodata.__func__.8789
                0x00000000002bbfe7       0x1b drivers/usb/dwc3/built-in.o
 .rodata.__func__.8798
                0x00000000002bc002       0x17 drivers/usb/host/built-in.o
 .rodata.__func__.8801
                0x00000000002bc019       0x1d drivers/usb/dwc3/built-in.o
 .rodata.__func__.8818
                0x00000000002bc036       0x1a drivers/usb/dwc3/built-in.o
 .rodata.__func__.8832
                0x00000000002bc050       0x16 drivers/usb/dwc3/built-in.o
 .rodata.__func__.8871
                0x00000000002bc066       0x12 drivers/built-in.o
 .rodata.__func__.8889
                0x00000000002bc078       0x15 drivers/built-in.o
 .rodata.__func__.8901
                0x00000000002bc08d       0x17 drivers/usb/dwc3/built-in.o
 .rodata.__func__.8943
                0x00000000002bc0a4        0xd drivers/built-in.o
 .rodata.__func__.8949
                0x00000000002bc0b1       0x16 drivers/built-in.o
 .rodata.__func__.8959
                0x00000000002bc0c7       0x1a drivers/usb/dwc3/built-in.o
 .rodata.__func__.8961
                0x00000000002bc0e1       0x15 drivers/built-in.o
 .rodata.__func__.8962
                0x00000000002bc0f6       0x1f drivers/built-in.o
 .rodata.__func__.8982
                0x00000000002bc115       0x18 drivers/usb/dwc3/built-in.o
 .rodata.__func__.8985
                0x00000000002bc12d       0x1b drivers/built-in.o
 .rodata.__func__.9003
                0x00000000002bc148       0x23 drivers/built-in.o
 .rodata.__func__.9062
                0x00000000002bc16b       0x16 drivers/built-in.o
 .rodata.__func__.9108
                0x00000000002bc181       0x1a drivers/built-in.o
 .rodata.__func__.9114
                0x00000000002bc19b       0x1b drivers/built-in.o
 .rodata.__func__.9122
                0x00000000002bc1b6       0x1a drivers/built-in.o
 .rodata.__func__.9130
                0x00000000002bc1d0       0x16 drivers/built-in.o
 .rodata.__func__.9235
                0x00000000002bc1e6       0x1b drivers/built-in.o
 .rodata.__func__.9535
                0x00000000002bc201       0x15 arch/arm/mach-rockchip/built-in.o
 .rodata.__func__.9540
                0x00000000002bc216       0x11 drivers/built-in.o
 .rodata.__func__.9555
                0x00000000002bc227       0x12 drivers/built-in.o
 .rodata.__func__.9558
                0x00000000002bc239       0x16 arch/arm/mach-rockchip/built-in.o
 .rodata.__func__.9928
                0x00000000002bc24f       0x19 drivers/built-in.o
 .rodata.__func__.9970
                0x00000000002bc268       0x14 drivers/built-in.o
 .rodata.__func__.9978
                0x00000000002bc27c        0xe drivers/built-in.o
 .rodata.__generic_gpio_handle_irq.str1.1
                0x00000000002bc28a       0x24 drivers/built-in.o
 .rodata.__of_parse_phandle_with_args.constprop.2.str1.1
                0x00000000002bc2ae       0x31 drivers/built-in.o
 .rodata.__virq_enable.str1.1
                0x00000000002bc2df       0x26 drivers/built-in.o
 .rodata._ctype
                0x00000000002bc305      0x100 lib/built-in.o
                0x00000000002bc305                _ctype
 .rodata._do_env_set.isra.1.str1.1
                0x00000000002bc405       0x7c cmd/built-in.o
 .rodata._do_help.str1.1
                0x00000000002bc481       0x5f common/built-in.o
 .rodata._ehci_create_int_queue.isra.5.str1.1
                0x00000000002bc4e0       0x3d drivers/usb/host/built-in.o
 .rodata._ehci_destroy_int_queue.str1.1
                0x00000000002bc51d       0x2d drivers/usb/host/built-in.o
 .rodata.adc_key_bus_bind.str1.1
                0x00000000002bc54a        0x8 drivers/built-in.o
 .rodata.adc_key_ofdata_to_platdata.str1.1
                0x00000000002bc552       0xa7 drivers/built-in.o
                                         0xad (size before relaxing)
 .rodata.adc_pre_probe.str1.1
                0x00000000002bc5f9       0x2c drivers/built-in.o
 .rodata.add_file_to_list.str1.1
                0x00000000002bc625       0x27 arch/arm/mach-rockchip/built-in.o
 .rodata.analogix_dp_connector_enable.str1.1
                0x00000000002bc64c      0x178 drivers/built-in.o
 .rodata.analogix_dp_connector_get_edid.str1.1
                0x00000000002bc7c4       0x14 drivers/built-in.o
 .rodata.analogix_dp_probe.str1.1
                0x00000000002bc7c4       0x51 drivers/built-in.o
                                         0x58 (size before relaxing)
 .rodata.analogix_dp_set_link_bandwidth.str1.1
                0x00000000002bc815       0x3d drivers/built-in.o
 .rodata.analogix_dp_start_aux_transaction.str1.1
                0x00000000002bc852       0x38 drivers/built-in.o
 .rodata.android_assemble_cmdline.str1.1
                0x00000000002bc88a       0x45 common/built-in.o
                                         0x4d (size before relaxing)
 .rodata.android_bcb_write.str1.1
                0x00000000002bc8cf       0x37 common/built-in.o
                                         0x53 (size before relaxing)
 .rodata.android_bootloader_boot_flow.str1.1
                0x00000000002bc906      0x1c9 common/built-in.o
                                        0x204 (size before relaxing)
 .rodata.android_bootloader_boot_kernel.str1.1
                0x00000000002bcacf       0x47 common/built-in.o
                                         0x81 (size before relaxing)
 .rodata.android_bootloader_message_load.str1.1
                0x00000000002bcb16       0x24 common/built-in.o
 .rodata.android_bootloader_message_write.str1.1
                0x00000000002bcb3a       0x3e common/built-in.o
 .rodata.android_dt_get_fdt_by_index.str1.1
                0x00000000002bcb78       0x29 common/built-in.o
 .rodata.android_dt_print_contents.str1.1
                0x00000000002bcba1      0x1ed common/built-in.o
                                        0x1fa (size before relaxing)
 .rodata.android_fdt_overlay_apply.str1.1
                0x00000000002bcd8e       0xde common/built-in.o
                                         0xe8 (size before relaxing)
 .rodata.android_image_check_header.str1.1
                0x00000000002bce6c        0x9 common/built-in.o
 .rodata.android_image_get_comp_addr.str1.1
                0x00000000002bce75       0x28 common/built-in.o
 .rodata.android_image_get_kernel.str1.1
                0x00000000002bce9d       0x72 common/built-in.o
                                         0x7d (size before relaxing)
 .rodata.android_image_get_ramdisk.str1.1
                0x00000000002bcf0f       0x63 common/built-in.o
                                         0x70 (size before relaxing)
 .rodata.android_image_load.str1.1
                0x00000000002bcf72       0x34 common/built-in.o
 .rodata.android_image_load_by_partname.str1.1
                0x00000000002bcfa6       0x19 common/built-in.o
 .rodata.android_image_separate.str1.1
                0x00000000002bcfbf       0x1a common/built-in.o
                                         0x2b (size before relaxing)
 .rodata.android_image_set_decomp.str1.1
                0x00000000002bcfd9        0x8 common/built-in.o
                                         0x16 (size before relaxing)
 .rodata.android_print_contents.str1.1
                0x00000000002bcfe1      0x263 common/built-in.o
                                        0x267 (size before relaxing)
 .rodata.android_slot_verify.str1.1
                0x00000000002bd244      0x130 common/built-in.o
                                        0x187 (size before relaxing)
 .rodata.announce_dram_init.str1.1
                0x00000000002bd374        0x8 common/built-in.o
 .rodata.announce_serial.str1.1
                0x00000000002bd37c       0x26 common/built-in.o
 .rodata.arasan_sdhci_probe.str1.1
                0x00000000002bd3a2       0x55 drivers/built-in.o
                                         0x7c (size before relaxing)
 .rodata.arch_fixup_fdt.str1.1
                0x00000000002bd3f7       0x33 arch/arm/lib/built-in.o
 .rodata.arp_receive.str1.1
                0x00000000002bd42a       0x14 net/built-in.o
 .rodata.arp_request.str1.1
                0x00000000002bd43e       0x2a net/built-in.o
 .rodata.arp_timeout_check.str1.1
                0x00000000002bd468       0x2b net/built-in.o
 .rodata.asix_eth_start.str1.1
                0x00000000002bd493       0x3f drivers/usb/eth/built-in.o
 .rodata.asix_wait_link.str1.1
                0x00000000002bd4d2       0x3f drivers/usb/eth/built-in.o
 .rodata.atags_overflow.str1.1
                0x00000000002bd4d2       0x11 arch/arm/mach-rockchip/built-in.o
 .rodata.atags_print_tag.str1.1
                0x00000000002bd4e3      0x2f3 arch/arm/mach-rockchip/built-in.o
                                        0x342 (size before relaxing)
 .rodata.atags_stat.str1.1
                0x00000000002bd7d6       0x8b arch/arm/mach-rockchip/built-in.o
 .rodata.autoboot_command.str1.1
                0x00000000002bd861       0x37 common/built-in.o
 .rodata.avb_ab_data_read.str1.1
                0x00000000002bd898       0x77 lib/built-in.o
 .rodata.avb_ab_data_verify_and_byteswap.str1.1
                0x00000000002bd90f       0x3c lib/built-in.o
                                         0x51 (size before relaxing)
 .rodata.avb_ab_data_write.str1.1
                0x00000000002bd94b       0x1d lib/built-in.o
                                         0x22 (size before relaxing)
 .rodata.avb_add_root_digest_substitution.str1.1
                0x00000000002bd968       0x15 lib/built-in.o
 .rodata.avb_append_options.str1.1
                0x00000000002bd97d      0x1b1 lib/built-in.o
                                        0x1dc (size before relaxing)
 .rodata.avb_atx_generate_unlock_challenge.str1.1
                0x00000000002bdb2e       0x2a lib/built-in.o
                                         0x2e (size before relaxing)
 .rodata.avb_atx_validate_vbmeta_public_key.str1.1
                0x00000000002bdb58      0x18b lib/built-in.o
 .rodata.avb_chain_partition_descriptor_validate_and_byteswap.str1.1
                0x00000000002bdce3       0xd3 lib/built-in.o
                                         0xe1 (size before relaxing)
 .rodata.avb_descriptor_foreach.str1.1
                0x00000000002bddb6       0xe3 lib/built-in.o
                                         0xec (size before relaxing)
 .rodata.avb_descriptor_validate_and_byteswap.str1.1
                0x00000000002bde99       0x48 lib/built-in.o
                                         0x57 (size before relaxing)
 .rodata.avb_footer_validate_and_byteswap.str1.1
                0x00000000002bdee1       0x63 lib/built-in.o
                                         0x6f (size before relaxing)
 .rodata.avb_hash_descriptor_validate_and_byteswap.str1.1
                0x00000000002bdf44       0x47 lib/built-in.o
                                         0xa0 (size before relaxing)
 .rodata.avb_hashtree_descriptor_validate_and_byteswap.str1.1
                0x00000000002bdf8b       0x4f lib/built-in.o
                                         0xa8 (size before relaxing)
 .rodata.avb_kernel_cmdline_descriptor_validate_and_byteswap.str1.1
                0x00000000002bdfda       0x5b lib/built-in.o
                                         0xb4 (size before relaxing)
 .rodata.avb_malloc.str1.1
                0x00000000002be035       0x20 lib/built-in.o
 .rodata.avb_ops_user_new.str1.1
                0x00000000002be055       0x74 lib/built-in.o
 .rodata.avb_print.str1.1
                0x00000000002be0c9        0x3 lib/built-in.o
 .rodata.avb_rsa_verify.str1.1
                0x00000000002be0c9      0x151 lib/built-in.o
                                        0x166 (size before relaxing)
 .rodata.avb_safe_add_to.str1.1
                0x00000000002be21a       0x38 lib/built-in.o
                                         0x48 (size before relaxing)
 .rodata.avb_set_key_version.str1.1
                0x00000000002be252       0x66 lib/built-in.o
 .rodata.avb_sha256_init.str1.1
                0x00000000002be2b8       0x3c lib/built-in.o
                                         0x4b (size before relaxing)
 .rodata.avb_slot_verify.str1.1
                0x00000000002be2f4      0x2e1 lib/built-in.o
                                        0x2e9 (size before relaxing)
 .rodata.avb_slot_verify_data_calculate_vbmeta_digest.str1.1
                0x00000000002be5d5       0x23 lib/built-in.o
 .rodata.avb_str_concat.str1.1
                0x00000000002be5f8       0x48 lib/built-in.o
 .rodata.avb_strdupv.str1.1
                0x00000000002be640       0x4c lib/built-in.o
                                         0x56 (size before relaxing)
 .rodata.avb_sub_cmdline.str1.1
                0x00000000002be68c       0x89 lib/built-in.o
                                         0xe4 (size before relaxing)
 .rodata.avb_vbmeta_image_verify.str1.1
                0x00000000002be715      0x26d lib/built-in.o
                                        0x2c2 (size before relaxing)
 .rodata.avb_vbmeta_verify_result_to_string.str1.1
                0x00000000002be982       0x2a lib/built-in.o
                                         0x34 (size before relaxing)
 .rodata.avb_version_string.str1.1
                0x00000000002be9ac        0x6 lib/built-in.o
 .rodata.ax88179_eth_start.str1.1
                0x00000000002be9b2       0x17 drivers/usb/eth/built-in.o
 .rodata.b_addqchr.str1.1
                0x00000000002be9c9        0x5 common/built-in.o
 .rodata.bad_irq.str1.1
                0x00000000002be9ce       0x47 drivers/built-in.o
 .rodata.bad_magic.str1.1
                0x00000000002bea15       0x1a arch/arm/mach-rockchip/built-in.o
 .rodata.bidram_core_reserve.str1.1
                0x00000000002bea2f      0x160 lib/built-in.o
 .rodata.bidram_dump.str1.1
                0x00000000002beb8f       0xe2 lib/built-in.o
                                        0x226 (size before relaxing)
 .rodata.bidram_get_ram_size.str1.1
                0x00000000002bec71      0x1a3 lib/built-in.o
                                        0x1a8 (size before relaxing)
 .rodata.bidram_has_init.str1.1
                0x00000000002bee14       0x2c lib/built-in.o
 .rodata.blk_common_cmd.str1.1
                0x00000000002bee40       0xed cmd/built-in.o
                                        0x101 (size before relaxing)
 .rodata.blk_create_devicef.str1.1
                0x00000000002bef2d        0x6 drivers/built-in.o
 .rodata.blk_get_device_by_str.str1.1
                0x00000000002bef2d       0x6a disk/built-in.o
 .rodata.blk_get_device_part_str.str1.1
                0x00000000002bef97      0x102 disk/built-in.o
                                        0x109 (size before relaxing)
 .rodata.blk_list_devices.str1.1
                0x00000000002bf099       0x1e drivers/built-in.o
                                          0xc (size before relaxing)
 .rodata.blk_print_device_num.str1.1
                0x00000000002bf099       0x11 drivers/built-in.o
 .rodata.blk_show_device.str1.1
                0x00000000002bf0aa       0x1d drivers/built-in.o
 .rodata.bmpdecoder.str1.1
                0x00000000002bf0c7       0x80 drivers/built-in.o
 .rodata.board_do_bootm.str1.1
                0x00000000002bf147       0xa7 arch/arm/mach-rockchip/built-in.o
 .rodata.board_init.str1.1
                0x00000000002bf1ee       0x2b arch/arm/mach-rockchip/built-in.o
                                         0x34 (size before relaxing)
 .rodata.board_late_init.str1.1
                0x00000000002bf219       0xb7 arch/arm/mach-rockchip/built-in.o
                                         0xc0 (size before relaxing)
 .rodata.board_lmb_reserve.str1.1
                0x00000000002bf2d0       0x18 arch/arm/mach-rockchip/built-in.o
                                         0x1f (size before relaxing)
 .rodata.board_mmc_dm_reinit.str1.1
                0x00000000002bf2e8        0x9 drivers/built-in.o
                                          0x6 (size before relaxing)
 .rodata.boot_devtype_init.str1.1
                0x00000000002bf2e8       0x34 arch/arm/mach-rockchip/built-in.o
                                         0x42 (size before relaxing)
 .rodata.boot_fdt_add_mem_rsv_regions.str1.1
                0x00000000002bf31c       0x7b common/built-in.o
                                         0x86 (size before relaxing)
 .rodata.boot_fdt_add_sysmem_rsv_regions.str1.1
                0x00000000002bf397       0x16 common/built-in.o
 .rodata.boot_get_fdt.str1.1
                0x00000000002bf3ad      0x1a4 common/built-in.o
                                        0x1c3 (size before relaxing)
 .rodata.boot_get_fdt_fit.str1.1
                0x00000000002bf551       0x4f common/built-in.o
 .rodata.boot_get_loadable.str1.1
                0x00000000002bf5a0       0x3e common/built-in.o
 .rodata.boot_get_ramdisk.str1.1
                0x00000000002bf5de       0xb7 common/built-in.o
                                        0x115 (size before relaxing)
 .rodata.boot_get_setup_fit.str1.1
                0x00000000002bf695       0x4f common/built-in.o
                                          0x6 (size before relaxing)
 .rodata.boot_jump_linux.str1.1
                0x00000000002bf695       0x43 arch/arm/lib/built-in.o
                                         0x44 (size before relaxing)
 .rodata.boot_prep_linux.str1.1
                0x00000000002bf6d8       0x29 arch/arm/lib/built-in.o
 .rodata.boot_prep_vxworks.str1.1
                0x00000000002bf701       0x2a arch/arm/lib/built-in.o
 .rodata.boot_ramdisk_high.str1.1
                0x00000000002bf72b       0x57 common/built-in.o
                                         0x63 (size before relaxing)
 .rodata.boot_relocate_fdt.str1.1
                0x00000000002bf782       0xc6 common/built-in.o
                                         0xe2 (size before relaxing)
 .rodata.bootdelay_process.str1.1
                0x00000000002bf848       0x3a common/built-in.o
                                         0x42 (size before relaxing)
 .rodata.bootm_board_start.str1.1
                0x00000000002bf882       0x62 arch/arm/mach-rockchip/built-in.o
 .rodata.bootm_decomp_image.str1.1
                0x00000000002bf8e4      0x114 common/built-in.o
                                        0x118 (size before relaxing)
 .rodata.bootm_disable_interrupts.str1.1
                0x00000000002bf9f8        0xc common/built-in.o
 .rodata.bootm_find_images.str1.1
                0x00000000002bf9f8       0x6c common/built-in.o
 .rodata.bootm_maybe_autostart.str1.1
                0x00000000002bfa64       0x37 cmd/built-in.o
                                         0x3b (size before relaxing)
 .rodata.bootp_request.str1.1
                0x00000000002bfa9b       0x25 net/built-in.o
 .rodata.bootp_timeout_handler.str1.1
                0x00000000002bfac0       0x26 net/built-in.o
 .rodata.bq25700_ofdata_to_platdata.str1.1
                0x00000000002bfae6       0x51 drivers/power/charge/built-in.o
 .rodata.buck_set_ramp_delay.str1.1
                0x00000000002bfb37       0x25 drivers/power/regulator/built-in.o
 .rodata.cb_download.str1.1
                0x00000000002bfb5c       0x32 drivers/usb/gadget/built-in.o
 .rodata.cb_flash.str1.1
                0x00000000002bfb8e       0xc7 drivers/usb/gadget/built-in.o
                                         0xe0 (size before relaxing)
 .rodata.cb_flashing.str1.1
                0x00000000002bfc55       0x6e drivers/usb/gadget/built-in.o
                                         0x8c (size before relaxing)
 .rodata.cb_getvar.str1.1
                0x00000000002bfcc3       0xd8 drivers/usb/gadget/built-in.o
                                         0xeb (size before relaxing)
 .rodata.cb_oem.str1.1
                0x00000000002bfd9b      0x462 drivers/usb/gadget/built-in.o
                                        0x47a (size before relaxing)
 .rodata.cb_reboot.str1.1
                0x00000000002c01fd       0x75 drivers/usb/gadget/built-in.o
                                         0xa3 (size before relaxing)
 .rodata.cb_set_active.str1.1
                0x00000000002c0272       0x2b drivers/usb/gadget/built-in.o
                                         0x41 (size before relaxing)
 .rodata.cb_upload.str1.1
                0x00000000002c029d       0x3c drivers/usb/gadget/built-in.o
 .rodata.charge_animation_ofdata_to_platdata.str1.1
                0x00000000002c02d9      0x14f drivers/power/built-in.o
 .rodata.charge_animation_probe.str1.1
                0x00000000002c0428       0x4e drivers/power/built-in.o
 .rodata.charge_animation_show.str1.1
                0x00000000002c0476      0x443 drivers/power/built-in.o
                                        0x49a (size before relaxing)
 .rodata.check_channel.str1.1
                0x00000000002c08b9       0x53 drivers/built-in.o
 .rodata.check_command.isra.23.str1.1
                0x00000000002c090c        0x9 drivers/usb/gadget/built-in.o
 .rodata.check_reserved.str1.1
                0x00000000002c0915       0x27 drivers/gpio/built-in.o
                                         0x28 (size before relaxing)
 .rodata.check_security_exist.constprop.11.str1.1
                0x00000000002c093c       0x2a lib/built-in.o
 .rodata.check_security_exist.str1.1
                0x00000000002c093c       0x29 lib/built-in.o
                                         0x53 (size before relaxing)
 .rodata.cli_process_fdt.str1.1
                0x00000000002c0965        0xb common/built-in.o
                                         0x13 (size before relaxing)
 .rodata.cli_readline_into_buffer.str1.1
                0x00000000002c0970        0x4 common/built-in.o
                                          0x8 (size before relaxing)
 .rodata.cli_secure_boot_cmd.str1.1
                0x00000000002c0974       0x50 common/built-in.o
 .rodata.clk_fixed_rate_ofdata_to_platdata.str1.1
                0x00000000002c09c4       0x10 drivers/built-in.o
 .rodata.clk_get_by_index.str1.1
                0x00000000002c09d4        0x7 drivers/built-in.o
 .rodata.clk_get_by_indexed_prop.str1.1
                0x00000000002c09d4        0xd drivers/built-in.o
 .rodata.clk_get_by_name.str1.1
                0x00000000002c09d4        0xc drivers/built-in.o
 .rodata.clk_set_defaults.str1.1
                0x00000000002c09e0       0x2c drivers/built-in.o
                                         0x3c (size before relaxing)
 .rodata.clks_probe.str1.1
                0x00000000002c0a0c       0x17 drivers/built-in.o
 .rodata.cmd_auto_complete.str1.1
                0x00000000002c0a23       0x5f common/built-in.o
                                          0xf (size before relaxing)
 .rodata.cmd_process.str1.1
                0x00000000002c0a23       0x3f common/built-in.o
 .rodata.cmd_process_error.str1.1
                0x00000000002c0a62       0x1f common/built-in.o
 .rodata.cmd_usage.str1.1
                0x00000000002c0a81       0x36 common/built-in.o
 .rodata.common_diskboot.str1.1
                0x00000000002c0ab7       0xbf cmd/built-in.o
 .rodata.compile.str1.1
                0x00000000002c0b76       0x4a lib/built-in.o
 .rodata.composite_setup.str1.1
                0x00000000002c0bc0        0xe drivers/usb/gadget/built-in.o
 .rodata.composite_unbind.str1.1
                0x00000000002c0bc0       0x1f drivers/usb/gadget/built-in.o
                                         0x38 (size before relaxing)
 .rodata.confirm_yesno.str1.1
                0x00000000002c0bdf       0x10 common/built-in.o
 .rodata.console_announce_r.str1.1
                0x00000000002c0bef        0x7 common/built-in.o
 .rodata.cread_add_char.str1.1
                0x00000000002c0bef        0x4 common/built-in.o
                                          0x5 (size before relaxing)
 .rodata.create_table.str1.1
                0x00000000002c0bef       0x62 arch/arm/cpu/armv8/built-in.o
 .rodata.crypto_algo_nbits.str1.1
                0x00000000002c0c51       0x20 drivers/built-in.o
 .rodata.crypto_csum.str1.1
                0x00000000002c0c71       0x23 arch/arm/mach-rockchip/built-in.o
 .rodata.default_environment
                0x00000000002c0c94      0xbeb env/built-in.o
                0x00000000002c0c94                default_environment
 .rodata.designware_eth_init.str1.1
                0x00000000002c187f       0x63 drivers/net/built-in.o
                                         0x6e (size before relaxing)
 .rodata.designware_eth_ofdata_to_platdata.str1.1
                0x00000000002c18e2       0x4e drivers/net/built-in.o
 .rodata.designware_eth_probe.str1.1
                0x00000000002c1930       0x38 drivers/net/built-in.o
                                         0x46 (size before relaxing)
 .rodata.designware_eth_send.str1.1
                0x00000000002c1968       0x1b drivers/net/built-in.o
 .rodata.dev_get_platdata.str1.1
                0x00000000002c1983       0x11 drivers/built-in.o
 .rodata.dev_print.str1.1
                0x00000000002c1994      0x14d disk/built-in.o
                                        0x15e (size before relaxing)
 .rodata.devfdt_get_addr_index.str1.1
                0x00000000002c1ae1        0x4 drivers/built-in.o
 .rodata.device_bind_common.isra.0.str1.1
                0x00000000002c1ae1       0x5b drivers/built-in.o
                                         0x7d (size before relaxing)
 .rodata.device_probe.str1.1
                0x00000000002c1b3c       0x30 drivers/built-in.o
                                         0x38 (size before relaxing)
 .rodata.device_remove.str1.1
                0x00000000002c1b6c       0x98 drivers/built-in.o
 .rodata.dhcp_extended.str1.1
                0x00000000002c1c04       0x37 net/built-in.o
                                         0x3f (size before relaxing)
 .rodata.dhcp_handler.str1.1
                0x00000000002c1c3b       0x41 net/built-in.o
                                         0x4a (size before relaxing)
 .rodata.dhcp_process_options.str1.1
                0x00000000002c1c7c       0x78 net/built-in.o
 .rodata.digits.6473
                0x00000000002c1cf4       0x10 lib/built-in.o
 .rodata.dirletter.10553
                0x00000000002c1d04        0x4 drivers/usb/gadget/built-in.o
 .rodata.disable_periodic.isra.1.str1.1
                0x00000000002c1d08       0x33 drivers/usb/host/built-in.o
 .rodata.disk_write.str1.1
                0x00000000002c1d3b       0x18 fs/built-in.o
 .rodata.display_logo.str1.1
                0x00000000002c1d53      0x236 drivers/built-in.o
                                        0x271 (size before relaxing)
 .rodata.display_options.str1.1
                0x00000000002c1f89        0x3 lib/built-in.o
 .rodata.display_options_get_banner_priv.str1.1
                0x00000000002c1f89        0xc lib/built-in.o
                                         0x15 (size before relaxing)
 .rodata.dm_dump_all.str1.1
                0x00000000002c1f95       0x8c drivers/built-in.o
 .rodata.dm_dump_uclass.str1.1
                0x00000000002c2021       0x51 drivers/built-in.o
                                         0x53 (size before relaxing)
 .rodata.dm_extended_scan_fdt.str1.1
                0x00000000002c2072        0x8 drivers/built-in.o
 .rodata.dm_fdt_pre_reloc.str1.1
                0x00000000002c207a        0xe drivers/built-in.o
                                         0x30 (size before relaxing)
 .rodata.dm_gpio_get_value.str1.1
                0x00000000002c2088        0xa drivers/gpio/built-in.o
 .rodata.dm_gpio_set_dir_flags.str1.1
                0x00000000002c2092        0x8 drivers/gpio/built-in.o
 .rodata.dm_gpio_set_value.str1.1
                0x00000000002c209a        0xa drivers/gpio/built-in.o
 .rodata.dm_init.str1.1
                0x00000000002c20a4       0x25 drivers/built-in.o
 .rodata.dm_mmc_send_cmd.str1.1
                0x00000000002c20c9       0x2b drivers/built-in.o
 .rodata.dm_root.str1.1
                0x00000000002c20f4       0x25 drivers/built-in.o
 .rodata.dm_scan_fdt_live.isra.0.str1.1
                0x00000000002c2119       0x2b drivers/built-in.o
 .rodata.dm_scan_fdt_node.str1.1
                0x00000000002c2119       0x1d drivers/built-in.o
 .rodata.dm_scan_platdata.str1.1
                0x00000000002c2136       0x1d drivers/built-in.o
 .rodata.do_android_print_hdr.str1.1
                0x00000000002c2153       0x3f cmd/built-in.o
                                         0x52 (size before relaxing)
 .rodata.do_avb_get_get_unique_guid_for_partition.str1.1
                0x00000000002c2192       0x39 cmd/built-in.o
 .rodata.do_avb_get_size_of_partition.str1.1
                0x00000000002c21cb       0x3c cmd/built-in.o
 .rodata.do_avb_read.str1.1
                0x00000000002c2207       0x3a cmd/built-in.o
 .rodata.do_avb_read_is_device_unlocked.str1.1
                0x00000000002c2241       0x44 cmd/built-in.o
                                         0x4b (size before relaxing)
 .rodata.do_avb_read_rollback_index.str1.1
                0x00000000002c2285       0x3f cmd/built-in.o
                                         0x5b (size before relaxing)
 .rodata.do_avb_verify_partition.str1.1
                0x00000000002c22c4        0x6 cmd/built-in.o
 .rodata.do_avb_version.str1.1
                0x00000000002c22ca       0x1c cmd/built-in.o
 .rodata.do_avb_write_is_device_unlocked.str1.1
                0x00000000002c22e6       0x58 cmd/built-in.o
 .rodata.do_avb_write_rollback_index.str1.1
                0x00000000002c233e       0x4a cmd/built-in.o
 .rodata.do_bad_error.str1.1
                0x00000000002c2388       0x29 arch/arm/lib/built-in.o
 .rodata.do_bad_fiq.str1.1
                0x00000000002c23b1       0x27 arch/arm/lib/built-in.o
 .rodata.do_bad_irq.str1.1
                0x00000000002c23d8       0x27 arch/arm/lib/built-in.o
 .rodata.do_bad_sync.str1.1
                0x00000000002c23ff       0x48 arch/arm/lib/built-in.o
 .rodata.do_bdinfo.str1.1
                0x00000000002c2447       0xae cmd/built-in.o
 .rodata.do_boot_android.str1.1
                0x00000000002c24f5       0x35 cmd/built-in.o
                                         0x43 (size before relaxing)
 .rodata.do_boot_rockchip.str1.1
                0x00000000002c252a      0x134 cmd/built-in.o
                                        0x19a (size before relaxing)
 .rodata.do_bootd.str1.1
                0x00000000002c265e       0x37 cmd/built-in.o
                                          0x8 (size before relaxing)
 .rodata.do_booti.str1.1
                0x00000000002c265e       0x4c cmd/built-in.o
 .rodata.do_bootm.str1.1
                0x00000000002c26aa       0x2a cmd/built-in.o
 .rodata.do_bootm_netbsd.str1.1
                0x00000000002c26d4       0x49 common/built-in.o
                                         0x4a (size before relaxing)
 .rodata.do_bootm_on_complete.str1.1
                0x00000000002c271d       0x12 drivers/usb/gadget/built-in.o
                                         0x1e (size before relaxing)
 .rodata.do_bootm_plan9.str1.1
                0x00000000002c272f       0x43 common/built-in.o
                                         0x4c (size before relaxing)
 .rodata.do_bootm_rtems.str1.1
                0x00000000002c2772       0x39 common/built-in.o
 .rodata.do_bootm_standalone.str1.1
                0x00000000002c27ab       0x39 common/built-in.o
                                         0x16 (size before relaxing)
 .rodata.do_bootm_states.str1.1
                0x00000000002c27ab      0x321 common/built-in.o
                                        0x328 (size before relaxing)
 .rodata.do_bootvx_fdt.str1.1
                0x00000000002c2acc       0x6e common/built-in.o
                                         0x75 (size before relaxing)
 .rodata.do_charge_display.str1.1
                0x00000000002c2b3a       0x26 cmd/built-in.o
 .rodata.do_coninfo.str1.1
                0x00000000002c2b60       0x2c cmd/built-in.o
                                         0x30 (size before relaxing)
 .rodata.do_crypto_csum.str1.1
                0x00000000002c2b8c       0x31 cmd/built-in.o
                                         0x38 (size before relaxing)
 .rodata.do_download.str1.1
                0x00000000002c2bbd       0x49 cmd/built-in.o
                                         0x4f (size before relaxing)
 .rodata.do_dump_irqs.str1.1
                0x00000000002c2c06       0x77 drivers/built-in.o
                                         0xc4 (size before relaxing)
 .rodata.do_echo.str1.1
                0x00000000002c2c7d        0x3 cmd/built-in.o
 .rodata.do_env_default.str1.1
                0x00000000002c2c80       0x25 cmd/built-in.o
 .rodata.do_env_edit.part.7.str1.1
                0x00000000002c2ca5        0x7 cmd/built-in.o
                                          0xa (size before relaxing)
 .rodata.do_env_export.str1.1
                0x00000000002c2cac       0x2b cmd/built-in.o
                                         0x34 (size before relaxing)
 .rodata.do_env_import.str1.1
                0x00000000002c2cd7      0x12f cmd/built-in.o
 .rodata.do_env_print.str1.1
                0x00000000002c2e06       0x3d cmd/built-in.o
 .rodata.do_error.str1.1
                0x00000000002c2e43       0x48 arch/arm/lib/built-in.o
                                         0x1d (size before relaxing)
 .rodata.do_fastboot.str1.1
                0x00000000002c2e43       0x7d cmd/built-in.o
                                         0xad (size before relaxing)
 .rodata.do_fat_fsinfo.str1.1
                0x00000000002c2ec0       0x56 cmd/built-in.o
 .rodata.do_fat_fswrite.str1.1
                0x00000000002c2f16       0x6b cmd/built-in.o
 .rodata.do_fat_write.str1.1
                0x00000000002c2f81       0xd6 fs/built-in.o
 .rodata.do_fdt.str1.1
                0x00000000002c3057      0x421 cmd/built-in.o
                                        0x480 (size before relaxing)
 .rodata.do_fiq.str1.1
                0x00000000002c3478       0x48 arch/arm/lib/built-in.o
                                         0x1b (size before relaxing)
 .rodata.do_fixup_by_path.str1.1
                0x00000000002c3478       0x29 common/built-in.o
 .rodata.do_fs_uuid.str1.1
                0x00000000002c34a1        0x4 fs/built-in.o
 .rodata.do_get_any.str1.1
                0x00000000002c34a1        0x5 cmd/built-in.o
 .rodata.do_get_ext2.str1.1
                0x00000000002c34a1        0x9 cmd/built-in.o
 .rodata.do_get_fat.str1.1
                0x00000000002c34a1        0x8 cmd/built-in.o
 .rodata.do_get_tftp.str1.1
                0x00000000002c34a1        0x5 cmd/built-in.o
 .rodata.do_go.str1.1
                0x00000000002c34a1       0x4f cmd/built-in.o
 .rodata.do_gpt.str1.1
                0x00000000002c34f0       0xc7 cmd/built-in.o
                                         0xef (size before relaxing)
 .rodata.do_load.str1.1
                0x00000000002c35b7       0x42 fs/built-in.o
                                         0x5b (size before relaxing)
 .rodata.do_ls.str1.1
                0x00000000002c35f9        0x2 fs/built-in.o
 .rodata.do_mdio.str1.1
                0x00000000002c35f9       0x65 cmd/built-in.o
 .rodata.do_mem_base.str1.1
                0x00000000002c365e       0x17 cmd/built-in.o
 .rodata.do_mem_cmp.str1.1
                0x00000000002c3675       0x6a cmd/built-in.o
                                         0x6f (size before relaxing)
 .rodata.do_mem_cp.str1.1
                0x00000000002c36df       0x11 cmd/built-in.o
 .rodata.do_mem_crc.str1.1
                0x00000000002c36f0        0x6 cmd/built-in.o
 .rodata.do_mii.str1.1
                0x00000000002c36f6      0x28f cmd/built-in.o
                                        0x2b0 (size before relaxing)
 .rodata.do_mmc_dev.str1.1
                0x00000000002c3985       0x80 cmd/built-in.o
                                         0x89 (size before relaxing)
 .rodata.do_mmc_erase.str1.1
                0x00000000002c3a05       0x67 cmd/built-in.o
 .rodata.do_mmc_hwpartition.str1.1
                0x00000000002c3a6c      0x126 cmd/built-in.o
                                        0x142 (size before relaxing)
 .rodata.do_mmc_part.str1.1
                0x00000000002c3b92       0x15 cmd/built-in.o
 .rodata.do_mmc_read.str1.1
                0x00000000002c3ba7       0x43 cmd/built-in.o
 .rodata.do_mmc_setdsr.str1.1
                0x00000000002c3bea       0x1d cmd/built-in.o
 .rodata.do_mmc_test_secure_storage.str1.1
                0x00000000002c3c07       0xc0 cmd/built-in.o
                                         0xd6 (size before relaxing)
 .rodata.do_mmc_testefuse.str1.1
                0x00000000002c3cc7       0x1a cmd/built-in.o
 .rodata.do_mmc_write.str1.1
                0x00000000002c3ce1       0x47 cmd/built-in.o
 .rodata.do_mmcinfo.str1.1
                0x00000000002c3d28      0x11d cmd/built-in.o
                                        0x16f (size before relaxing)
 .rodata.do_mmcops.str1.1
                0x00000000002c3e45       0x19 cmd/built-in.o
 .rodata.do_mmcrpmb.str1.1
                0x00000000002c3e5e       0x41 cmd/built-in.o
 .rodata.do_mmcrpmb_counter.str1.1
                0x00000000002c3e9f       0x19 cmd/built-in.o
 .rodata.do_mmcrpmb_key.str1.1
                0x00000000002c3eb8       0xfb cmd/built-in.o
 .rodata.do_mmcrpmb_read.str1.1
                0x00000000002c3fb3       0x4d cmd/built-in.o
 .rodata.do_mmcrpmb_write.str1.1
                0x00000000002c4000       0x51 cmd/built-in.o
 .rodata.do_part.str1.1
                0x00000000002c4051       0x43 cmd/built-in.o
                                         0x15 (size before relaxing)
 .rodata.do_part_list.str1.1
                0x00000000002c4051       0x22 cmd/built-in.o
                                         0x25 (size before relaxing)
 .rodata.do_part_start.str1.1
                0x00000000002c4073       0x22 cmd/built-in.o
                                          0x8 (size before relaxing)
 .rodata.do_perm_attr_test.str1.1
                0x00000000002c4073       0x2e cmd/built-in.o
                                         0x30 (size before relaxing)
 .rodata.do_ping.str1.1
                0x00000000002c40a1       0x35 cmd/built-in.o
 .rodata.do_pxe_boot.str1.1
                0x00000000002c40d6       0x38 cmd/built-in.o
 .rodata.do_pxe_get.str1.1
                0x00000000002c410e       0x41 cmd/built-in.o
                                         0x46 (size before relaxing)
 .rodata.do_rkimg_test.str1.1
                0x00000000002c414f       0x4c cmd/built-in.o
                                         0x87 (size before relaxing)
 .rodata.do_rkusb.str1.1
                0x00000000002c419b      0x187 cmd/built-in.o
                                        0x19d (size before relaxing)
 .rodata.do_rockchip_test.str1.1
                0x00000000002c4322      0x378 test/built-in.o
                                        0x3a6 (size before relaxing)
 .rodata.do_run.str1.1
                0x00000000002c469a       0x1c common/built-in.o
 .rodata.do_save.str1.1
                0x00000000002c469a       0x1d fs/built-in.o
 .rodata.do_showvar.str1.1
                0x00000000002c46b7        0xc common/built-in.o
                                         0x2f (size before relaxing)
 .rodata.do_size.str1.1
                0x00000000002c46c3        0x9 fs/built-in.o
 .rodata.do_source.str1.1
                0x00000000002c46c3       0x1e cmd/built-in.o
 .rodata.do_spi_flash.str1.1
                0x00000000002c46e1      0x1d3 cmd/built-in.o
                                        0x1fd (size before relaxing)
 .rodata.do_sync.str1.1
                0x00000000002c48b4       0x48 arch/arm/lib/built-in.o
                                         0x29 (size before relaxing)
 .rodata.do_sysboot.str1.1
                0x00000000002c48b4       0x43 cmd/built-in.o
 .rodata.do_sysmem_search.str1.1
                0x00000000002c48f7       0x5d lib/built-in.o
 .rodata.do_test_adc.str1.1
                0x00000000002c4954       0x58 test/built-in.o
                                         0x5f (size before relaxing)
 .rodata.do_test_android.str1.1
                0x00000000002c49ac       0x22 test/built-in.o
 .rodata.do_test_bootrkp.str1.1
                0x00000000002c49ce        0x8 test/built-in.o
 .rodata.do_test_brom.str1.1
                0x00000000002c49ce        0x6 test/built-in.o
 .rodata.do_test_crypto.str1.1
                0x00000000002c49ce        0x7 test/built-in.o
 .rodata.do_test_display.str1.1
                0x00000000002c49ce       0x29 test/built-in.o
                                         0x42 (size before relaxing)
 .rodata.do_test_distro.str1.1
                0x00000000002c49f7       0x13 test/built-in.o
 .rodata.do_test_efuse.str1.1
                0x00000000002c4a0a       0x6c test/built-in.o
 .rodata.do_test_emmc.str1.1
                0x00000000002c4a76        0x5 test/built-in.o
 .rodata.do_test_eth.str1.1
                0x00000000002c4a7b      0x1cf test/built-in.o
                                        0x1dd (size before relaxing)
 .rodata.do_test_fastboot.str1.1
                0x00000000002c4c4a        0xf test/built-in.o
 .rodata.do_test_key.str1.1
                0x00000000002c4c4a       0x4f test/built-in.o
 .rodata.do_test_part.str1.1
                0x00000000002c4c99       0x1f test/built-in.o
 .rodata.do_test_regulator.str1.1
                0x00000000002c4cb8      0x12e test/built-in.o
                                        0x133 (size before relaxing)
 .rodata.do_test_reset.str1.1
                0x00000000002c4de6        0x6 test/built-in.o
 .rodata.do_test_rockusb.str1.1
                0x00000000002c4de6       0x1f test/built-in.o
 .rodata.do_test_sdmmc.str1.1
                0x00000000002c4e05        0x5 test/built-in.o
                                          0x7 (size before relaxing)
 .rodata.do_test_secure_storage.str1.1
                0x00000000002c4e0a       0x16 test/built-in.o
 .rodata.do_test_storage.isra.1.str1.1
                0x00000000002c4e20      0x25f test/built-in.o
                                        0x26e (size before relaxing)
 .rodata.do_test_tftp.str1.1
                0x00000000002c507f       0x47 test/built-in.o
                                         0x4c (size before relaxing)
 .rodata.do_test_timer.str1.1
                0x00000000002c50c6       0x78 test/built-in.o
 .rodata.do_test_usb.str1.1
                0x00000000002c513e        0x5 test/built-in.o
                                          0x7 (size before relaxing)
 .rodata.do_usb.str1.1
                0x00000000002c5143      0x272 cmd/built-in.o
                                        0x293 (size before relaxing)
 .rodata.do_usb_mass_storage.str1.1
                0x00000000002c53b5       0x6e cmd/built-in.o
                                        0x14f (size before relaxing)
 .rodata.do_usbboot.str1.1
                0x00000000002c5423      0x272 cmd/built-in.o
                                          0x4 (size before relaxing)
 .rodata.do_version.str1.1
                0x00000000002c5423       0x57 cmd/built-in.o
 .rodata.do_write.str1.1
                0x00000000002c547a       0x18 drivers/usb/gadget/built-in.o
 .rodata.drm_detect_monitor_audio.str1.1
                0x00000000002c5492       0x21 common/built-in.o
 .rodata.drm_do_get_edid.str1.1
                0x00000000002c54b3       0x40 common/built-in.o
 .rodata.drm_dp_bw_code_to_link_rate.str1.1
                0x00000000002c54f3       0x2a drivers/built-in.o
 .rodata.drm_edid_block_valid.constprop.23.str1.1
                0x00000000002c551d        0x1 common/built-in.o
 .rodata.drm_match_cea_mode.str1.1
                0x00000000002c551d       0x15 common/built-in.o
 .rodata.drm_rk_selete_output.str1.1
                0x00000000002c5532       0x1b drivers/built-in.o
                                         0x87 (size before relaxing)
 .rodata.dtb_check_ok.str1.1
                0x00000000002c554d       0x2c arch/arm/mach-rockchip/built-in.o
                                         0x10 (size before relaxing)
 .rodata.dtimg_get_fdt.part.0.str1.1
                0x00000000002c554d       0x55 cmd/built-in.o
                                         0x5c (size before relaxing)
 .rodata.dump_core_stack.str1.1
                0x00000000002c55a2       0xc4 arch/arm/lib/built-in.o
                                         0xd3 (size before relaxing)
 .rodata.dump_hash.str1.1
                0x00000000002c5666       0x1c cmd/built-in.o
                                         0x24 (size before relaxing)
 .rodata.dw_hdmi_i2c_xfer.str1.1
                0x00000000002c5682       0xe7 drivers/built-in.o
 .rodata.dw_hdmi_phy_init.str1.1
                0x00000000002c5769       0x5c drivers/built-in.o
 .rodata.dw_hdmi_phy_power_off.str1.1
                0x00000000002c57c5       0x3d drivers/built-in.o
 .rodata.dw_mipi_dsi_child_post_bind.str1.1
                0x00000000002c5802       0x1f drivers/built-in.o
                                         0x29 (size before relaxing)
 .rodata.dw_mipi_dsi_child_pre_probe.str1.1
                0x00000000002c5821       0x1e drivers/built-in.o
 .rodata.dw_mipi_dsi_connector_init.str1.1
                0x00000000002c583f       0x1a drivers/built-in.o
 .rodata.dw_mipi_dsi_connector_prepare.str1.1
                0x00000000002c5859       0x3b drivers/built-in.o
 .rodata.dw_mipi_dsi_pre_enable.str1.1
                0x00000000002c5894       0x35 drivers/built-in.o
 .rodata.dw_mipi_dsi_probe.str1.1
                0x00000000002c58c9       0x13 drivers/built-in.o
                                         0x17 (size before relaxing)
 .rodata.dw_mipi_dsi_transfer.str1.1
                0x00000000002c58dc       0xc3 drivers/built-in.o
 .rodata.dwc3_alloc_event_buffers.constprop.6.str1.1
                0x00000000002c599f       0x1d drivers/usb/dwc3/built-in.o
 .rodata.dwc3_core_init.str1.1
                0x00000000002c59bc       0x6d drivers/usb/dwc3/built-in.o
 .rodata.dwc3_core_init.str1.1
                0x00000000002c5a29       0x28 drivers/usb/host/built-in.o
 .rodata.dwc3_core_init_mode.str1.1
                0x00000000002c5a29       0x3f drivers/usb/dwc3/built-in.o
 .rodata.dwc3_endpoint_transfer_complete.str1.1
                0x00000000002c5a68       0x3c drivers/usb/dwc3/built-in.o
 .rodata.dwc3_ep0_interrupt.str1.1
                0x00000000002c5aa4       0x38 drivers/usb/dwc3/built-in.o
 .rodata.dwc3_gadget_ep_dequeue.str1.1
                0x00000000002c5adc       0x21 drivers/usb/dwc3/built-in.o
 .rodata.dwc3_gadget_ep_disable.str1.1
                0x00000000002c5afd       0x18 drivers/usb/dwc3/built-in.o
 .rodata.dwc3_gadget_ep_enable.str1.1
                0x00000000002c5b15       0x31 drivers/usb/dwc3/built-in.o
 .rodata.dwc3_gadget_ep_queue.str1.1
                0x00000000002c5b46       0x1c drivers/usb/dwc3/built-in.o
 .rodata.dwc3_gadget_init.str1.1
                0x00000000002c5b62       0x87 drivers/usb/dwc3/built-in.o
 .rodata.dwc3_gadget_init_hw_endpoints.str1.1
                0x00000000002c5be9       0x2b drivers/usb/dwc3/built-in.o
                                         0x32 (size before relaxing)
 .rodata.dwc3_gadget_start.str1.1
                0x00000000002c5c14       0x30 drivers/usb/dwc3/built-in.o
 .rodata.dwc3_gadget_uboot_handle_interrupt.str1.1
                0x00000000002c5c44       0x88 drivers/usb/dwc3/built-in.o
 .rodata.dwc3_gadget_wakeup.str1.1
                0x00000000002c5ccc       0x3e drivers/usb/dwc3/built-in.o
 .rodata.dwc3_setup_phy.str1.1
                0x00000000002c5d0a       0x5b drivers/usb/dwc3/built-in.o
                                         0x6b (size before relaxing)
 .rodata.dwc3_shutdown_phy.str1.1
                0x00000000002c5d65       0x21 drivers/usb/dwc3/built-in.o
 .rodata.dwc3_uboot_init.str1.1
                0x00000000002c5d86       0x86 drivers/usb/dwc3/built-in.o
 .rodata.dwmci_get_cd.str1.1
                0x00000000002c5e0c        0x9 drivers/built-in.o
 .rodata.edid_header
                0x00000000002c5e15        0x8 common/built-in.o
 .rodata.edid_print_info.str1.1
                0x00000000002c5e1d      0x47a common/built-in.o
                                        0x486 (size before relaxing)
 .rodata.ehci_register.str1.1
                0x00000000002c6297       0x26 drivers/usb/host/built-in.o
 .rodata.ehci_setup_phy.str1.1
                0x00000000002c62bd       0x4b drivers/usb/host/built-in.o
 .rodata.ehci_shutdown.str1.1
                0x00000000002c62bd       0x2b drivers/usb/host/built-in.o
 .rodata.ehci_shutdown_phy.str1.1
                0x00000000002c62e8       0x1d drivers/usb/host/built-in.o
 .rodata.ehci_submit_async.str1.1
                0x00000000002c62e8       0x94 drivers/usb/host/built-in.o
 .rodata.ehci_submit_control_msg.str1.1
                0x00000000002c637c       0x16 drivers/usb/host/built-in.o
 .rodata.ehci_submit_int_msg.str1.1
                0x00000000002c6392       0x24 drivers/usb/host/built-in.o
 .rodata.ehci_td_buffer.str1.1
                0x00000000002c63b6       0x29 drivers/usb/host/built-in.o
 .rodata.ehci_usb_probe.str1.1
                0x00000000002c63df       0x47 drivers/usb/host/built-in.o
                                        0x140 (size before relaxing)
 .rodata.emit.str1.1
                0x00000000002c6426       0x1f lib/built-in.o
 .rodata.enable_periodic.isra.2.str1.1
                0x00000000002c6445       0x32 drivers/usb/host/built-in.o
 .rodata.env_append.str1.1
                0x00000000002c6477       0x1d cmd/built-in.o
 .rodata.env_callback_init.str1.1
                0x00000000002c6494        0xb env/built-in.o
 .rodata.env_complete.str1.1
                0x00000000002c649f        0x4 env/built-in.o
 .rodata.env_exist.part.4.str1.1
                0x00000000002c649f       0x1f cmd/built-in.o
                                         0x2e (size before relaxing)
 .rodata.env_flags_init.str1.1
                0x00000000002c64be        0x7 env/built-in.o
 .rodata.env_flags_parse_varaccess.str1.1
                0x00000000002c64c5       0x3d env/built-in.o
 .rodata.env_flags_parse_vartype.str1.1
                0x00000000002c6502       0x34 env/built-in.o
 .rodata.env_flags_validate.str1.1
                0x00000000002c6536       0xb2 env/built-in.o
                                         0xb3 (size before relaxing)
 .rodata.env_flags_varaccess_rep
                0x00000000002c65e8        0x5 env/built-in.o
 .rodata.env_flags_vartype_rep
                0x00000000002c65ed        0x7 env/built-in.o
 .rodata.env_get_bootm_low.str1.1
                0x00000000002c65f4        0xa common/built-in.o
 .rodata.env_get_bootm_mapsize.str1.1
                0x00000000002c65f4        0xe common/built-in.o
 .rodata.env_get_bootm_size.str1.1
                0x00000000002c65f4        0xb common/built-in.o
 .rodata.env_get_f.str1.1
                0x00000000002c65ff       0x30 cmd/built-in.o
 .rodata.env_print.str1.1
                0x00000000002c662f       0x2c cmd/built-in.o
 .rodata.env_set.str1.1
                0x00000000002c665b        0x7 cmd/built-in.o
 .rodata.env_set_hex.str1.1
                0x00000000002c6662        0x7 cmd/built-in.o
                                          0x6 (size before relaxing)
 .rodata.env_update_filter.str1.1
                0x00000000002c6662       0x22 cmd/built-in.o
                                         0x24 (size before relaxing)
 .rodata.erase_seq
                0x00000000002c6684        0x4 common/built-in.o
 .rodata.eth_current_changed.str1.1
                0x00000000002c6688       0x14 net/built-in.o
 .rodata.eth_env_get_enetaddr_by_index.str1.1
                0x00000000002c6688       0x10 net/built-in.o
 .rodata.eth_env_set_enetaddr.str1.1
                0x00000000002c6698        0x4 net/built-in.o
 .rodata.eth_get_name.str1.1
                0x00000000002c6698        0x8 net/built-in.o
 .rodata.eth_init.str1.1
                0x00000000002c6698       0x11 net/built-in.o
                                         0x28 (size before relaxing)
 .rodata.eth_initialize.str1.1
                0x00000000002c66a9       0x1c net/built-in.o
                                         0x1f (size before relaxing)
 .rodata.eth_loopback_test.str1.1
                0x00000000002c66c5       0x3d test/built-in.o
                                         0x47 (size before relaxing)
 .rodata.eth_mac_skip.str1.1
                0x00000000002c6702       0x18 net/built-in.o
 .rodata.eth_post_bind.str1.1
                0x00000000002c671a       0x2b net/built-in.o
 .rodata.eth_post_probe.str1.1
                0x00000000002c6745       0xc7 net/built-in.o
                                         0xcb (size before relaxing)
 .rodata.eth_set_current.str1.1
                0x00000000002c680c        0x9 net/built-in.o
 .rodata.eth_write_hwaddr.str1.1
                0x00000000002c680c       0x4e net/built-in.o
 .rodata.ext4_read_file.str1.1
                0x00000000002c685a       0x19 fs/built-in.o
 .rodata.ext4fs_iterate_dir.str1.1
                0x00000000002c6873       0x43 fs/built-in.o
                                         0x4a (size before relaxing)
 .rodata.ext4fs_ls.str1.1
                0x00000000002c68b6       0x1f fs/built-in.o
 .rodata.ext4fs_mount.str1.1
                0x00000000002c68d5       0x24 fs/built-in.o
 .rodata.extract_env.str1.1
                0x00000000002c68f9        0x3 cmd/built-in.o
 .rodata.extract_val.str1.1
                0x00000000002c68fc        0x4 cmd/built-in.o
 .rodata.fastboot_add.str1.1
                0x00000000002c68fc        0xb drivers/usb/gadget/built-in.o
 .rodata.fastboot_bind.str1.1
                0x00000000002c6907        0x8 drivers/usb/gadget/built-in.o
 .rodata.fastboot_complete.str1.1
                0x00000000002c6907       0x1e drivers/usb/gadget/built-in.o
 .rodata.fastboot_fail.str1.1
                0x00000000002c6925        0x5 common/built-in.o
 .rodata.fastboot_name
                0x00000000002c692a       0x11 drivers/usb/gadget/built-in.o
 .rodata.fastboot_okay.str1.1
                0x00000000002c693b        0x5 common/built-in.o
 .rodata.fastboot_set_alt.str1.1
                0x00000000002c6940       0x5f drivers/usb/gadget/built-in.o
 .rodata.fastboot_tx_write.str1.1
                0x00000000002c699f       0x13 drivers/usb/gadget/built-in.o
 .rodata.fastboot_tx_write_str.str1.1
                0x00000000002c69b2       0x2e drivers/usb/gadget/built-in.o
                                         0x3a (size before relaxing)
 .rodata.fat_itr_root.str1.1
                0x00000000002c69e0       0x33 fs/built-in.o
 .rodata.fat_read_file.str1.1
                0x00000000002c6a13       0x1e fs/built-in.o
 .rodata.fat_set_blk_dev.str1.1
                0x00000000002c6a31        0x3 fs/built-in.o
                                          0xd (size before relaxing)
 .rodata.fb_add_string.part.1.str1.1
                0x00000000002c6a34       0x13 drivers/usb/gadget/built-in.o
 .rodata.fb_get_fstype.constprop.7.str1.1
                0x00000000002c6a47        0x4 drivers/usb/gadget/built-in.o
                                          0x8 (size before relaxing)
 .rodata.fb_getvar_single.str1.1
                0x00000000002c6a4b        0x4 drivers/usb/gadget/built-in.o
                                         0x11 (size before relaxing)
 .rodata.fb_mmc_blk_write.str1.1
                0x00000000002c6a4b       0x10 common/built-in.o
 .rodata.fb_mmc_erase.str1.1
                0x00000000002c6a5b       0xa6 common/built-in.o
 .rodata.fb_mmc_flash_write.str1.1
                0x00000000002c6b01      0x47c common/built-in.o
                                        0x49d (size before relaxing)
 .rodata.fb_read_var.str1.1
                0x00000000002c6f7d       0xf1 drivers/usb/gadget/built-in.o
                                        0x143 (size before relaxing)
 .rodata.fb_set_reboot_flag.str1.1
                0x00000000002c706e       0x25 arch/arm/mach-rockchip/built-in.o
 .rodata.fdt_address_cells.str1.1
                0x00000000002c7093        0xf lib/built-in.o
 .rodata.fdt_chosen.str1.1
                0x00000000002c7093       0x8e common/built-in.o
                                         0x9f (size before relaxing)
 .rodata.fdt_error.str1.1
                0x00000000002c7121       0x25 common/built-in.o
                                         0x2d (size before relaxing)
 .rodata.fdt_find_or_add_subnode.str1.1
                0x00000000002c7146        0xc common/built-in.o
 .rodata.fdt_fixup_ethernet.str1.1
                0x00000000002c7152       0x24 common/built-in.o
                                         0x42 (size before relaxing)
 .rodata.fdt_fixup_memory_banks.str1.1
                0x00000000002c7176       0x81 common/built-in.o
                                         0x8c (size before relaxing)
 .rodata.fdt_get_alias_namelen.str1.1
                0x00000000002c71f7        0x9 lib/built-in.o
 .rodata.fdt_get_phandle.str1.1
                0x00000000002c71f7       0x16 lib/built-in.o
 .rodata.fdt_initrd.str1.1
                0x00000000002c71f7       0x90 common/built-in.o
                                         0x97 (size before relaxing)
 .rodata.fdt_node_check_compatible.str1.1
                0x00000000002c7287        0xb lib/built-in.o
 .rodata.fdt_overlay_apply.str1.1
                0x00000000002c7287       0x38 lib/built-in.o
                                         0x51 (size before relaxing)
 .rodata.fdt_overlay_apply_verbose.str1.1
                0x00000000002c72bf       0x83 common/built-in.o
 .rodata.fdt_record_loadable.str1.1
                0x00000000002c7342       0x21 common/built-in.o
                                         0x36 (size before relaxing)
 .rodata.fdt_root.str1.1
                0x00000000002c7363       0x46 common/built-in.o
                                         0x4e (size before relaxing)
 .rodata.fdt_size_cells.str1.1
                0x00000000002c73a9        0xc lib/built-in.o
 .rodata.fdt_strerror.str1.1
                0x00000000002c73a9       0x31 lib/built-in.o
 .rodata.fdt_support_default_count_cells.str1.1
                0x00000000002c73da        0xc common/built-in.o
 .rodata.fdt_translate_address.str1.1
                0x00000000002c73e6       0x22 common/built-in.o
 .rodata.fdt_valid.str1.1
                0x00000000002c7408       0x79 cmd/built-in.o
                                         0x7b (size before relaxing)
 .rodata.fdtdec_add_aliases_for_id.str1.1
                0x00000000002c7481        0x9 lib/built-in.o
 .rodata.fdtdec_get_config_int.str1.1
                0x00000000002c7481        0x8 lib/built-in.o
 .rodata.fdtdec_get_is_enabled.str1.1
                0x00000000002c7489        0xc lib/built-in.o
 .rodata.fdtdec_prepare_fdt.str1.1
                0x00000000002c7489       0x96 lib/built-in.o
 .rodata.fdtdec_setup.str1.1
                0x00000000002c751f        0xf lib/built-in.o
 .rodata.file_fat_detectfs.str1.1
                0x00000000002c752e       0x64 fs/built-in.o
                                         0x84 (size before relaxing)
 .rodata.file_fat_read_at.str1.1
                0x00000000002c7592       0x23 fs/built-in.o
 .rodata.file_fat_write.str1.1
                0x00000000002c75b5       0x40 fs/built-in.o
 .rodata.file_get.str1.1
                0x00000000002c75f5        0xc common/built-in.o
                                          0x7 (size before relaxing)
 .rodata.find_mmc_device.str1.1
                0x00000000002c75f5       0x19 drivers/built-in.o
 .rodata.find_or_alloc_logo_cache.str1.1
                0x00000000002c760e       0x27 drivers/built-in.o
 .rodata.fit_all_image_verify.str1.1
                0x00000000002c7635       0x7a common/built-in.o
 .rodata.fit_board_verify_required_sigs.str1.1
                0x00000000002c76af       0x3d arch/arm/mach-rockchip/built-in.o
 .rodata.fit_calculate_hash.str1.1
                0x00000000002c76ec       0x16 common/built-in.o
 .rodata.fit_conf_find_compat.str1.1
                0x00000000002c76ec       0x10 common/built-in.o
                                         0x1f (size before relaxing)
 .rodata.fit_conf_get_node.str1.1
                0x00000000002c76fc        0x8 common/built-in.o
 .rodata.fit_conf_print.str1.1
                0x00000000002c76fc       0x8e common/built-in.o
                                         0xb5 (size before relaxing)
 .rodata.fit_get_desc.str1.1
                0x00000000002c778a        0xc common/built-in.o
 .rodata.fit_image_check_hash.str1.1
                0x00000000002c7796       0x9b common/built-in.o
 .rodata.fit_image_get_address.str1.1
                0x00000000002c7831       0x1d common/built-in.o
 .rodata.fit_image_get_arch.str1.1
                0x00000000002c784e       0x1d common/built-in.o
                                          0x5 (size before relaxing)
 .rodata.fit_image_get_comp.str1.1
                0x00000000002c784e        0xc common/built-in.o
 .rodata.fit_image_get_data.str1.1
                0x00000000002c784e       0x1d common/built-in.o
                                          0x5 (size before relaxing)
 .rodata.fit_image_get_data_offset.str1.1
                0x00000000002c784e        0xc common/built-in.o
 .rodata.fit_image_get_data_position.str1.1
                0x00000000002c785a        0xe common/built-in.o
 .rodata.fit_image_get_data_size.str1.1
                0x00000000002c7868        0xa common/built-in.o
 .rodata.fit_image_get_entry.str1.1
                0x00000000002c7872        0x6 common/built-in.o
 .rodata.fit_image_get_load.str1.1
                0x00000000002c7878        0x5 common/built-in.o
 .rodata.fit_image_get_node.str1.1
                0x00000000002c7878        0x8 common/built-in.o
 .rodata.fit_image_get_os.str1.1
                0x00000000002c7880        0x3 common/built-in.o
 .rodata.fit_image_get_type.str1.1
                0x00000000002c7880        0x5 common/built-in.o
 .rodata.fit_image_hash_get_algo.str1.1
                0x00000000002c7880        0x5 common/built-in.o
 .rodata.fit_image_hash_get_value.str1.1
                0x00000000002c7885        0x5 common/built-in.o
                                          0x6 (size before relaxing)
 .rodata.fit_image_load_index.str1.1
                0x00000000002c7885      0x202 common/built-in.o
                                        0x215 (size before relaxing)
 .rodata.fit_image_print.str1.1
                0x00000000002c7a87       0xeb common/built-in.o
                                         0xf8 (size before relaxing)
 .rodata.fit_image_print_data.str1.1
                0x00000000002c7b72       0x5e common/built-in.o
                                         0x75 (size before relaxing)
 .rodata.fit_image_verify.str1.1
                0x00000000002c7bd0       0x1a common/built-in.o
                                         0x4b (size before relaxing)
 .rodata.fit_image_verify_with_data.str1.1
                0x00000000002c7bea       0x51 common/built-in.o
                                         0x52 (size before relaxing)
 .rodata.fit_print_contents.str1.1
                0x00000000002c7c3b       0x60 common/built-in.o
                                         0x64 (size before relaxing)
 .rodata.fixed_regulator_ofdata_to_platdata.str1.1
                0x00000000002c7c9b       0x24 drivers/power/regulator/built-in.o
                                         0x29 (size before relaxing)
 .rodata.fixed_regulator_set_enable.str1.1
                0x00000000002c7cbf       0x26 drivers/power/regulator/built-in.o
 .rodata.flush_dir_table.constprop.7.str1.1
                0x00000000002c7ce5       0x21 fs/built-in.o
 .rodata.format_mac_pxe.constprop.7.str1.1
                0x00000000002c7d06       0x21 cmd/built-in.o
                                         0x25 (size before relaxing)
 .rodata.from_env.str1.1
                0x00000000002c7d27       0x22 cmd/built-in.o
 .rodata.fs_devread.str1.1
                0x00000000002c7d49       0x98 fs/built-in.o
 .rodata.fs_get_fstype.str1.1
                0x00000000002c7de1       0x3c fs/built-in.o
 .rodata.fs_ls_generic.str1.1
                0x00000000002c7e1d       0x37 fs/built-in.o
 .rodata.fs_probe_unsupported.str1.1
                0x00000000002c7e54       0x24 fs/built-in.o
 .rodata.fs_read.str1.1
                0x00000000002c7e78       0x24 fs/built-in.o
 .rodata.fs_write.str1.1
                0x00000000002c7e9c       0x1f fs/built-in.o
 .rodata.fsg_add.str1.1
                0x00000000002c7ebb       0x5b drivers/usb/gadget/built-in.o
 .rodata.fsg_main_thread.str1.1
                0x00000000002c7f16       0xa7 drivers/usb/gadget/built-in.o
 .rodata.fsg_setup.str1.1
                0x00000000002c7fbd       0x24 drivers/usb/gadget/built-in.o
                                         0x3c (size before relaxing)
 .rodata.fsg_string_interface
                0x00000000002c7fe1        0xd drivers/usb/gadget/built-in.o
 .rodata.g_dnl_bind.str1.1
                0x00000000002c7fee        0xb drivers/usb/gadget/built-in.o
                                         0x17 (size before relaxing)
 .rodata.g_dnl_bind_fixup.str1.1
                0x00000000002c7ff9        0xc drivers/usb/gadget/built-in.o
                                         0x2b (size before relaxing)
 .rodata.g_dnl_register.str1.1
                0x00000000002c8005       0x18 drivers/usb/gadget/built-in.o
 .rodata.generic_phy_get_by_index.str1.1
                0x00000000002c801d       0x10 drivers/built-in.o
 .rodata.generic_phy_get_by_name.str1.1
                0x00000000002c802d        0xa drivers/built-in.o
 .rodata.genimg_get_arch_id.str1.1
                0x00000000002c8037        0xb common/built-in.o
                                          0x4 (size before relaxing)
 .rodata.genimg_get_arch_name.str1.1
                0x00000000002c8037       0x15 common/built-in.o
 .rodata.genimg_get_comp_id.str1.1
                0x00000000002c804c       0x15 common/built-in.o
                                          0xc (size before relaxing)
 .rodata.genimg_get_comp_name.str1.1
                0x00000000002c804c       0x14 common/built-in.o
 .rodata.genimg_get_os_id.str1.1
                0x00000000002c8060       0x14 common/built-in.o
                                          0x3 (size before relaxing)
 .rodata.genimg_get_os_name.str1.1
                0x00000000002c8060        0xb common/built-in.o
 .rodata.genimg_get_type_id.str1.1
                0x00000000002c806b        0xb common/built-in.o
                                          0x6 (size before relaxing)
 .rodata.genimg_get_type_name.str1.1
                0x00000000002c806b        0xe common/built-in.o
 .rodata.genimg_print_size.str1.1
                0x00000000002c8079        0xc common/built-in.o
                                          0xe (size before relaxing)
 .rodata.genphy_update_link.str1.1
                0x00000000002c8085       0x54 drivers/net/phy/built-in.o
                                         0x56 (size before relaxing)
 .rodata.get_cluster.str1.1
                0x00000000002c80d9       0x25 fs/built-in.o
 .rodata.get_descriptor_len.str1.1
                0x00000000002c80fe       0x64 common/built-in.o
 .rodata.get_display_buffer.str1.1
                0x00000000002c8162       0x2a drivers/built-in.o
 .rodata.get_fatent.str1.1
                0x00000000002c818c       0x22 fs/built-in.o
 .rodata.get_file_info.str1.1
                0x00000000002c81ae      0x106 arch/arm/mach-rockchip/built-in.o
                                        0x11d (size before relaxing)
 .rodata.get_local_var.str1.1
                0x00000000002c82b4        0xc common/built-in.o
                                          0x3 (size before relaxing)
 .rodata.get_phy_device_by_mask.str1.1
                0x00000000002c82b4       0x29 drivers/net/phy/built-in.o
 .rodata.get_preloaded_partition.str1.1
                0x00000000002c82dd       0x27 lib/built-in.o
                                         0x35 (size before relaxing)
 .rodata.get_pxe_file.str1.1
                0x00000000002c8304        0x9 cmd/built-in.o
 .rodata.get_pxelinux_path.str1.1
                0x00000000002c830d       0x3e cmd/built-in.o
 .rodata.get_relfile.str1.1
                0x00000000002c834b       0x5f cmd/built-in.o
                                         0x63 (size before relaxing)
 .rodata.get_rkss_version.part.0.str1.1
                0x00000000002c83aa       0x87 lib/built-in.o
 .rodata.gmac_rockchip_ofdata_to_platdata.str1.1
                0x00000000002c8431       0x56 drivers/net/built-in.o
                                         0x5c (size before relaxing)
 .rodata.gpio_is_valid.str1.1
                0x00000000002c8487       0x2f drivers/built-in.o
 .rodata.gpio_key_bus_bind.str1.1
                0x00000000002c84b6        0x9 drivers/built-in.o
 .rodata.gpio_key_ofdata_to_platdata.str1.1
                0x00000000002c84bf       0x19 drivers/built-in.o
                                         0x30 (size before relaxing)
 .rodata.gpio_request_by_name_nodev.str1.1
                0x00000000002c84d8        0xc drivers/gpio/built-in.o
 .rodata.gpio_request_tail.str1.1
                0x00000000002c84e4        0x8 drivers/gpio/built-in.o
                                          0xe (size before relaxing)
 .rodata.gpt_fill_header.str1.1
                0x00000000002c84ec       0x24 disk/built-in.o
 .rodata.gpt_fill_pte.str1.1
                0x00000000002c8510       0x5b disk/built-in.o
 .rodata.gpt_verify_partitions.str1.1
                0x00000000002c856b       0xa3 disk/built-in.o
 .rodata.gzip_parse_header.str1.1
                0x00000000002c860e       0x25 lib/built-in.o
 .rodata.handle_include.str1.1
                0x00000000002c8633       0x33 cmd/built-in.o
 .rodata.handle_pxe_menu.str1.1
                0x00000000002c8666       0x15 cmd/built-in.o
                                         0x18 (size before relaxing)
 .rodata.hang.str1.1
                0x00000000002c867b       0x2a lib/built-in.o
 .rodata.hash_command.str1.1
                0x00000000002c86a5       0x3c common/built-in.o
                                         0x5f (size before relaxing)
 .rodata.hc_interrupt.str1.1
                0x00000000002c86e1       0x8f drivers/usb/host/built-in.o
 .rodata.hc_reset.str1.1
                0x00000000002c8770       0x40 drivers/usb/host/built-in.o
 .rodata.hdmi_set_clk_regenerator.str1.1
                0x00000000002c87b0       0x55 drivers/built-in.o
 .rodata.hex_asc
                0x00000000002c8805       0x11 lib/built-in.o
                0x00000000002c8805                hex_asc
 .rodata.hexport_r.str1.1
                0x00000000002c8816       0x30 lib/built-in.o
 .rodata.himport_r.str1.1
                0x00000000002c8846       0x99 lib/built-in.o
 .rodata.hotkey_run.str1.1
                0x00000000002c88df       0x2c arch/arm/mach-rockchip/built-in.o
                                         0x35 (size before relaxing)
 .rodata.i2c_chip_ofdata_to_platdata.str1.1
                0x00000000002c890b       0x16 drivers/i2c/built-in.o
                                         0x1a (size before relaxing)
 .rodata.i2c_get_chip.str1.1
                0x00000000002c8921       0x20 drivers/i2c/built-in.o
 .rodata.i2c_post_probe.str1.1
                0x00000000002c8941       0x24 drivers/i2c/built-in.o
                                         0x34 (size before relaxing)
 .rodata.image_get_load.str1.1
                0x00000000002c8965        0xe common/built-in.o
 .rodata.image_load.constprop.5.str1.1
                0x00000000002c8965       0x6e common/built-in.o
                                         0x88 (size before relaxing)
 .rodata.image_print_contents.str1.1
                0x00000000002c89d3       0xd0 common/built-in.o
                                         0xd4 (size before relaxing)
 .rodata.image_setup_libfdt.str1.1
                0x00000000002c8aa3       0x8f common/built-in.o
 .rodata.inflate.str1.1
                0x00000000002c8b32      0x158 lib/built-in.o
 .rodata.inflate_fast.str1.1
                0x00000000002c8c8a       0x50 lib/built-in.o
 .rodata.init_baud_rate.str1.1
                0x00000000002c8cda        0x9 common/built-in.o
 .rodata.init_kernel_dtb.str1.1
                0x00000000002c8ce3      0x112 arch/arm/mach-rockchip/built-in.o
                                        0x11f (size before relaxing)
 .rodata.init_mmc_device.str1.1
                0x00000000002c8df5       0x1a cmd/built-in.o
 .rodata.initcall_run_list.str1.1
                0x00000000002c8e0f       0x31 lib/built-in.o
 .rodata.initr_ethaddr.str1.1
                0x00000000002c8e40        0x8 common/built-in.o
 .rodata.initr_net.str1.1
                0x00000000002c8e40        0x8 common/built-in.o
 .rodata.insert_var_value_sub.str1.1
                0x00000000002c8e48        0x6 common/built-in.o
 .rodata.io_domain_init.str1.1
                0x00000000002c8e4e        0xf drivers/power/io-domain/built-in.o
 .rodata.iomem_show.str1.1
                0x00000000002c8e5d        0xa arch/arm/mach-rockchip/built-in.o
                                         0x21 (size before relaxing)
 .rodata.iomem_show_by_match.str1.1
                0x00000000002c8e67        0xf arch/arm/mach-rockchip/built-in.o
 .rodata.ip_to_string.str1.1
                0x00000000002c8e76        0xc net/built-in.o
 .rodata.irq_handler_enable_suspend_only.str1.1
                0x00000000002c8e82       0x23 drivers/built-in.o
 .rodata.irq_install_handler.str1.1
                0x00000000002c8ea5       0x31 drivers/built-in.o
 .rodata.is_gpt_valid.str1.1
                0x00000000002c8ed6       0xea disk/built-in.o
 .rodata.is_valid_gpt_buf.str1.1
                0x00000000002c8fc0       0x30 disk/built-in.o
 .rodata.key_bind_children.str1.1
                0x00000000002c8ff0        0xb drivers/built-in.o
 .rodata.key_post_probe.str1.1
                0x00000000002c8ff0       0x92 drivers/built-in.o
                                         0xba (size before relaxing)
 .rodata.key_read.str1.1
                0x00000000002c9082       0x43 drivers/built-in.o
                                         0x4a (size before relaxing)
 .rodata.label_boot.str1.1
                0x00000000002c90c5      0x12d cmd/built-in.o
                                        0x19c (size before relaxing)
 .rodata.label_print.str1.1
                0x00000000002c91f2        0x8 cmd/built-in.o
 .rodata.lists_bind_drivers.str1.1
                0x00000000002c91fa       0x1a drivers/built-in.o
 .rodata.lists_bind_fdt.str1.1
                0x00000000002c9214       0x3f drivers/built-in.o
                                         0x4a (size before relaxing)
 .rodata.lmb_alloc_base.str1.1
                0x00000000002c9253       0x34 lib/built-in.o
 .rodata.load_and_verify_vbmeta.str1.1
                0x00000000002c9287      0x59e lib/built-in.o
                                        0x5ec (size before relaxing)
 .rodata.load_attestation_key.str1.1
                0x00000000002c9825      0x12a common/built-in.o
                                        0x145 (size before relaxing)
 .rodata.load_bmp_logo.str1.1
                0x00000000002c994f       0x5b drivers/built-in.o
 .rodata.load_full_partition.str1.1
                0x00000000002c99aa       0x76 lib/built-in.o
                                         0x86 (size before relaxing)
 .rodata.load_metadata.str1.1
                0x00000000002c9a20       0x27 lib/built-in.o
 .rodata.main_loop.str1.1
                0x00000000002c9a20       0x11 common/built-in.o
                                         0x19 (size before relaxing)
 .rodata.manufacturer
                0x00000000002c9a31        0x9 drivers/usb/gadget/built-in.o
 .rodata.match.str1.1
                0x00000000002c9a3a       0x18 lib/built-in.o
 .rodata.match_entry.str1.1
                0x00000000002c9a52       0x1b lib/built-in.o
 .rodata.match_string.str1.1
                0x00000000002c9a52       0x2c lib/built-in.o
 .rodata.mcs7830_eth_probe.str1.1
                0x00000000002c9a7e       0x53 drivers/usb/eth/built-in.o
 .rodata.mcs7830_eth_recv.str1.1
                0x00000000002c9ad1       0x34 drivers/usb/eth/built-in.o
 .rodata.mdio_list_devices.str1.1
                0x00000000002c9b05       0x12 common/built-in.o
                                         0x19 (size before relaxing)
 .rodata.mdio_phydev_for_ethname.str1.1
                0x00000000002c9b17       0x1c common/built-in.o
 .rodata.mdio_register.str1.1
                0x00000000002c9b33       0x2c common/built-in.o
 .rodata.menu_get_choice.str1.1
                0x00000000002c9b5f       0x1d common/built-in.o
                                         0x2a (size before relaxing)
 .rodata.miiphy_duplex.str1.1
                0x00000000002c9b7c       0x4f common/built-in.o
 .rodata.miiphy_get_dev_by_name.str1.1
                0x00000000002c9bcb       0x13 common/built-in.o
 .rodata.miiphy_listdev.str1.1
                0x00000000002c9bde       0x2a common/built-in.o
 .rodata.miiphy_set_current_dev.str1.1
                0x00000000002c9c08       0x14 common/built-in.o
 .rodata.miiphy_speed.str1.1
                0x00000000002c9c1c       0x49 common/built-in.o
 .rodata.misc_init_r.str1.1
                0x00000000002c9c65        0xe board/rockchip/evb_rk3399/built-in.o
                                         0x28 (size before relaxing)
 .rodata.mmc_berase.str1.1
                0x00000000002c9c73       0x5d drivers/built-in.o
 .rodata.mmc_bind.str1.1
                0x00000000002c9cd0        0x8 drivers/built-in.o
                                          0xc (size before relaxing)
 .rodata.mmc_bread.str1.1
                0x00000000002c9cd8       0x66 drivers/built-in.o
 .rodata.mmc_bwrite.str1.1
                0x00000000002c9d3e       0x12 drivers/built-in.o
                                         0x59 (size before relaxing)
 .rodata.mmc_erase_t.str1.1
                0x00000000002c9d50       0x12 drivers/built-in.o
 .rodata.mmc_hwpart_config.str1.1
                0x00000000002c9d62      0x19f drivers/built-in.o
 .rodata.mmc_init.str1.1
                0x00000000002c9f01       0x12 drivers/built-in.o
 .rodata.mmc_initialize.str1.1
                0x00000000002c9f13       0x17 drivers/built-in.o
 .rodata.mmc_read_blocks.str1.1
                0x00000000002c9f13       0x1b drivers/built-in.o
 .rodata.mmc_rpmb_read.str1.1
                0x00000000002c9f2e       0x53 drivers/built-in.o
 .rodata.mmc_rpmb_response.str1.1
                0x00000000002c9f81       0x1a drivers/built-in.o
                                         0x22 (size before relaxing)
 .rodata.mmc_rpmb_write.str1.1
                0x00000000002c9f9b       0x20 drivers/built-in.o
 .rodata.mmc_send_status.str1.1
                0x00000000002c9fbb       0x32 drivers/built-in.o
 .rodata.mmc_start_init.str1.1
                0x00000000002c9fed       0x67 drivers/built-in.o
 .rodata.mmc_startup.str1.1
                0x00000000002ca054       0x38 drivers/built-in.o
                                         0x3e (size before relaxing)
 .rodata.mod_mem.isra.2.part.3.str1.1
                0x00000000002ca08c       0x26 cmd/built-in.o
 .rodata.mtd_arg_off.str1.1
                0x00000000002ca0b2       0x38 drivers/mtd/built-in.o
 .rodata.mtd_arg_off_size.str1.1
                0x00000000002ca0ea       0x5b drivers/mtd/built-in.o
                                         0x71 (size before relaxing)
 .rodata.my_malloc_init.str1.1
                0x00000000002ca145       0x2d lib/built-in.o
 .rodata.names.6056
                0x00000000002ca172        0x6 lib/built-in.o
 .rodata.net_auto_load.str1.1
                0x00000000002ca178        0xd net/built-in.o
 .rodata.net_bcast_ethaddr
                0x00000000002ca185        0x6 net/built-in.o
                0x00000000002ca185                net_bcast_ethaddr
 .rodata.net_loop.str1.1
                0x00000000002ca18b       0xe5 net/built-in.o
                                         0xf7 (size before relaxing)
 .rodata.net_null_ethaddr
                0x00000000002ca270        0x6 net/built-in.o
                0x00000000002ca270                net_null_ethaddr
 .rodata.net_process_received_packet.str1.1
                0x00000000002ca276       0x1d net/built-in.o
 .rodata.net_start_again.str1.1
                0x00000000002ca293        0x9 net/built-in.o
                                         0x15 (size before relaxing)
 .rodata.netboot_common.str1.1
                0x00000000002ca29c       0x43 cmd/built-in.o
                                         0x4a (size before relaxing)
 .rodata.nfs_handler.str1.1
                0x00000000002ca2df       0x56 net/built-in.o
 .rodata.nfs_lookup_reply.str1.1
                0x00000000002ca335       0x25 net/built-in.o
                                         0x27 (size before relaxing)
 .rodata.nfs_read_reply.isra.0.str1.1
                0x00000000002ca35a        0x4 net/built-in.o
 .rodata.nfs_readlink_reply.str1.1
                0x00000000002ca35e        0x2 net/built-in.o
 .rodata.nfs_start.str1.1
                0x00000000002ca35e       0x1e net/built-in.o
                                         0x1f (size before relaxing)
 .rodata.nfs_timeout_handler.str1.1
                0x00000000002ca37c       0x2a net/built-in.o
 .rodata.ns16550_serial_ofdata_to_platdata.str1.1
                0x00000000002ca3a6       0x3a drivers/serial/built-in.o
                                         0x4a (size before relaxing)
 .rodata.null_hash_md5_value
                0x00000000002ca3e0       0x10 drivers/built-in.o
 .rodata.null_hash_sha1_value
                0x00000000002ca3f0       0x14 drivers/built-in.o
 .rodata.null_hash_sha256_value
                0x00000000002ca404       0x20 drivers/built-in.o
 .rodata.null_hash_sha512_value
                0x00000000002ca424       0x40 drivers/built-in.o
 .rodata.null_hash_sm3_value
                0x00000000002ca464       0x20 drivers/built-in.o
 .rodata.of_address_to_resource.str1.1
                0x00000000002ca484        0xa drivers/built-in.o
 .rodata.of_alias_dump.str1.1
                0x00000000002ca48e       0x1e drivers/built-in.o
                                         0x43 (size before relaxing)
 .rodata.of_alias_scan.str1.1
                0x00000000002ca4ac       0x24 drivers/built-in.o
                                         0x46 (size before relaxing)
 .rodata.of_device_is_available.str1.1
                0x00000000002ca4d0        0x5 drivers/built-in.o
                                          0xc (size before relaxing)
 .rodata.of_device_is_compatible.str1.1
                0x00000000002ca4d5        0xb drivers/built-in.o
 .rodata.of_find_node_opts_by_path.str1.1
                0x00000000002ca4d5        0x3 drivers/built-in.o
                                          0x5 (size before relaxing)
 .rodata.of_get_address.str1.1
                0x00000000002ca4d8        0x4 drivers/built-in.o
 .rodata.of_match_bus.str1.1
                0x00000000002ca4d8       0x30 drivers/built-in.o
 .rodata.of_n_addr_cells.str1.1
                0x00000000002ca508        0xf drivers/built-in.o
 .rodata.of_n_size_cells.str1.1
                0x00000000002ca517        0xc drivers/built-in.o
 .rodata.of_translate_address.str1.1
                0x00000000002ca517        0x7 drivers/built-in.o
 .rodata.ofnode_pre_reloc.str1.1
                0x00000000002ca517       0x30 drivers/built-in.o
 .rodata.ofnode_read_resource.str1.1
                0x00000000002ca517        0x4 drivers/built-in.o
 .rodata.ofnode_read_resource_byname.str1.1
                0x00000000002ca517        0xa drivers/built-in.o
 .rodata.ohci_create_int_queue.str1.1
                0x00000000002ca517       0x80 drivers/usb/host/built-in.o
 .rodata.ohci_get_ohci_dev.str1.1
                0x00000000002ca597       0x36 drivers/usb/host/built-in.o
 .rodata.ohci_register.str1.1
                0x00000000002ca5cd       0x10 drivers/usb/host/built-in.o
 .rodata.ohci_shutdown_phy.str1.1
                0x00000000002ca5dd       0x1d drivers/usb/host/built-in.o
 .rodata.ohci_submit_control_msg.str1.1
                0x00000000002ca5fa       0x3e drivers/usb/host/built-in.o
 .rodata.ohci_usb_probe.str1.1
                0x00000000002ca638      0x11c drivers/usb/host/built-in.o
                                        0x144 (size before relaxing)
 .rodata.on_baudrate.str1.1
                0x00000000002ca754       0x74 drivers/serial/built-in.o
 .rodata.on_callbacks.str1.1
                0x00000000002ca7c8      0x105 env/built-in.o
 .rodata.on_console.str1.1
                0x00000000002ca8cd       0x10 common/built-in.o
                                         0x27 (size before relaxing)
 .rodata.on_flags.str1.1
                0x00000000002ca8cd       0x50 env/built-in.o
 .rodata.overlay_adjust_node_phandles.str1.1
                0x00000000002ca91d       0x16 lib/built-in.o
 .rodata.overlay_get_target.str1.1
                0x00000000002ca91d       0x13 lib/built-in.o
 .rodata.p.9208
                0x00000000002ca930        0xe drivers/built-in.o
 .rodata.padding_RSA2048_SHA256
                0x00000000002ca93e       0xe0 lib/built-in.o
 .rodata.padding_RSA2048_SHA512
                0x00000000002caa1e       0xc0 lib/built-in.o
 .rodata.padding_RSA4096_SHA256
                0x00000000002caade      0x1e0 lib/built-in.o
 .rodata.padding_RSA4096_SHA512
                0x00000000002cacbe      0x1c0 lib/built-in.o
 .rodata.padding_RSA8192_SHA256
                0x00000000002cae7e      0x3e0 lib/built-in.o
 .rodata.padding_RSA8192_SHA512
                0x00000000002cb25e      0x3c0 lib/built-in.o
 .rodata.panel_simple_prepare.str1.1
                0x00000000002cb61e       0x1c drivers/built-in.o
 .rodata.panel_simple_unprepare.str1.1
                0x00000000002cb63a       0x1d drivers/built-in.o
 .rodata.param_parse_atf_mem.str1.1
                0x00000000002cb657       0x48 arch/arm/mach-rockchip/built-in.o
 .rodata.param_parse_bootdev.str1.1
                0x00000000002cb69f       0x36 arch/arm/mach-rockchip/built-in.o
                                         0x52 (size before relaxing)
 .rodata.param_parse_ddr_mem.str1.1
                0x00000000002cb6d5       0x1a arch/arm/mach-rockchip/built-in.o
 .rodata.parse_integer.str1.1
                0x00000000002cb6ef       0x17 cmd/built-in.o
 .rodata.parse_pxefile_top.str1.1
                0x00000000002cb706       0x89 cmd/built-in.o
 .rodata.parse_sliteral.str1.1
                0x00000000002cb78f       0x1f cmd/built-in.o
 .rodata.parse_stream_outer.str1.1
                0x00000000002cb7ae       0x4d common/built-in.o
 .rodata.parse_string_outer.str1.1
                0x00000000002cb7fb        0x2 common/built-in.o
 .rodata.part_efi_repair.str1.1
                0x00000000002cb7fb       0x97 disk/built-in.o
 .rodata.part_get_info_by_name_or_alias.str1.1
                0x00000000002cb892       0x1a common/built-in.o
 .rodata.part_get_info_efi.str1.1
                0x00000000002cb8ac        0xa disk/built-in.o
 .rodata.part_get_info_extended.str1.1
                0x00000000002cb8ac        0xa disk/built-in.o
                                         0x11 (size before relaxing)
 .rodata.part_get_info_rkparm.str1.1
                0x00000000002cb8b6       0x39 disk/built-in.o
                                         0x43 (size before relaxing)
 .rodata.part_get_info_whole_disk.str1.1
                0x00000000002cb8ef        0xb disk/built-in.o
                                         0x12 (size before relaxing)
 .rodata.part_print.str1.1
                0x00000000002cb8fa       0xa1 disk/built-in.o
                                         0xaa (size before relaxing)
 .rodata.part_print_dos.str1.1
                0x00000000002cb99b       0x2a disk/built-in.o
 .rodata.part_print_efi.str1.1
                0x00000000002cb9c5       0xf9 disk/built-in.o
 .rodata.part_print_rkparm.str1.1
                0x00000000002cbabe       0x50 disk/built-in.o
 .rodata.part_set_generic_name.str1.1
                0x00000000002cbb0e        0xa disk/built-in.o
 .rodata.part_test_efi.str1.1
                0x00000000002cbb18       0x33 disk/built-in.o
 .rodata.phandle_gpio_to_irq.str1.1
                0x00000000002cbb4b       0x5e drivers/built-in.o
 .rodata.phy_connect_dev.str1.1
                0x00000000002cbba9       0x2f drivers/net/phy/built-in.o
 .rodata.phy_reset.str1.1
                0x00000000002cbbd8       0x15 drivers/net/phy/built-in.o
 .rodata.pinconfig_post_bind.str1.1
                0x00000000002cbbed        0xa drivers/built-in.o
                                         0x15 (size before relaxing)
 .rodata.pinctrl_select_state.str1.1
                0x00000000002cbbf7       0x31 drivers/built-in.o
 .rodata.ping_start.str1.1
                0x00000000002cbc28       0x11 net/built-in.o
 .rodata.pll_para_config.str1.1
                0x00000000002cbc39       0xa6 drivers/built-in.o
 .rodata.pmic_bind_children.str1.1
                0x00000000002cbcdf        0xf drivers/power/pmic/built-in.o
 .rodata.populate_andr_img_hdr.str1.1
                0x00000000002cbcee       0xb4 common/built-in.o
                                         0xcc (size before relaxing)
 .rodata.prepare_ring.str1.1
                0x00000000002cbda2       0xa0 drivers/usb/host/built-in.o
 .rodata.print_buffer.str1.1
                0x00000000002cbe42        0x8 lib/built-in.o
                                         0x19 (size before relaxing)
 .rodata.print_data.str1.1
                0x00000000002cbe4a       0x25 cmd/built-in.o
                                         0x32 (size before relaxing)
 .rodata.print_freq.str1.1
                0x00000000002cbe6f       0x1b lib/built-in.o
 .rodata.print_mmc_devices.str1.1
                0x00000000002cbe8a       0x12 drivers/built-in.o
                                         0x1c (size before relaxing)
 .rodata.print_num.str1.1
                0x00000000002cbe9c       0x10 cmd/built-in.o
 .rodata.print_partition_extended.str1.1
                0x00000000002cbeac       0x83 disk/built-in.o
                                         0x84 (size before relaxing)
 .rodata.print_size.str1.1
                0x00000000002cbf2f       0x15 lib/built-in.o
 .rodata.product
                0x00000000002cbf44       0x14 drivers/usb/gadget/built-in.o
 .rodata.psci_bind.str1.1
                0x00000000002cbf58       0x1a drivers/built-in.o
                                         0x28 (size before relaxing)
 .rodata.psci_probe.str1.1
                0x00000000002cbf72       0x42 drivers/built-in.o
                                         0x49 (size before relaxing)
 .rodata.pwm_backlight_enable.str1.1
                0x00000000002cbfb4       0x16 drivers/built-in.o
 .rodata.pwm_backlight_ofdata_to_platdata.str1.1
                0x00000000002cbfca       0x3b drivers/built-in.o
                                         0x55 (size before relaxing)
 .rodata.pwm_regulator_ofdata_to_platdata.str1.1
                0x00000000002cc005       0x15 drivers/power/regulator/built-in.o
                                         0x3e (size before relaxing)
 .rodata.pwm_regulator_set_voltage.str1.1
                0x00000000002cc01a       0x2d drivers/power/regulator/built-in.o
 .rodata.px30_gmac_fix_mac_speed.str1.1
                0x00000000002cc047        0xe drivers/net/built-in.o
 .rodata.quantifier.str1.1
                0x00000000002cc055       0x17 lib/built-in.o
 .rodata.r8152_eth_probe.str1.1
                0x00000000002cc06c       0x16 drivers/usb/eth/built-in.o
 .rodata.r8152_eth_start.str1.1
                0x00000000002cc082       0x3f drivers/usb/eth/built-in.o
 .rodata.read_allocated_block.str1.1
                0x00000000002cc082      0x240 fs/built-in.o
 .rodata.read_bmp.isra.0.str1.1
                0x00000000002cc2c2        0xa arch/arm/mach-rockchip/built-in.o
 .rodata.read_bootsectandvi.str1.1
                0x00000000002cc2cc       0x1b fs/built-in.o
 .rodata.read_from_keymaster.str1.1
                0x00000000002cc2e7       0x17 common/built-in.o
 .rodata.read_is_device_unlocked.str1.1
                0x00000000002cc2e7       0x3e lib/built-in.o
 .rodata.read_logo_bmps.str1.1
                0x00000000002cc325       0x19 arch/arm/mach-rockchip/built-in.o
                                         0x1e (size before relaxing)
 .rodata.read_persistent_digest.str1.1
                0x00000000002cc33e      0x155 lib/built-in.o
                                        0x159 (size before relaxing)
 .rodata.read_raw_data_from_secure_storage.str1.1
                0x00000000002cc493        0x9 common/built-in.o
 .rodata.read_rockchip_image.str1.1
                0x00000000002cc49c       0x3c cmd/built-in.o
 .rodata.read_rollback_index.str1.1
                0x00000000002cc4d8       0x45 lib/built-in.o
 .rodata.realloc.str1.1
                0x00000000002cc51d       0x25 common/built-in.o
 .rodata.record_transfer_result.str1.1
                0x00000000002cc542       0x1d drivers/usb/host/built-in.o
                                         0x36 (size before relaxing)
 .rodata.regex_callback.str1.1
                0x00000000002cc55f       0x20 env/built-in.o
 .rodata.regmap_init_mem.str1.1
                0x00000000002cc57f        0x4 drivers/built-in.o
 .rodata.regulator_autoset.str1.1
                0x00000000002cc57f       0x19 drivers/power/regulator/built-in.o
 .rodata.regulator_post_bind.str1.1
                0x00000000002cc598        0xf drivers/power/regulator/built-in.o
 .rodata.regulator_pre_probe.str1.1
                0x00000000002cc598      0x113 drivers/power/regulator/built-in.o
 .rodata.regulator_show.str1.1
                0x00000000002cc6ab       0x62 drivers/power/regulator/built-in.o
                                         0x6d (size before relaxing)
 .rodata.reset_get_by_index.str1.1
                0x00000000002cc70d        0xd drivers/built-in.o
                                         0x14 (size before relaxing)
 .rodata.reset_get_by_name.str1.1
                0x00000000002cc71a        0xc drivers/built-in.o
 .rodata.resource_image_check_header.str1.1
                0x00000000002cc726        0x5 arch/arm/mach-rockchip/built-in.o
 .rodata.rk3399_clk_bind.str1.1
                0x00000000002cc72b       0x30 drivers/built-in.o
 .rodata.rk3399_clk_set_parent.str1.1
                0x00000000002cc72b       0x1e drivers/built-in.o
 .rodata.rk3399_clk_set_rate.str1.1
                0x00000000002cc749       0x47 drivers/built-in.o
 .rodata.rk3399_emmc_get_phy.str1.1
                0x00000000002cc790        0x9 drivers/built-in.o
 .rodata.rk3399_emmc_set_clock.str1.1
                0x00000000002cc790       0x4e drivers/built-in.o
 .rodata.rk3399_i2c_get_clk.str1.1
                0x00000000002cc790       0x1d drivers/built-in.o
 .rodata.rk3399_sdhci_emmc_set_clock.str1.1
                0x00000000002cc7ad       0x2b drivers/built-in.o
 .rodata.rk3399_spi_get_clk.str1.1
                0x00000000002cc7d8       0x22 drivers/built-in.o
 .rodata.rk817_fg_ofdata_to_platdata.str1.1
                0x00000000002cc7fa       0xeb drivers/power/fuel_gauge/built-in.o
 .rodata.rk817_fg_probe.str1.1
                0x00000000002cc8e5        0xe drivers/power/fuel_gauge/built-in.o
 .rodata.rk8xx_bind.str1.1
                0x00000000002cc8f3        0xb drivers/power/pmic/built-in.o
 .rodata.rk8xx_ofdata_to_platdata.str1.1
                0x00000000002cc8fe       0xc8 drivers/power/pmic/built-in.o
 .rodata.rk8xx_plug_out_handler.str1.1
                0x00000000002cc9c6       0x14 drivers/power/pmic/built-in.o
 .rodata.rk8xx_probe.str1.1
                0x00000000002cc9da       0xee drivers/power/pmic/built-in.o
                                         0xf0 (size before relaxing)
 .rodata.rk8xx_read.str1.1
                0x00000000002ccac8       0x24 drivers/power/pmic/built-in.o
 .rodata.rk8xx_shutdown.str1.1
                0x00000000002ccaec       0x39 drivers/power/pmic/built-in.o
 .rodata.rk_auth_unlock.str1.1
                0x00000000002ccb25       0x1f lib/built-in.o
 .rodata.rk_avb_ab_slot_select.str1.1
                0x00000000002ccb44       0x4a lib/built-in.o
                                         0x50 (size before relaxing)
 .rodata.rk_avb_get_ab_info.str1.1
                0x00000000002ccb8e       0x4b lib/built-in.o
 .rodata.rk_avb_get_at_vboot_state.str1.1
                0x00000000002ccbd9      0x173 lib/built-in.o
                                        0x178 (size before relaxing)
 .rodata.rk_avb_get_bootloader_min_version.str1.1
                0x00000000002ccd4c       0x4c lib/built-in.o
 .rodata.rk_avb_get_part_has_slot_info.str1.1
                0x00000000002ccd98       0x70 lib/built-in.o
                                         0x78 (size before relaxing)
 .rodata.rk_avb_get_perm_attr_cer.str1.1
                0x00000000002cce08       0x22 lib/built-in.o
 .rodata.rk_avb_init_ab_metadata.str1.1
                0x00000000002cce2a       0x4f lib/built-in.o
 .rodata.rk_avb_read_all_rollback_index.str1.1
                0x00000000002cce79        0xd lib/built-in.o
                                         0x78 (size before relaxing)
 .rodata.rk_avb_read_attribute_hash.str1.1
                0x00000000002cce86       0x23 lib/built-in.o
 .rodata.rk_avb_read_flash_lock_state.str1.1
                0x00000000002ccea9       0x74 lib/built-in.o
                                         0x84 (size before relaxing)
 .rodata.rk_avb_read_lock_state.str1.1
                0x00000000002ccf1d       0x20 lib/built-in.o
                                         0x43 (size before relaxing)
 .rodata.rk_avb_read_perm_attr_flag.str1.1
                0x00000000002ccf3d       0x55 lib/built-in.o
 .rodata.rk_avb_read_permanent_attributes.str1.1
                0x00000000002ccf92       0x2a lib/built-in.o
 .rodata.rk_avb_read_slot_suffixes.str1.1
                0x00000000002ccfbc        0x3 lib/built-in.o
 .rodata.rk_avb_set_slot_active.str1.1
                0x00000000002ccfbf       0x18 lib/built-in.o
                                         0x34 (size before relaxing)
 .rodata.rk_avb_write_attribute_hash.str1.1
                0x00000000002ccfd7       0x24 lib/built-in.o
 .rodata.rk_avb_write_flash_lock_state.str1.1
                0x00000000002ccffb       0x26 lib/built-in.o
 .rodata.rk_avb_write_lock_state.str1.1
                0x00000000002cd021       0x20 lib/built-in.o
 .rodata.rk_avb_write_perm_attr_flag.str1.1
                0x00000000002cd041       0x2f lib/built-in.o
 .rodata.rk_avb_write_permanent_attributes.str1.1
                0x00000000002cd070       0x2b lib/built-in.o
 .rodata.rk_avb_write_vbootkey_hash.str1.1
                0x00000000002cd09b       0x23 lib/built-in.o
 .rodata.rk_board_init.str1.1
                0x00000000002cd0be        0xc board/rockchip/evb_rk3399/built-in.o
 .rodata.rk_bootloader_rollback_index_read.str1.1
                0x00000000002cd0ca       0x1c lib/built-in.o
 .rodata.rk_generate_unlock_challenge.str1.1
                0x00000000002cd0e6        0x4 lib/built-in.o
 .rodata.rk_key_bus_bind.str1.1
                0x00000000002cd0ea        0x7 drivers/built-in.o
 .rodata.rk_key_ofdata_to_platdata.str1.1
                0x00000000002cd0f1       0x32 drivers/built-in.o
                                         0x6e (size before relaxing)
 .rodata.rk_pwm_set_enable.str1.1
                0x00000000002cd123       0x1a drivers/built-in.o
                                          0x7 (size before relaxing)
 .rodata.rk_send_keybox_to_ta.str1.1
                0x00000000002cd123       0x6f common/built-in.o
                                         0x86 (size before relaxing)
 .rodata.rkparm_init_param.constprop.1.str1.1
                0x00000000002cd192       0x4c disk/built-in.o
                                         0x6e (size before relaxing)
 .rodata.rkss_backup_sections.str1.1
                0x00000000002cd1de       0x58 lib/built-in.o
 .rodata.rkss_decref_multi_usedflags_sections.str1.1
                0x00000000002cd236       0xa6 lib/built-in.o
                                         0xe6 (size before relaxing)
 .rodata.rkss_get_fileinfo_by_index.str1.1
                0x00000000002cd2dc       0x30 lib/built-in.o
 .rodata.rkss_get_fileinfo_by_name.str1.1
                0x00000000002cd30c       0x76 lib/built-in.o
                                         0xa1 (size before relaxing)
 .rodata.rkss_read_patition_tables.str1.1
                0x00000000002cd382       0x16 lib/built-in.o
 .rodata.rkss_storage_write.str1.1
                0x00000000002cd382       0x17 lib/built-in.o
 .rodata.rkss_write_area_empty_ptable.str1.1
                0x00000000002cd382       0x18 lib/built-in.o
                                         0x53 (size before relaxing)
 .rodata.rkss_write_empty_ptable.str1.1
                0x00000000002cd39a       0x65 lib/built-in.o
 .rodata.rkss_write_multi_sections.str1.1
                0x00000000002cd3ff       0x21 lib/built-in.o
 .rodata.rkusb_fixup_cbwcb.isra.19.str1.1
                0x00000000002cd420       0x35 drivers/usb/gadget/built-in.o
 .rodata.rockchip_chg_get_type.str1.1
                0x00000000002cd455       0x28 drivers/built-in.o
 .rodata.rockchip_crypto_ofdata_to_platdata.str1.1
                0x00000000002cd47d       0x52 drivers/built-in.o
                                         0x69 (size before relaxing)
 .rodata.rockchip_crypto_probe.str1.1
                0x00000000002cd4cf       0x58 drivers/built-in.o
 .rodata.rockchip_crypto_sha_final.str1.1
                0x00000000002cd527       0x2e drivers/built-in.o
 .rodata.rockchip_crypto_sha_init.str1.1
                0x00000000002cd555       0x33 drivers/built-in.o
 .rodata.rockchip_display_fixup.str1.1
                0x00000000002cd588      0x26b drivers/built-in.o
 .rodata.rockchip_display_probe.str1.1
                0x00000000002cd7f3      0x2c2 drivers/built-in.o
                                        0x2d1 (size before relaxing)
 .rodata.rockchip_dw_hdmi_enable.str1.1
                0x00000000002cdab5       0xd4 drivers/built-in.o
 .rodata.rockchip_dw_hdmi_get_timing.str1.1
                0x00000000002cdb89       0x30 drivers/built-in.o
                                         0x3c (size before relaxing)
 .rodata.rockchip_dw_hdmi_init.str1.1
                0x00000000002cdbb9       0xf5 drivers/built-in.o
                                        0x11e (size before relaxing)
 .rodata.rockchip_dwmmc_execute_tuning.str1.1
                0x00000000002cdcae       0x14 drivers/built-in.o
 .rodata.rockchip_dwmmc_ofdata_to_platdata.str1.1
                0x00000000002cdcc2       0x36 drivers/built-in.o
                                         0x4e (size before relaxing)
 .rodata.rockchip_dwmmc_probe.str1.1
                0x00000000002cdcf8       0x2f drivers/built-in.o
 .rodata.rockchip_efuse_ioctl.str1.1
                0x00000000002cdd27       0x1d drivers/built-in.o
 .rodata.rockchip_get_baseparameter.str1.1
                0x00000000002cdd44       0x72 drivers/built-in.o
                                         0x8d (size before relaxing)
 .rodata.rockchip_get_boot_mode.str1.1
                0x00000000002cddb6      0x1d9 arch/arm/mach-rockchip/built-in.o
                                        0x20c (size before relaxing)
 .rodata.rockchip_get_bootdev.str1.1
                0x00000000002cdf8f      0x108 arch/arm/mach-rockchip/built-in.o
                                        0x125 (size before relaxing)
 .rodata.rockchip_get_disp_info.str1.1
                0x00000000002ce097       0x8f drivers/built-in.o
 .rodata.rockchip_gpio_get_function.str1.1
                0x00000000002ce126       0x19 drivers/gpio/built-in.o
 .rodata.rockchip_gpio_probe.str1.1
                0x00000000002ce13f       0x6d drivers/gpio/built-in.o
 .rodata.rockchip_iodomain_probe.str1.1
                0x00000000002ce1ac       0x73 drivers/power/io-domain/built-in.o
 .rodata.rockchip_iodomain_write.str1.1
                0x00000000002ce21f       0x17 drivers/power/io-domain/built-in.o
 .rodata.rockchip_of_find_panel.str1.1
                0x00000000002ce236       0x16 drivers/built-in.o
                                         0x20 (size before relaxing)
 .rodata.rockchip_panel_ofdata_to_platdata.str1.1
                0x00000000002ce24c       0xdf drivers/built-in.o
                                         0xf0 (size before relaxing)
 .rodata.rockchip_panel_probe.str1.1
                0x00000000002ce32b      0x12b drivers/built-in.o
                                        0x153 (size before relaxing)
 .rodata.rockchip_panel_send_dsi_cmds.part.1.str1.1
                0x00000000002ce456       0x3c drivers/built-in.o
 .rodata.rockchip_pinctrl_probe.str1.1
                0x00000000002ce492       0x61 drivers/built-in.o
                                         0xb8 (size before relaxing)
 .rodata.rockchip_pinctrl_set_state.str1.1
                0x00000000002ce4f3        0xe drivers/built-in.o
                                         0x1c (size before relaxing)
 .rodata.rockchip_read_dtb_file.str1.1
                0x00000000002ce501       0x4d arch/arm/mach-rockchip/built-in.o
                                         0x58 (size before relaxing)
 .rodata.rockchip_read_resource_dtb.str1.1
                0x00000000002ce54e        0x9 arch/arm/mach-rockchip/built-in.o
 .rodata.rockchip_read_resource_file.str1.1
                0x00000000002ce54e        0xd arch/arm/mach-rockchip/built-in.o
 .rodata.rockchip_reset_probe.str1.1
                0x00000000002ce55b        0x4 drivers/built-in.o
 .rodata.rockchip_saradc_channel_data.str1.1
                0x00000000002ce55b       0x21 drivers/built-in.o
 .rodata.rockchip_saradc_ofdata_to_platdata.str1.1
                0x00000000002ce57c       0x1d drivers/built-in.o
 .rodata.rockchip_saradc_start_channel.str1.1
                0x00000000002ce599       0x1e drivers/built-in.o
 .rodata.rockchip_set_serialno.str1.1
                0x00000000002ce5b7       0x5b arch/arm/mach-rockchip/built-in.o
                                         0x60 (size before relaxing)
 .rodata.rockchip_show_logo.str1.1
                0x00000000002ce612       0x1e drivers/built-in.o
 .rodata.rockchip_usb2phy_bind.str1.1
                0x00000000002ce630       0x44 drivers/built-in.o
 .rodata.rockchip_usb2phy_exit.str1.1
                0x00000000002ce674       0x17 drivers/built-in.o
 .rodata.rockchip_usb2phy_of_xlate.str1.1
                0x00000000002ce68b       0x34 drivers/built-in.o
 .rodata.rockchip_usb2phy_power_off.str1.1
                0x00000000002ce6bf       0x1f drivers/built-in.o
 .rodata.rockchip_usb2phy_probe.str1.1
                0x00000000002ce6de       0xd7 drivers/built-in.o
                                         0xe7 (size before relaxing)
 .rodata.rockchip_vop2_fixup_dts.str1.1
                0x00000000002ce7b5       0x3d drivers/built-in.o
                                         0x51 (size before relaxing)
 .rodata.rockchip_vop2_init.str1.1
                0x00000000002ce7f2       0xb8 drivers/built-in.o
                                        0x110 (size before relaxing)
 .rodata.rockchip_vop2_preinit.str1.1
                0x00000000002ce8aa       0x24 drivers/built-in.o
 .rodata.rockchip_vop2_set_plane.str1.1
                0x00000000002ce8aa       0x65 drivers/built-in.o
                                         0x91 (size before relaxing)
 .rodata.rockchip_vop_init.str1.1
                0x00000000002ce90f       0xdf drivers/built-in.o
                                         0xed (size before relaxing)
 .rodata.rockchip_vop_set_plane.str1.1
                0x00000000002ce9ee       0x4e drivers/built-in.o
 .rodata.run_list_real.str1.1
                0x00000000002cea3c       0x45 common/built-in.o
                                         0x4b (size before relaxing)
 .rodata.rx_handler_command.str1.1
                0x00000000002cea81       0x3e drivers/usb/gadget/built-in.o
                                         0x4e (size before relaxing)
 .rodata.rx_handler_dl_image.str1.1
                0x00000000002ceabf       0x23 drivers/usb/gadget/built-in.o
 .rodata.sdhci_probe.str1.1
                0x00000000002ceae2       0x24 drivers/built-in.o
 .rodata.sdhci_reset.isra.3.str1.1
                0x00000000002ceb06       0x21 drivers/built-in.o
 .rodata.sdhci_send_command.str1.1
                0x00000000002ceb27       0x91 drivers/built-in.o
                                         0x9b (size before relaxing)
 .rodata.sdhci_set_clock.str1.1
                0x00000000002cebb8       0x4e drivers/built-in.o
 .rodata.sdhci_setup_cfg.str1.1
                0x00000000002cec06       0x5f drivers/built-in.o
 .rodata.set_default_env.str1.1
                0x00000000002cec65       0x4a env/built-in.o
                                         0x71 (size before relaxing)
 .rodata.set_gpt_info.isra.0.constprop.2.str1.1
                0x00000000002cecaf       0x8e cmd/built-in.o
                                         0xb0 (size before relaxing)
 .rodata.set_local_var.str1.1
                0x00000000002ced3d       0x59 common/built-in.o
 .rodata.set_protective_mbr.str1.1
                0x00000000002ced96       0x55 disk/built-in.o
 .rodata.set_working_fdt_addr.str1.1
                0x00000000002cedeb        0x8 cmd/built-in.o
 .rodata.setup_boot_mode.str1.1
                0x00000000002cedf3       0xda arch/arm/mach-rockchip/built-in.o
 .rodata.setup_download_mode.str1.1
                0x00000000002ceecd       0x5e arch/arm/mach-rockchip/built-in.o
                                         0x80 (size before relaxing)
 .rodata.setup_pgtables.str1.1
                0x00000000002cef2b       0x2d arch/arm/cpu/armv8/built-in.o
 .rodata.setup_reloc.str1.1
                0x00000000002cef58       0x32 common/built-in.o
                                         0x34 (size before relaxing)
 .rodata.sha1_padding
                0x00000000002cef8a       0x40 lib/built-in.o
 .rodata.show_board_info.str1.1
                0x00000000002cefca       0x11 common/built-in.o
 .rodata.show_devices.str1.1
                0x00000000002cefdb       0x41 drivers/built-in.o
                                         0x69 (size before relaxing)
 .rodata.show_dram_config.str1.1
                0x00000000002cf01c        0x1 common/built-in.o
 .rodata.show_regs.str1.1
                0x00000000002cf01c      0x3f2 arch/arm/lib/built-in.o
                                        0x3f4 (size before relaxing)
 .rodata.simple_bus_post_bind.str1.1
                0x00000000002cf40e        0x7 drivers/built-in.o
 .rodata.simple_panel_ofdata_to_platdata.str1.1
                0x00000000002cf40e       0x1a drivers/built-in.o
                                         0x24 (size before relaxing)
 .rodata.sleep_thread.isra.20.str1.1
                0x00000000002cf428        0xc drivers/usb/gadget/built-in.o
 .rodata.smsc95xx_eth_start.str1.1
                0x00000000002cf434       0x36 drivers/usb/eth/built-in.o
                                         0x75 (size before relaxing)
 .rodata.soc_clk_dump.str1.1
                0x00000000002cf46a       0xd8 drivers/built-in.o
                                         0xde (size before relaxing)
 .rodata.sohci_submit_job.str1.1
                0x00000000002cf542       0xa6 drivers/usb/host/built-in.o
 .rodata.source.str1.1
                0x00000000002cf5e8       0xf7 cmd/built-in.o
                                        0x114 (size before relaxing)
 .rodata.spi_clkregs
                0x00000000002cf6df        0xf drivers/built-in.o
 .rodata.spi_flash_probe_bus_cs.str1.1
                0x00000000002cf6ee       0x1e drivers/mtd/spi/built-in.o
 .rodata.spi_get_bus_and_cs.str1.1
                0x00000000002cf70c       0x3d drivers/spi/built-in.o
 .rodata.spi_post_probe.str1.1
                0x00000000002cf749       0x12 drivers/spi/built-in.o
 .rodata.spi_set_speed_mode.str1.1
                0x00000000002cf75b       0x35 drivers/spi/built-in.o
 .rodata.spi_slave_ofdata_to_platdata.str1.1
                0x00000000002cf790       0xa0 drivers/spi/built-in.o
                                         0xa4 (size before relaxing)
 .rodata.split_block.str1.1
                0x00000000002cf830       0x74 arch/arm/cpu/armv8/built-in.o
 .rodata.stdio_add_devices.str1.1
                0x00000000002cf8a4        0x7 common/built-in.o
 .rodata.stdio_get_by_name.str1.1
                0x00000000002cf8a4        0xb common/built-in.o
 .rodata.store_char_in_data.str1.1
                0x00000000002cf8af       0x1f lib/built-in.o
 .rodata.str1.1
                0x00000000002cf8ce      0x26a arch/arm/mach-rockchip/built-in.o
                                        0x28c (size before relaxing)
 .rodata.str1.1
                0x00000000002cfb38     0x3bba cmd/built-in.o
                                       0x3f51 (size before relaxing)
 .rodata.str1.1
                0x00000000002d36f2      0x7c4 common/built-in.o
                                        0x8a5 (size before relaxing)
 .rodata.str1.1
                0x00000000002d3eb6       0x22 disk/built-in.o
                                         0x25 (size before relaxing)
 .rodata.str1.1
                0x00000000002d3ed8      0xfe0 drivers/built-in.o
                                       0x1147 (size before relaxing)
 .rodata.str1.1
                0x00000000002d4eb8       0x22 drivers/gpio/built-in.o
                                         0x47 (size before relaxing)
 .rodata.str1.1
                0x00000000002d4eda       0xa5 drivers/i2c/built-in.o
                                         0xa9 (size before relaxing)
 .rodata.str1.1
                0x00000000002d4f7f        0xa drivers/mtd/spi/built-in.o
 .rodata.str1.1
                0x00000000002d4f89      0x13f drivers/net/built-in.o
 .rodata.str1.1
                0x00000000002d50c8       0x66 drivers/net/phy/built-in.o
                                         0x7f (size before relaxing)
 .rodata.str1.1
                0x00000000002d512e       0x9b drivers/power/built-in.o
 .rodata.str1.1
                0x00000000002d51c9       0x10 drivers/power/charge/built-in.o
 .rodata.str1.1
                0x00000000002d51d9       0x14 drivers/power/fuel_gauge/built-in.o
 .rodata.str1.1
                0x00000000002d51ed      0x31b drivers/power/io-domain/built-in.o
                                        0x333 (size before relaxing)
 .rodata.str1.1
                0x00000000002d5508       0xb4 drivers/power/pmic/built-in.o
                                         0xd6 (size before relaxing)
 .rodata.str1.1
                0x00000000002d55bc       0x3c drivers/power/regulator/built-in.o
                                         0x68 (size before relaxing)
 .rodata.str1.1
                0x00000000002d55f8       0xb0 drivers/serial/built-in.o
                                         0xc0 (size before relaxing)
 .rodata.str1.1
                0x00000000002d56a8       0x1c drivers/spi/built-in.o
                                         0x20 (size before relaxing)
 .rodata.str1.1
                0x00000000002d56c4       0x44 drivers/usb/common/built-in.o
                                         0x51 (size before relaxing)
 .rodata.str1.1
                0x00000000002d5708       0x38 drivers/usb/eth/built-in.o
 .rodata.str1.1
                0x00000000002d5740      0x194 drivers/usb/gadget/built-in.o
                                        0x1e1 (size before relaxing)
 .rodata.str1.1
                0x00000000002d58d4        0x4 drivers/usb/gadget/udc/built-in.o
 .rodata.str1.1
                0x00000000002d58d4      0x5db drivers/usb/host/built-in.o
                                        0x5df (size before relaxing)
 .rodata.str1.1
                0x00000000002d5eaf        0x8 env/built-in.o
                                         0x18 (size before relaxing)
 .rodata.str1.1
                0x00000000002d5eb7       0x11 fs/built-in.o
                                         0x15 (size before relaxing)
 .rodata.str1.1
                0x00000000002d5ec8     0x1150 lib/built-in.o
                                       0x118a (size before relaxing)
 .rodata.str1.1
                0x00000000002d7018        0x6 net/built-in.o
                                         0x47 (size before relaxing)
 .rodata.str1.1
                0x00000000002d701e       0x82 test/built-in.o
                                        0x123 (size before relaxing)
 .rodata.str1.1
                0x00000000002d70a0      0x102 test/dm/built-in.o
                                        0x110 (size before relaxing)
 .rodata.string.str1.1
                0x00000000002d71a2        0x7 lib/built-in.o
 .rodata.sub_cmd_help
                0x00000000002d71a2      0x3b8 test/built-in.o
 .rodata.submit_common_msg.str1.1
                0x00000000002d755a       0x72 drivers/usb/host/built-in.o
 .rodata.switch_get_value.str1.1
                0x00000000002d75cc       0x18 drivers/power/regulator/built-in.o
 .rodata.syntax_err.str1.1
                0x00000000002d75e4        0xe common/built-in.o
 .rodata.syscon_reboot_request_by_mode.str1.1
                0x00000000002d75f2       0x27 drivers/built-in.o
 .rodata.sysmem_alloc_align_base.str1.1
                0x00000000002d7619      0x2a7 lib/built-in.o
 .rodata.sysmem_dump.str1.1
                0x00000000002d78c0      0x2b5 lib/built-in.o
                                        0x2b8 (size before relaxing)
 .rodata.sysmem_free.str1.1
                0x00000000002d7b75       0x6b lib/built-in.o
 .rodata.sysmem_init.str1.1
                0x00000000002d7be0      0x15a lib/built-in.o
 .rodata.sysmem_overflow_check.str1.1
                0x00000000002d7d3a      0x10b lib/built-in.o
 .rodata.sysreset_walk.str1.1
                0x00000000002d7e45       0x21 drivers/built-in.o
 .rodata.system_suspend_enter.str1.1
                0x00000000002d7e66       0x18 drivers/power/built-in.o
 .rodata.tab_seq
                0x00000000002d7e7e        0x9 common/built-in.o
 .rodata.td_fill.isra.2.str1.1
                0x00000000002d7e87       0x17 drivers/usb/host/built-in.o
 .rodata.tee_fs_link.str1.1
                0x00000000002d7e9e       0xcc lib/built-in.o
                                        0x157 (size before relaxing)
 .rodata.tee_fs_write.str1.1
                0x00000000002d7f6a      0x13e lib/built-in.o
 .rodata.tee_supp_rk_fs_init_v1.str1.1
                0x00000000002d80a8      0x15c lib/built-in.o
 .rodata.tee_supp_rk_fs_init_v2.str1.1
                0x00000000002d8204       0xbb lib/built-in.o
                                         0xe7 (size before relaxing)
 .rodata.tee_supp_rk_fs_process_v1.str1.1
                0x00000000002d82bf      0x2f7 lib/built-in.o
 .rodata.tee_supp_rk_fs_process_v2.str1.1
                0x00000000002d85b6      0x1e6 lib/built-in.o
                                        0x421 (size before relaxing)
 .rodata.test_block_type.str1.1
                0x00000000002d879c        0xa disk/built-in.o
 .rodata.test_secure_storage_default.str1.1
                0x00000000002d87a6       0xa5 cmd/built-in.o
                                         0xbc (size before relaxing)
 .rodata.test_secure_storage_security_partition.str1.1
                0x00000000002d884b       0x30 cmd/built-in.o
 .rodata.tftp_handler.str1.1
                0x00000000002d887b       0x72 net/built-in.o
                                         0x80 (size before relaxing)
 .rodata.tftp_send.str1.1
                0x00000000002d88ed       0x27 net/built-in.o
                                         0x42 (size before relaxing)
 .rodata.tftp_start.str1.1
                0x00000000002d8914      0x156 net/built-in.o
                                        0x17d (size before relaxing)
 .rodata.tftp_timeout_handler.str1.1
                0x00000000002d8a6a       0x2a net/built-in.o
                                         0x2d (size before relaxing)
 .rodata.timer_irq_handler.str1.1
                0x00000000002d8a94       0x19 drivers/power/built-in.o
 .rodata.timer_irq_handler.str1.1
                0x00000000002d8aad       0x33 test/built-in.o
 .rodata.trusty_base_read_security_data.str1.1
                0x00000000002d8ae0       0x17 lib/built-in.o
 .rodata.trusty_read_flash_lock_state.str1.1
                0x00000000002d8ae0       0x11 lib/built-in.o
 .rodata.trusty_read_lock_state.str1.1
                0x00000000002d8af1       0x11 lib/built-in.o
                                          0xb (size before relaxing)
 .rodata.trusty_read_permanent_attributes.str1.1
                0x00000000002d8af1        0xb lib/built-in.o
 .rodata.trusty_read_permanent_attributes_cer.str1.1
                0x00000000002d8afc        0x7 lib/built-in.o
 .rodata.trusty_read_permanent_attributes_flag.str1.1
                0x00000000002d8b03       0x10 lib/built-in.o
 .rodata.tuning_blk_pattern_4bit
                0x00000000002d8b13       0x40 drivers/built-in.o
 .rodata.tuning_blk_pattern_8bit
                0x00000000002d8b53       0x80 drivers/built-in.o
 .rodata.tx_handler_ul.str1.1
                0x00000000002d8bd3       0x31 drivers/usb/gadget/built-in.o
 .rodata.u_boot_hush_start.str1.1
                0x00000000002d8c04       0x12 common/built-in.o
 .rodata.uclass_resolve_seq.str1.1
                0x00000000002d8c16       0x27 drivers/built-in.o
 .rodata.unflatten_dt_node.str1.1
                0x00000000002d8c3d       0x13 lib/built-in.o
                                         0x3b (size before relaxing)
 .rodata.us_direction
                0x00000000002d8c50       0x20 common/built-in.o
 .rodata.usb_child_post_bind.str1.1
                0x00000000002d8c70       0x25 drivers/usb/host/built-in.o
 .rodata.usb_composite_register.str1.1
                0x00000000002d8c95        0xa drivers/usb/gadget/built-in.o
 .rodata.usb_display_class_sub.str1.1
                0x00000000002d8c9f       0xb6 cmd/built-in.o
                                         0xbc (size before relaxing)
 .rodata.usb_display_config.str1.1
                0x00000000002d8d55      0x10d cmd/built-in.o
                                        0x118 (size before relaxing)
 .rodata.usb_display_desc.str1.1
                0x00000000002d8e62       0xac cmd/built-in.o
                                         0xae (size before relaxing)
 .rodata.usb_display_string.str1.1
                0x00000000002d8f0e        0xd cmd/built-in.o
 .rodata.usb_ep_autoconfig.str1.1
                0x00000000002d8f1b       0x13 drivers/usb/gadget/built-in.o
                                         0x1f (size before relaxing)
 .rodata.usb_ether_receive.str1.1
                0x00000000002d8f2e       0x1b drivers/usb/eth/built-in.o
 .rodata.usb_find_usb2_hub_address_port.str1.1
                0x00000000002d8f49       0x36 common/built-in.o
 .rodata.usb_gadget_probe_driver.str1.1
                0x00000000002d8f7f       0x38 drivers/usb/gadget/udc/built-in.o
 .rodata.usb_get_class_desc.str1.1
                0x00000000002d8fb7       0x64 cmd/built-in.o
                                         0x65 (size before relaxing)
 .rodata.usb_get_configuration_len.str1.1
                0x00000000002d901b       0x58 common/built-in.o
 .rodata.usb_get_dr_mode.str1.1
                0x00000000002d9073       0x1f drivers/usb/common/built-in.o
 .rodata.usb_get_phy_mode.str1.1
                0x00000000002d9092       0x18 drivers/usb/common/built-in.o
                                         0x19 (size before relaxing)
 .rodata.usb_hub_configure.str1.1
                0x00000000002d90aa       0x5f common/built-in.o
 .rodata.usb_hub_port_connect_change.str1.1
                0x00000000002d9109       0x18 common/built-in.o
 .rodata.usb_init.str1.1
                0x00000000002d9121       0x54 drivers/usb/host/built-in.o
 .rodata.usb_mass_storage_probe.str1.1
                0x00000000002d9175       0x16 common/built-in.o
 .rodata.usb_scan_bus.isra.3.str1.1
                0x00000000002d918b       0x4d drivers/usb/host/built-in.o
                                         0x5f (size before relaxing)
 .rodata.usb_scan_device.str1.1
                0x00000000002d91d8       0x2a drivers/usb/host/built-in.o
 .rodata.usb_select_config.str1.1
                0x00000000002d9202      0x220 common/built-in.o
 .rodata.usb_set_interface.str1.1
                0x00000000002d9422       0x1f common/built-in.o
 .rodata.usb_setup_descriptor.str1.1
                0x00000000002d9441       0x1d common/built-in.o
 .rodata.usb_setup_device.str1.1
                0x00000000002d945e       0x68 common/built-in.o
 .rodata.usb_show_tree_graph.str1.1
                0x00000000002d94c6       0x2b cmd/built-in.o
                                         0x3a (size before relaxing)
 .rodata.usb_stor_CBI_get_status.isra.2.str1.1
                0x00000000002d94f1       0x1f common/built-in.o
 .rodata.usb_stor_CB_transport.str1.1
                0x00000000002d9510       0x6e common/built-in.o
 .rodata.usb_stor_get_info.str1.1
                0x00000000002d957e       0x5d common/built-in.o
 .rodata.usb_stor_info.str1.1
                0x00000000002d95db       0x32 common/built-in.o
                                         0x40 (size before relaxing)
 .rodata.usb_stor_scan.str1.1
                0x00000000002d960d       0x48 common/built-in.o
 .rodata.usb_storage_probe.str1.1
                0x00000000002d9655       0x5c common/built-in.o
 .rodata.uuid_bin_to_str.str1.1
                0x00000000002d96b1        0x5 lib/built-in.o
 .rodata.validate_gpt_entries.str1.1
                0x00000000002d96b1       0x40 disk/built-in.o
 .rodata.validate_gpt_header.str1.1
                0x00000000002d96f1      0x103 disk/built-in.o
 .rodata.var_complete.str1.1
                0x00000000002d97f4        0x1 common/built-in.o
 .rodata.vendor_id.8370
                0x00000000002d97f4        0x9 drivers/usb/gadget/built-in.o
 .rodata.vendor_ops.str1.1
                0x00000000002d97fd       0x44 arch/arm/mach-rockchip/built-in.o
 .rodata.vendor_storage_init.str1.1
                0x00000000002d9841       0x4c arch/arm/mach-rockchip/built-in.o
 .rodata.vendor_storage_test.str1.1
                0x00000000002d988d      0x42b arch/arm/mach-rockchip/built-in.o
 .rodata.verify_permanent_attributes.str1.1
                0x00000000002d9cb8       0x78 lib/built-in.o
                                         0x84 (size before relaxing)
 .rodata.version_string
                0x00000000002d9d30       0x49 cmd/built-in.o
                0x00000000002d9d30                version_string
 .rodata.vidconsole_post_probe.str1.1
                0x00000000002d9d79       0x18 drivers/built-in.o
 .rodata.video_bridge_pre_probe.str1.1
                0x00000000002d9d79       0x1a drivers/built-in.o
                                         0x26 (size before relaxing)
 .rodata.video_fontdata
                0x00000000002d9d93     0x1000 drivers/built-in.o
 .rodata.video_post_bind.str1.1
                0x00000000002dad93       0x66 drivers/built-in.o
 .rodata.video_post_probe.str1.1
                0x00000000002dadf9       0x10 drivers/built-in.o
                                         0x1d (size before relaxing)
 .rodata.virq_add_chip.str1.1
                0x00000000002dae09       0x2b drivers/built-in.o
 .rodata.virq_chip_generic_handler.str1.1
                0x00000000002dae34       0x2f drivers/built-in.o
 .rodata.virqs_show.str1.1
                0x00000000002dae63       0x33 drivers/built-in.o
 .rodata.vop2_scale_factor.part.2.str1.1
                0x00000000002dae96       0x51 drivers/built-in.o
 .rodata.vop2_vp_primary_plane_order
                0x00000000002daee7        0x4 drivers/built-in.o
 .rodata.write_attestation_key_to_secure_storage.str1.1
                0x00000000002daeeb       0x65 common/built-in.o
 .rodata.write_cert_chain_length.str1.1
                0x00000000002daf50       0x25 common/built-in.o
                                         0x26 (size before relaxing)
 .rodata.write_is_device_unlocked.str1.1
                0x00000000002daf75       0x1e lib/built-in.o
 .rodata.write_key.str1.1
                0x00000000002daf93        0x6 common/built-in.o
 .rodata.write_keybox_to_secure_storage.str1.1
                0x00000000002daf99      0x1a3 common/built-in.o
                                        0x1b6 (size before relaxing)
 .rodata.write_mbr_and_gpt_partitions.str1.1
                0x00000000002db13c       0x78 disk/built-in.o
                                         0x7c (size before relaxing)
 .rodata.write_mbr_partition.str1.1
                0x00000000002db1b4       0x2d disk/built-in.o
 .rodata.write_sparse_image.str1.1
                0x00000000002db1e1      0x1f9 common/built-in.o
                                        0x1fa (size before relaxing)
 .rodata.write_to_partition.str1.1
                0x00000000002db3da       0x2e lib/built-in.o
                                         0x49 (size before relaxing)
 .rodata.write_to_security_storage.str1.1
                0x00000000002db408       0x8f common/built-in.o
 .rodata.xhci_alloc_device.str1.1
                0x00000000002db497       0x34 drivers/usb/host/built-in.o
 .rodata.xhci_alloc_virt_device.str1.1
                0x00000000002db4cb       0xa5 drivers/usb/host/built-in.o
 .rodata.xhci_configure_endpoints.str1.1
                0x00000000002db570       0x6c drivers/usb/host/built-in.o
                                         0x85 (size before relaxing)
 .rodata.xhci_dwc3_probe.str1.1
                0x00000000002db5dc       0x52 drivers/usb/host/built-in.o
                                         0x65 (size before relaxing)
 .rodata.xhci_mem_init.str1.1
                0x00000000002db62e       0x19 drivers/usb/host/built-in.o
 .rodata.xhci_register.str1.1
                0x00000000002db647       0x44 drivers/usb/host/built-in.o
 .rodata.xhci_reset.str1.1
                0x00000000002db68b       0x28 drivers/usb/host/built-in.o
 .rodata.xhci_ring_free.str1.1
                0x00000000002db6b3       0x1c drivers/usb/host/built-in.o
                                         0x35 (size before relaxing)
 .rodata.xhci_submit_bulk_msg.str1.1
                0x00000000002db6cf       0x19 drivers/usb/host/built-in.o
 .rodata.xhci_submit_control_msg.str1.1
                0x00000000002db6e8      0x185 drivers/usb/host/built-in.o
 .rodata.xhci_submit_int_msg.str1.1
                0x00000000002db86d       0x1e drivers/usb/host/built-in.o
 .rodata.xhci_wait_for_event.str1.1
                0x00000000002db88b       0x70 drivers/usb/host/built-in.o
 .rodata.xmalloc.str1.1
                0x00000000002db8fb       0x1e common/built-in.o
 .rodata.zunzip.str1.1
                0x00000000002db919       0x47 lib/built-in.o

.hash           0x00000000002db960       0x18
 .hash          0x00000000002db960       0x18 arch/arm/cpu/armv8/start.o
                0x00000000002db978                . = ALIGN (0x8)

.data           0x00000000002db978     0x8390
 *(.data*)
 .data.rel.ro   0x00000000002db978        0x0 arch/arm/cpu/armv8/start.o
 .data.bcb_offset.6021
                0x00000000002db978        0x4 arch/arm/mach-rockchip/built-in.o
 .data.boot_mode.6020
                0x00000000002db97c        0xc arch/arm/mach-rockchip/built-in.o
 .data.mem_attr
                0x00000000002db988        0x8 arch/arm/mach-rockchip/built-in.o
                0x00000000002db988                mem_attr
 .data.entrys_head
                0x00000000002db990       0x10 arch/arm/mach-rockchip/built-in.o
 .data.mem_map  0x00000000002db9a0        0x8 arch/arm/mach-rockchip/built-in.o
                0x00000000002db9a0                mem_map
 .data.rk3399_mem_map
                0x00000000002db9a8       0x60 arch/arm/mach-rockchip/built-in.o
 .data.dwc3_device_data
                0x00000000002dba08       0x68 board/rockchip/evb_rk3399/built-in.o
 .data.bootm_help_text
                0x00000000002dba70      0x4cf cmd/built-in.o
 *fill*         0x00000000002dbf3f        0x1 
 .data.cmd_bootm_sub
                0x00000000002dbf40      0x1b0 cmd/built-in.o
 .data.source_help_text
                0x00000000002dc0f0       0xac cmd/built-in.o
 *fill*         0x00000000002dc19c        0x4 
 .data.cmd_avb  0x00000000002dc1a0      0x1e0 cmd/built-in.o
 .data.bootz_help_text
                0x00000000002dc380      0x208 cmd/built-in.o
 .data.booti_help_text
                0x00000000002dc588      0x1e1 cmd/built-in.o
 *fill*         0x00000000002dc769        0x7 
 .data.cmd_dtimg_sub
                0x00000000002dc770       0x90 cmd/built-in.o
 .data.fdt_help_text
                0x00000000002dc800      0x648 cmd/built-in.o
 .data.root.5988
                0x00000000002dce48        0x2 cmd/built-in.o
 .data.tabs.6075
                0x00000000002dce4a       0x21 cmd/built-in.o
 *fill*         0x00000000002dce6b        0x5 
 .data.dp_last_length
                0x00000000002dce70        0x8 cmd/built-in.o
 .data.cmd_mmc  0x00000000002dce78      0x270 cmd/built-in.o
 .data.cmd_rpmb
                0x00000000002dd0e8       0xc0 cmd/built-in.o
 .data.curr_device
                0x00000000002dd1a8        0x4 cmd/built-in.o
 *fill*         0x00000000002dd1ac        0x4 
 .data.cmd_pxe_sub
                0x00000000002dd1b0       0x60 cmd/built-in.o
 .data.pxe_default_paths
                0x00000000002dd210       0x20 cmd/built-in.o
                0x00000000002dd210                pxe_default_paths
 .data.usb_stor_curr_dev
                0x00000000002dd230        0x4 cmd/built-in.o
 *fill*         0x00000000002dd234        0x4 
 .data.cmd_env_sub
                0x00000000002dd238      0x1e0 cmd/built-in.o
 .data.env_help_text
                0x00000000002dd418      0x26e cmd/built-in.o
 *fill*         0x00000000002dd686        0x2 
 .data.env_id   0x00000000002dd688        0x4 cmd/built-in.o
 *fill*         0x00000000002dd68c        0x4 
 .data.hash_algo
                0x00000000002dd690       0xa8 common/built-in.o
 .data.reserved_list
                0x00000000002dd738      0x108 common/built-in.o
 .data.init_sequence_r
                0x00000000002dd840      0x120 common/built-in.o
 .data.of_busses
                0x00000000002dd960       0x30 common/built-in.o
 .data.usb_scan_list
                0x00000000002dd990       0x10 common/built-in.o
 .data.edid_quirk_list
                0x00000000002dd9a0      0x108 common/built-in.o
 .data.hist_cur
                0x00000000002ddaa8        0x4 common/built-in.o
 *fill*         0x00000000002ddaac        0x4 
 .data.av_      0x00000000002ddab0      0x810 common/built-in.o
 .data.sbrk_base
                0x00000000002de2c0        0x8 common/built-in.o
 .data.trim_threshold
                0x00000000002de2c8        0x8 common/built-in.o
 .data.load_addr
                0x00000000002de2d0        0x8 common/built-in.o
                0x00000000002de2d0                load_addr
 .data.stdio_names
                0x00000000002de2d8       0x18 common/built-in.o
                0x00000000002de2d8                stdio_names
 .data.system_guid
                0x00000000002de2f0       0x10 disk/built-in.o
 .data.dev_num  0x00000000002de300        0x4 disk/built-in.o
 *fill*         0x00000000002de304        0x4 
 .data.parts_head
                0x00000000002de308       0x10 disk/built-in.o
 .data.rk3399_clk_ops
                0x00000000002de318       0x50 drivers/built-in.o
 .data.rk3399_pmuclk_ops
                0x00000000002de368       0x50 drivers/built-in.o
 .data.aliases_lookup
                0x00000000002de3b8       0x10 drivers/built-in.o
                0x00000000002de3b8                aliases_lookup
 .data.of_busses
                0x00000000002de3c8       0x38 drivers/built-in.o
 .data.rockchip_usb2phy_ops
                0x00000000002de400       0x40 drivers/built-in.o
 .data.px30_mux_route_data
                0x00000000002de440       0x60 drivers/built-in.o
 .data.px30_pin_banks
                0x00000000002de4a0      0x1e0 drivers/built-in.o
 .data.rk1808_mux_route_data
                0x00000000002de680       0x3c drivers/built-in.o
 *fill*         0x00000000002de6bc        0x4 
 .data.rk1808_pin_banks
                0x00000000002de6c0      0x258 drivers/built-in.o
 .data.rk2928_pin_banks
                0x00000000002de918      0x1e0 drivers/built-in.o
 .data.rk3036_pin_banks
                0x00000000002deaf8      0x168 drivers/built-in.o
 .data.rk3066a_pin_banks
                0x00000000002dec60      0x2d0 drivers/built-in.o
 .data.rk3066b_pin_banks
                0x00000000002def30      0x1e0 drivers/built-in.o
 .data.rk3128_mux_recalced_data
                0x00000000002df110       0x3c drivers/built-in.o
 .data.rk3128_mux_route_data
                0x00000000002df14c       0x54 drivers/built-in.o
 .data.rk3128_pin_banks
                0x00000000002df1a0      0x1e0 drivers/built-in.o
 .data.rk3188_pin_banks
                0x00000000002df380      0x1e0 drivers/built-in.o
 .data.rk3228_mux_route_data
                0x00000000002df560       0xd8 drivers/built-in.o
 .data.rk3228_pin_banks
                0x00000000002df638      0x1e0 drivers/built-in.o
 .data.rk3288_mux_route_data
                0x00000000002df818       0x18 drivers/built-in.o
 .data.rk3288_pin_banks
                0x00000000002df830      0x438 drivers/built-in.o
 .data.rk3308_mux_recalced_data
                0x00000000002dfc68       0x78 drivers/built-in.o
 .data.rk3308_mux_route_data
                0x00000000002dfce0       0x9c drivers/built-in.o
 *fill*         0x00000000002dfd7c        0x4 
 .data.rk3308_pin_banks
                0x00000000002dfd80      0x258 drivers/built-in.o
 .data.rk3308_pin_ctrl
                0x00000000002dffd8       0x80 drivers/built-in.o
 .data.rk3328_mux_recalced_data
                0x00000000002e0058       0x24 drivers/built-in.o
 .data.rk3328_mux_route_data
                0x00000000002e007c       0x90 drivers/built-in.o
 *fill*         0x00000000002e010c        0x4 
 .data.rk3328_pin_banks
                0x00000000002e0110      0x1e0 drivers/built-in.o
 .data.rk3368_pin_banks
                0x00000000002e02f0      0x1e0 drivers/built-in.o
 .data.rk3399_mux_route_data
                0x00000000002e04d0       0x3c drivers/built-in.o
 *fill*         0x00000000002e050c        0x4 
 .data.rk3399_pin_banks
                0x00000000002e0510      0x258 drivers/built-in.o
 .data.rockchip_pinctrl_ops
                0x00000000002e0768       0x88 drivers/built-in.o
 .data.rv1108_mux_recalced_data
                0x00000000002e07f0       0x78 drivers/built-in.o
 .data.rv1108_pin_banks
                0x00000000002e0868      0x1e0 drivers/built-in.o
 .data.rv1126_mux_recalced_data
                0x00000000002e0a48       0x30 drivers/built-in.o
 .data.rv1126_mux_route_data
                0x00000000002e0a78      0x318 drivers/built-in.o
 .data.rv1126_pin_banks
                0x00000000002e0d90      0x258 drivers/built-in.o
 .data.rk3399_dmc_ops
                0x00000000002e0fe8        0x8 drivers/built-in.o
 .data.gic_irq_chip
                0x00000000002e0ff0       0x60 drivers/built-in.o
 .data.gpio_irq_chip
                0x00000000002e1050       0x60 drivers/built-in.o
 .data.gpio_banks
                0x00000000002e10b0       0xa0 drivers/built-in.o
 .data.virq_desc_head
                0x00000000002e1150       0x10 drivers/built-in.o
 .data.virq_generic_chip
                0x00000000002e1160       0x60 drivers/built-in.o
                0x00000000002e1160                virq_generic_chip
 .data.virq_id  0x00000000002e11c0        0x4 drivers/built-in.o
 .data.cmd_timeout.7416
                0x00000000002e11c4        0x4 drivers/built-in.o
 .data.arasan_sdhci_ops
                0x00000000002e11c8       0x28 drivers/built-in.o
 .data.psci_sysreset_ops
                0x00000000002e11f0       0x10 drivers/built-in.o
 .data.rockchip_sysreset
                0x00000000002e1200       0x10 drivers/built-in.o
 .data.console_normal_ops
                0x00000000002e1210       0x28 drivers/built-in.o
                0x00000000002e1210                console_normal_ops
 .data.logo_cache_list
                0x00000000002e1238       0x10 drivers/built-in.o
 .data.rockchip_display_list
                0x00000000002e1248       0x10 drivers/built-in.o
 .data.gamma_lut_en_num.8802
                0x00000000002e1258        0x4 drivers/built-in.o
 .data.rk3568_vp_data
                0x00000000002e125c       0x30 drivers/built-in.o
 *fill*         0x00000000002e128c        0x4 
 .data.rk3568_win_data
                0x00000000002e1290       0x60 drivers/built-in.o
 .data.rk356x_vp_plane_mask
                0x00000000002e12f0      0x100 drivers/built-in.o
 .data.rockchip_reset_ops
                0x00000000002e13f0       0x28 drivers/built-in.o
                0x00000000002e13f0                rockchip_reset_ops
 .data.supported
                0x00000000002e1418       0x40 drivers/net/built-in.o
 .data.genphy_driver
                0x00000000002e1458       0x68 drivers/net/phy/built-in.o
 .data.phy_drivers
                0x00000000002e14c0       0x10 drivers/net/phy/built-in.o
 .data.charger_ops
                0x00000000002e14d0       0x30 drivers/power/charge/built-in.o
 .data.fg_ops   0x00000000002e1500       0x30 drivers/power/fuel_gauge/built-in.o
 .data.last_soc.8094
                0x00000000002e1530        0x4 drivers/power/fuel_gauge/built-in.o
 .data.old_charger.8233
                0x00000000002e1534        0x1 drivers/power/fuel_gauge/built-in.o
 *fill*         0x00000000002e1535        0x3 
 .data.rk805_irq_chip
                0x00000000002e1538       0x38 drivers/power/pmic/built-in.o
 .data.rk808_irq_chip
                0x00000000002e1570       0x38 drivers/power/pmic/built-in.o
 .data.rk816_irq_chip
                0x00000000002e15a8       0x38 drivers/power/pmic/built-in.o
 .data.rk817_init_reg
                0x00000000002e15e0        0xc drivers/power/pmic/built-in.o
 *fill*         0x00000000002e15ec        0x4 
 .data.rk817_irq_chip
                0x00000000002e15f0       0x38 drivers/power/pmic/built-in.o
 .data.rk818_init_current
                0x00000000002e1628        0x3 drivers/power/pmic/built-in.o
 *fill*         0x00000000002e162b        0x5 
 .data.rk818_irq_chip
                0x00000000002e1630       0x38 drivers/power/pmic/built-in.o
 .data.rk8xx_ops
                0x00000000002e1668       0x30 drivers/power/pmic/built-in.o
 .data.dwc3_list
                0x00000000002e1698       0x10 drivers/usb/dwc3/built-in.o
 .data.dwc3_gadget_ep0_desc
                0x00000000002e16a8        0x9 drivers/usb/dwc3/built-in.o
 .data.r8152b_pla_patch_a
                0x00000000002e16b1      0x3fc drivers/usb/eth/built-in.o
 .data.r8152b_pla_patch_a2
                0x00000000002e1aad      0x288 drivers/usb/eth/built-in.o
 .data.r8153_pla_patch_b
                0x00000000002e1d35      0x400 drivers/usb/eth/built-in.o
 .data.r8153_pla_patch_c
                0x00000000002e2135      0x400 drivers/usb/eth/built-in.o
 .data.r8153_usb_patch_b
                0x00000000002e2535      0x15c drivers/usb/eth/built-in.o
 .data.r8153_usb_patch_c
                0x00000000002e2691      0x114 drivers/usb/eth/built-in.o
 .data.usb_patch_d
                0x00000000002e27a5       0x70 drivers/usb/eth/built-in.o
 *fill*         0x00000000002e2815        0x3 
 .data.composite_driver
                0x00000000002e2818       0x48 drivers/usb/gadget/built-in.o
 .data.device_desc
                0x00000000002e2860       0x12 drivers/usb/gadget/built-in.o
 *fill*         0x00000000002e2872        0x6 
 .data.g_dnl_composite_strings
                0x00000000002e2878       0x10 drivers/usb/gadget/built-in.o
 .data.g_dnl_driver
                0x00000000002e2888       0x40 drivers/usb/gadget/built-in.o
 .data.g_dnl_string_defs
                0x00000000002e28c8       0x40 drivers/usb/gadget/built-in.o
 .data.g_dnl_string_tab
                0x00000000002e2908       0x10 drivers/usb/gadget/built-in.o
 .data.fsg_fs_bulk_in_desc
                0x00000000002e2918        0x9 drivers/usb/gadget/built-in.o
 .data.fsg_fs_bulk_out_desc
                0x00000000002e2921        0x9 drivers/usb/gadget/built-in.o
 *fill*         0x00000000002e292a        0x6 
 .data.fsg_fs_function
                0x00000000002e2930       0x20 drivers/usb/gadget/built-in.o
 .data.fsg_hs_bulk_in_desc
                0x00000000002e2950        0x9 drivers/usb/gadget/built-in.o
 .data.fsg_hs_bulk_out_desc
                0x00000000002e2959        0x9 drivers/usb/gadget/built-in.o
 *fill*         0x00000000002e2962        0x6 
 .data.fsg_hs_function
                0x00000000002e2968       0x20 drivers/usb/gadget/built-in.o
 .data.fsg_intf_desc
                0x00000000002e2988        0x9 drivers/usb/gadget/built-in.o
 .data.fsg_ss_bulk_in_comp_desc
                0x00000000002e2991        0x6 drivers/usb/gadget/built-in.o
 .data.fsg_ss_bulk_in_desc
                0x00000000002e2997        0x9 drivers/usb/gadget/built-in.o
 .data.fsg_ss_bulk_out_comp_desc
                0x00000000002e29a0        0x6 drivers/usb/gadget/built-in.o
 .data.fsg_ss_bulk_out_desc
                0x00000000002e29a6        0x9 drivers/usb/gadget/built-in.o
 *fill*         0x00000000002e29af        0x1 
 .data.fsg_strings
                0x00000000002e29b0       0x20 drivers/usb/gadget/built-in.o
 .data.fsg_strings_array
                0x00000000002e29d0       0x10 drivers/usb/gadget/built-in.o
 .data.fsg_stringtab
                0x00000000002e29e0       0x10 drivers/usb/gadget/built-in.o
 .data.rkusb_fs_function
                0x00000000002e29f0       0x20 drivers/usb/gadget/built-in.o
 .data.rkusb_hs_function
                0x00000000002e2a10       0x20 drivers/usb/gadget/built-in.o
 .data.rkusb_intf_desc
                0x00000000002e2a30        0x9 drivers/usb/gadget/built-in.o
 *fill*         0x00000000002e2a39        0x7 
 .data.rkusb_ss_function
                0x00000000002e2a40       0x30 drivers/usb/gadget/built-in.o
 .data.fastboot_string_defs
                0x00000000002e2a70       0x20 drivers/usb/gadget/built-in.o
 .data.fastboot_strings
                0x00000000002e2a90       0x10 drivers/usb/gadget/built-in.o
 .data.fb_fs_function
                0x00000000002e2aa0       0x18 drivers/usb/gadget/built-in.o
 .data.fb_hs_function
                0x00000000002e2ab8       0x20 drivers/usb/gadget/built-in.o
 .data.fb_ss_function
                0x00000000002e2ad8       0x30 drivers/usb/gadget/built-in.o
 .data.fs_ep_in
                0x00000000002e2b08        0x9 drivers/usb/gadget/built-in.o
 .data.fs_ep_out
                0x00000000002e2b11        0x9 drivers/usb/gadget/built-in.o
 .data.hs_ep_in
                0x00000000002e2b1a        0x9 drivers/usb/gadget/built-in.o
 .data.hs_ep_out
                0x00000000002e2b23        0x9 drivers/usb/gadget/built-in.o
 .data.interface_desc
                0x00000000002e2b2c        0x9 drivers/usb/gadget/built-in.o
 .data.ss_ep_in
                0x00000000002e2b35        0x9 drivers/usb/gadget/built-in.o
 .data.ss_ep_in_comp_desc
                0x00000000002e2b3e        0x6 drivers/usb/gadget/built-in.o
 .data.ss_ep_out
                0x00000000002e2b44        0x9 drivers/usb/gadget/built-in.o
 .data.ss_ep_out_comp_desc
                0x00000000002e2b4d        0x6 drivers/usb/gadget/built-in.o
 *fill*         0x00000000002e2b53        0x5 
 .data.stringtab_fastboot
                0x00000000002e2b58       0x10 drivers/usb/gadget/built-in.o
 .data.udc_list
                0x00000000002e2b68       0x10 drivers/usb/gadget/udc/built-in.o
 .data.ohci_usb_ops
                0x00000000002e2b78       0x50 drivers/usb/host/built-in.o
                0x00000000002e2b78                ohci_usb_ops
 .data.root_hub_config_des
                0x00000000002e2bc8       0x19 drivers/usb/host/built-in.o
 .data.root_hub_dev_des
                0x00000000002e2be1       0x12 drivers/usb/host/built-in.o
 .data.root_hub_str_index0
                0x00000000002e2bf3        0x4 drivers/usb/host/built-in.o
 .data.root_hub_str_index1
                0x00000000002e2bf7       0x20 drivers/usb/host/built-in.o
 .data.descriptor
                0x00000000002e2c17       0x78 drivers/usb/host/built-in.o
 *fill*         0x00000000002e2c8f        0x1 
 .data.ehci_usb_ops
                0x00000000002e2c90       0x50 drivers/usb/host/built-in.o
                0x00000000002e2c90                ehci_usb_ops
 .data.xhci_usb_ops
                0x00000000002e2ce0       0x50 drivers/usb/host/built-in.o
                0x00000000002e2ce0                xhci_usb_ops
 .data.env_htab
                0x00000000002e2d30       0x18 env/built-in.o
                0x00000000002e2d30                env_htab
 .data.first_call
                0x00000000002e2d48        0x8 env/built-in.o
 .data.fstypes  0x00000000002e2d50      0x150 fs/built-in.o
 .data.ext4fs_indir1_blkno
                0x00000000002e2ea0        0x4 fs/built-in.o
                0x00000000002e2ea0                ext4fs_indir1_blkno
 .data.ext4fs_indir2_blkno
                0x00000000002e2ea4        0x4 fs/built-in.o
                0x00000000002e2ea4                ext4fs_indir2_blkno
 .data.ext4fs_indir3_blkno
                0x00000000002e2ea8        0x4 fs/built-in.o
                0x00000000002e2ea8                ext4fs_indir3_blkno
 *fill*         0x00000000002e2eac        0x4 
 .data          0x00000000002e2eb0      0x500 lib/built-in.o
                0x00000000002e2eb0                plat_sysmem
                0x00000000002e3128                plat_bidram
 .data.sha256_padding
                0x00000000002e33b0       0x40 lib/built-in.o
 .data.algorithm_data
                0x00000000002e33f0       0xa8 lib/built-in.o
 .data.curr_device
                0x00000000002e3498        0x4 lib/built-in.o
 .data.last_slot_index.6570
                0x00000000002e349c        0x4 lib/built-in.o
 .data.y        0x00000000002e34a0        0x4 lib/built-in.o
 .data.first_call.6243
                0x00000000002e34a4        0x4 net/built-in.o
 .data.net_native_vlan
                0x00000000002e34a8        0x2 net/built-in.o
                0x00000000002e34a8                net_native_vlan
 .data.net_our_vlan
                0x00000000002e34aa        0x2 net/built-in.o
                0x00000000002e34aa                net_our_vlan
 .data.nfs_offset
                0x00000000002e34ac        0x4 net/built-in.o
 .data.supported_nfs_versions
                0x00000000002e34b0        0x1 net/built-in.o
 *fill*         0x00000000002e34b1        0x1 
 .data.tftp_block_size
                0x00000000002e34b2        0x2 net/built-in.o
 .data.tftp_block_size_option
                0x00000000002e34b4        0x2 net/built-in.o
 *fill*         0x00000000002e34b6        0x2 
 .data.tftp_timeout_count_max
                0x00000000002e34b8        0x4 net/built-in.o
                0x00000000002e34b8                tftp_timeout_count_max
 .data.timeout_count_max
                0x00000000002e34bc        0x4 net/built-in.o
 .data.timeout_ms
                0x00000000002e34c0        0x8 net/built-in.o
 .data.sub_cmd  0x00000000002e34c8      0x4b0 test/built-in.o
 .data.cmd_grp_net
                0x00000000002e3978       0x20 test/built-in.o
                0x00000000002e3978                cmd_grp_net
 .data.sub_cmd_help
                0x00000000002e3998      0x2ab test/built-in.o
 *fill*         0x00000000002e3c43        0x5 
 .data.test_commands
                0x00000000002e3c48       0xc0 test/dm/built-in.o

.got            0x00000000002e3d08        0x8
 .got           0x00000000002e3d08        0x8 arch/arm/cpu/armv8/start.o
                0x00000000002e3d08                _GLOBAL_OFFSET_TABLE_

.got.plt        0x00000000002e3d10       0x18
 .got.plt       0x00000000002e3d10       0x18 arch/arm/cpu/armv8/start.o
                0x00000000002e3d28                . = ALIGN (0x8)
                0x00000000002e3d28                . = .
                0x00000000002e3d28                . = ALIGN (0x8)

.u_boot_list    0x00000000002e3d28     0x4a18
 *(SORT_BY_NAME(.u_boot_list*))
 .u_boot_list_2_cmd_1
                0x00000000002e3d28        0x0 cmd/built-in.o
 .u_boot_list_2_cmd_1
                0x00000000002e3d28        0x0 common/built-in.o
 .u_boot_list_2_cmd_2_android_print_hdr
                0x00000000002e3d28       0x30 cmd/built-in.o
                0x00000000002e3d28                _u_boot_list_2_cmd_2_android_print_hdr
 .u_boot_list_2_cmd_2_base
                0x00000000002e3d58       0x30 cmd/built-in.o
                0x00000000002e3d58                _u_boot_list_2_cmd_2_base
 .u_boot_list_2_cmd_2_bdinfo
                0x00000000002e3d88       0x30 cmd/built-in.o
                0x00000000002e3d88                _u_boot_list_2_cmd_2_bdinfo
 .u_boot_list_2_cmd_2_bidram_dump
                0x00000000002e3db8       0x30 lib/built-in.o
                0x00000000002e3db8                _u_boot_list_2_cmd_2_bidram_dump
 .u_boot_list_2_cmd_2_boot
                0x00000000002e3de8       0x30 cmd/built-in.o
                0x00000000002e3de8                _u_boot_list_2_cmd_2_boot
 .u_boot_list_2_cmd_2_boot_android
                0x00000000002e3e18       0x30 cmd/built-in.o
                0x00000000002e3e18                _u_boot_list_2_cmd_2_boot_android
 .u_boot_list_2_cmd_2_bootavb
                0x00000000002e3e48       0x30 cmd/built-in.o
                0x00000000002e3e48                _u_boot_list_2_cmd_2_bootavb
 .u_boot_list_2_cmd_2_bootd
                0x00000000002e3e78       0x30 cmd/built-in.o
                0x00000000002e3e78                _u_boot_list_2_cmd_2_bootd
 .u_boot_list_2_cmd_2_booti
                0x00000000002e3ea8       0x30 cmd/built-in.o
                0x00000000002e3ea8                _u_boot_list_2_cmd_2_booti
 .u_boot_list_2_cmd_2_bootm
                0x00000000002e3ed8       0x30 cmd/built-in.o
                0x00000000002e3ed8                _u_boot_list_2_cmd_2_bootm
 .u_boot_list_2_cmd_2_bootp
                0x00000000002e3f08       0x30 cmd/built-in.o
                0x00000000002e3f08                _u_boot_list_2_cmd_2_bootp
 .u_boot_list_2_cmd_2_bootrkp
                0x00000000002e3f38       0x30 cmd/built-in.o
                0x00000000002e3f38                _u_boot_list_2_cmd_2_bootrkp
 .u_boot_list_2_cmd_2_bootz
                0x00000000002e3f68       0x30 cmd/built-in.o
                0x00000000002e3f68                _u_boot_list_2_cmd_2_bootz
 .u_boot_list_2_cmd_2_charge
                0x00000000002e3f98       0x30 cmd/built-in.o
                0x00000000002e3f98                _u_boot_list_2_cmd_2_charge
 .u_boot_list_2_cmd_2_cmp
                0x00000000002e3fc8       0x30 cmd/built-in.o
                0x00000000002e3fc8                _u_boot_list_2_cmd_2_cmp
 .u_boot_list_2_cmd_2_coninfo
                0x00000000002e3ff8       0x30 cmd/built-in.o
                0x00000000002e3ff8                _u_boot_list_2_cmd_2_coninfo
 .u_boot_list_2_cmd_2_cp
                0x00000000002e4028       0x30 cmd/built-in.o
                0x00000000002e4028                _u_boot_list_2_cmd_2_cp
 .u_boot_list_2_cmd_2_crc32
                0x00000000002e4058       0x30 cmd/built-in.o
                0x00000000002e4058                _u_boot_list_2_cmd_2_crc32
 .u_boot_list_2_cmd_2_crypto_sum
                0x00000000002e4088       0x30 cmd/built-in.o
                0x00000000002e4088                _u_boot_list_2_cmd_2_crypto_sum
 .u_boot_list_2_cmd_2_dhcp
                0x00000000002e40b8       0x30 cmd/built-in.o
                0x00000000002e40b8                _u_boot_list_2_cmd_2_dhcp
 .u_boot_list_2_cmd_2_dm
                0x00000000002e40e8       0x30 test/dm/built-in.o
                0x00000000002e40e8                _u_boot_list_2_cmd_2_dm
 .u_boot_list_2_cmd_2_download
                0x00000000002e4118       0x30 cmd/built-in.o
                0x00000000002e4118                _u_boot_list_2_cmd_2_download
 .u_boot_list_2_cmd_2_dtimg
                0x00000000002e4148       0x30 cmd/built-in.o
                0x00000000002e4148                _u_boot_list_2_cmd_2_dtimg
 .u_boot_list_2_cmd_2_dump_atags
                0x00000000002e4178       0x30 arch/arm/mach-rockchip/built-in.o
                0x00000000002e4178                _u_boot_list_2_cmd_2_dump_atags
 .u_boot_list_2_cmd_2_dump_irqs
                0x00000000002e41a8       0x30 drivers/built-in.o
                0x00000000002e41a8                _u_boot_list_2_cmd_2_dump_irqs
 .u_boot_list_2_cmd_2_echo
                0x00000000002e41d8       0x30 cmd/built-in.o
                0x00000000002e41d8                _u_boot_list_2_cmd_2_echo
 .u_boot_list_2_cmd_2_editenv
                0x00000000002e4208       0x30 cmd/built-in.o
                0x00000000002e4208                _u_boot_list_2_cmd_2_editenv
 .u_boot_list_2_cmd_2_env
                0x00000000002e4238       0x30 cmd/built-in.o
                0x00000000002e4238                _u_boot_list_2_cmd_2_env
 .u_boot_list_2_cmd_2_exit
                0x00000000002e4268       0x30 cmd/built-in.o
                0x00000000002e4268                _u_boot_list_2_cmd_2_exit
 .u_boot_list_2_cmd_2_ext2load
                0x00000000002e4298       0x30 cmd/built-in.o
                0x00000000002e4298                _u_boot_list_2_cmd_2_ext2load
 .u_boot_list_2_cmd_2_ext2ls
                0x00000000002e42c8       0x30 cmd/built-in.o
                0x00000000002e42c8                _u_boot_list_2_cmd_2_ext2ls
 .u_boot_list_2_cmd_2_ext4load
                0x00000000002e42f8       0x30 cmd/built-in.o
                0x00000000002e42f8                _u_boot_list_2_cmd_2_ext4load
 .u_boot_list_2_cmd_2_ext4ls
                0x00000000002e4328       0x30 cmd/built-in.o
                0x00000000002e4328                _u_boot_list_2_cmd_2_ext4ls
 .u_boot_list_2_cmd_2_ext4size
                0x00000000002e4358       0x30 cmd/built-in.o
                0x00000000002e4358                _u_boot_list_2_cmd_2_ext4size
 .u_boot_list_2_cmd_2_false
                0x00000000002e4388       0x30 cmd/built-in.o
                0x00000000002e4388                _u_boot_list_2_cmd_2_false
 .u_boot_list_2_cmd_2_fastboot
                0x00000000002e43b8       0x30 cmd/built-in.o
                0x00000000002e43b8                _u_boot_list_2_cmd_2_fastboot
 .u_boot_list_2_cmd_2_fatinfo
                0x00000000002e43e8       0x30 cmd/built-in.o
                0x00000000002e43e8                _u_boot_list_2_cmd_2_fatinfo
 .u_boot_list_2_cmd_2_fatload
                0x00000000002e4418       0x30 cmd/built-in.o
                0x00000000002e4418                _u_boot_list_2_cmd_2_fatload
 .u_boot_list_2_cmd_2_fatls
                0x00000000002e4448       0x30 cmd/built-in.o
                0x00000000002e4448                _u_boot_list_2_cmd_2_fatls
 .u_boot_list_2_cmd_2_fatsize
                0x00000000002e4478       0x30 cmd/built-in.o
                0x00000000002e4478                _u_boot_list_2_cmd_2_fatsize
 .u_boot_list_2_cmd_2_fatwrite
                0x00000000002e44a8       0x30 cmd/built-in.o
                0x00000000002e44a8                _u_boot_list_2_cmd_2_fatwrite
 .u_boot_list_2_cmd_2_fdt
                0x00000000002e44d8       0x30 cmd/built-in.o
                0x00000000002e44d8                _u_boot_list_2_cmd_2_fdt
 .u_boot_list_2_cmd_2_fstype
                0x00000000002e4508       0x30 cmd/built-in.o
                0x00000000002e4508                _u_boot_list_2_cmd_2_fstype
 .u_boot_list_2_cmd_2_go
                0x00000000002e4538       0x30 cmd/built-in.o
                0x00000000002e4538                _u_boot_list_2_cmd_2_go
 .u_boot_list_2_cmd_2_gpt
                0x00000000002e4568       0x30 cmd/built-in.o
                0x00000000002e4568                _u_boot_list_2_cmd_2_gpt
 .u_boot_list_2_cmd_2_help
                0x00000000002e4598       0x30 cmd/built-in.o
                0x00000000002e4598                _u_boot_list_2_cmd_2_help
 .u_boot_list_2_cmd_2_iomem
                0x00000000002e45c8       0x30 arch/arm/mach-rockchip/built-in.o
                0x00000000002e45c8                _u_boot_list_2_cmd_2_iomem
 .u_boot_list_2_cmd_2_lcdputs
                0x00000000002e45f8       0x30 drivers/built-in.o
                0x00000000002e45f8                _u_boot_list_2_cmd_2_lcdputs
 .u_boot_list_2_cmd_2_load
                0x00000000002e4628       0x30 cmd/built-in.o
                0x00000000002e4628                _u_boot_list_2_cmd_2_load
 .u_boot_list_2_cmd_2_loop
                0x00000000002e4658       0x30 cmd/built-in.o
                0x00000000002e4658                _u_boot_list_2_cmd_2_loop
 .u_boot_list_2_cmd_2_ls
                0x00000000002e4688       0x30 cmd/built-in.o
                0x00000000002e4688                _u_boot_list_2_cmd_2_ls
 .u_boot_list_2_cmd_2_md
                0x00000000002e46b8       0x30 cmd/built-in.o
                0x00000000002e46b8                _u_boot_list_2_cmd_2_md
 .u_boot_list_2_cmd_2_mdio
                0x00000000002e46e8       0x30 cmd/built-in.o
                0x00000000002e46e8                _u_boot_list_2_cmd_2_mdio
 .u_boot_list_2_cmd_2_mii
                0x00000000002e4718       0x30 cmd/built-in.o
                0x00000000002e4718                _u_boot_list_2_cmd_2_mii
 .u_boot_list_2_cmd_2_mm
                0x00000000002e4748       0x30 cmd/built-in.o
                0x00000000002e4748                _u_boot_list_2_cmd_2_mm
 .u_boot_list_2_cmd_2_mmc
                0x00000000002e4778       0x30 cmd/built-in.o
                0x00000000002e4778                _u_boot_list_2_cmd_2_mmc
 .u_boot_list_2_cmd_2_mmcinfo
                0x00000000002e47a8       0x30 cmd/built-in.o
                0x00000000002e47a8                _u_boot_list_2_cmd_2_mmcinfo
 .u_boot_list_2_cmd_2_mw
                0x00000000002e47d8       0x30 cmd/built-in.o
                0x00000000002e47d8                _u_boot_list_2_cmd_2_mw
 .u_boot_list_2_cmd_2_nfs
                0x00000000002e4808       0x30 cmd/built-in.o
                0x00000000002e4808                _u_boot_list_2_cmd_2_nfs
 .u_boot_list_2_cmd_2_nm
                0x00000000002e4838       0x30 cmd/built-in.o
                0x00000000002e4838                _u_boot_list_2_cmd_2_nm
 .u_boot_list_2_cmd_2_part
                0x00000000002e4868       0x30 cmd/built-in.o
                0x00000000002e4868                _u_boot_list_2_cmd_2_part
 .u_boot_list_2_cmd_2_ping
                0x00000000002e4898       0x30 cmd/built-in.o
                0x00000000002e4898                _u_boot_list_2_cmd_2_ping
 .u_boot_list_2_cmd_2_printenv
                0x00000000002e48c8       0x30 cmd/built-in.o
                0x00000000002e48c8                _u_boot_list_2_cmd_2_printenv
 .u_boot_list_2_cmd_2_pxe
                0x00000000002e48f8       0x30 cmd/built-in.o
                0x00000000002e48f8                _u_boot_list_2_cmd_2_pxe
 .u_boot_list_2_cmd_2_question_mark
                0x00000000002e4928       0x30 cmd/built-in.o
                0x00000000002e4928                _u_boot_list_2_cmd_2_question_mark
 .u_boot_list_2_cmd_2_rbrom
                0x00000000002e4958       0x30 cmd/built-in.o
                0x00000000002e4958                _u_boot_list_2_cmd_2_rbrom
 .u_boot_list_2_cmd_2_reboot
                0x00000000002e4988       0x30 cmd/built-in.o
                0x00000000002e4988                _u_boot_list_2_cmd_2_reboot
 .u_boot_list_2_cmd_2_reset
                0x00000000002e49b8       0x30 cmd/built-in.o
                0x00000000002e49b8                _u_boot_list_2_cmd_2_reset
 .u_boot_list_2_cmd_2_rkimgtest
                0x00000000002e49e8       0x30 cmd/built-in.o
                0x00000000002e49e8                _u_boot_list_2_cmd_2_rkimgtest
 .u_boot_list_2_cmd_2_rktest
                0x00000000002e4a18       0x30 test/built-in.o
                0x00000000002e4a18                _u_boot_list_2_cmd_2_rktest
 .u_boot_list_2_cmd_2_rockchip_show_bmp
                0x00000000002e4a48       0x30 drivers/built-in.o
                0x00000000002e4a48                _u_boot_list_2_cmd_2_rockchip_show_bmp
 .u_boot_list_2_cmd_2_rockchip_show_logo
                0x00000000002e4a78       0x30 drivers/built-in.o
                0x00000000002e4a78                _u_boot_list_2_cmd_2_rockchip_show_logo
 .u_boot_list_2_cmd_2_rockusb
                0x00000000002e4aa8       0x30 cmd/built-in.o
                0x00000000002e4aa8                _u_boot_list_2_cmd_2_rockusb
 .u_boot_list_2_cmd_2_run
                0x00000000002e4ad8       0x30 cmd/built-in.o
                0x00000000002e4ad8                _u_boot_list_2_cmd_2_run
 .u_boot_list_2_cmd_2_save
                0x00000000002e4b08       0x30 cmd/built-in.o
                0x00000000002e4b08                _u_boot_list_2_cmd_2_save
 .u_boot_list_2_cmd_2_setcurs
                0x00000000002e4b38       0x30 drivers/built-in.o
                0x00000000002e4b38                _u_boot_list_2_cmd_2_setcurs
 .u_boot_list_2_cmd_2_setenv
                0x00000000002e4b68       0x30 cmd/built-in.o
                0x00000000002e4b68                _u_boot_list_2_cmd_2_setenv
 .u_boot_list_2_cmd_2_sf
                0x00000000002e4b98       0x30 cmd/built-in.o
                0x00000000002e4b98                _u_boot_list_2_cmd_2_sf
 .u_boot_list_2_cmd_2_showvar
                0x00000000002e4bc8       0x30 common/built-in.o
                0x00000000002e4bc8                _u_boot_list_2_cmd_2_showvar
 .u_boot_list_2_cmd_2_size
                0x00000000002e4bf8       0x30 cmd/built-in.o
                0x00000000002e4bf8                _u_boot_list_2_cmd_2_size
 .u_boot_list_2_cmd_2_source
                0x00000000002e4c28       0x30 cmd/built-in.o
                0x00000000002e4c28                _u_boot_list_2_cmd_2_source
 .u_boot_list_2_cmd_2_sysboot
                0x00000000002e4c58       0x30 cmd/built-in.o
                0x00000000002e4c58                _u_boot_list_2_cmd_2_sysboot
 .u_boot_list_2_cmd_2_sysmem_dump
                0x00000000002e4c88       0x30 lib/built-in.o
                0x00000000002e4c88                _u_boot_list_2_cmd_2_sysmem_dump
 .u_boot_list_2_cmd_2_sysmem_search
                0x00000000002e4cb8       0x30 lib/built-in.o
                0x00000000002e4cb8                _u_boot_list_2_cmd_2_sysmem_search
 .u_boot_list_2_cmd_2_test
                0x00000000002e4ce8       0x30 cmd/built-in.o
                0x00000000002e4ce8                _u_boot_list_2_cmd_2_test
 .u_boot_list_2_cmd_2_tftp
                0x00000000002e4d18       0x30 cmd/built-in.o
                0x00000000002e4d18                _u_boot_list_2_cmd_2_tftp
 .u_boot_list_2_cmd_2_true
                0x00000000002e4d48       0x30 cmd/built-in.o
                0x00000000002e4d48                _u_boot_list_2_cmd_2_true
 .u_boot_list_2_cmd_2_ums
                0x00000000002e4d78       0x30 cmd/built-in.o
                0x00000000002e4d78                _u_boot_list_2_cmd_2_ums
 .u_boot_list_2_cmd_2_usb
                0x00000000002e4da8       0x30 cmd/built-in.o
                0x00000000002e4da8                _u_boot_list_2_cmd_2_usb
 .u_boot_list_2_cmd_2_usbboot
                0x00000000002e4dd8       0x30 cmd/built-in.o
                0x00000000002e4dd8                _u_boot_list_2_cmd_2_usbboot
 .u_boot_list_2_cmd_2_version
                0x00000000002e4e08       0x30 cmd/built-in.o
                0x00000000002e4e08                _u_boot_list_2_cmd_2_version
 .u_boot_list_2_cmd_3
                0x00000000002e4e38        0x0 cmd/built-in.o
 .u_boot_list_2_cmd_3
                0x00000000002e4e38        0x0 common/built-in.o
 .u_boot_list_2_driver_1
                0x00000000002e4e38        0x0 drivers/built-in.o
 .u_boot_list_2_driver_2_adc_key
                0x00000000002e4e38       0x78 drivers/built-in.o
                0x00000000002e4e38                _u_boot_list_2_driver_2_adc_key
 .u_boot_list_2_driver_2_adc_key_bus
                0x00000000002e4eb0       0x78 drivers/built-in.o
                0x00000000002e4eb0                _u_boot_list_2_driver_2_adc_key_bus
 .u_boot_list_2_driver_2_analogix_dp
                0x00000000002e4f28       0x78 drivers/built-in.o
                0x00000000002e4f28                _u_boot_list_2_driver_2_analogix_dp
 .u_boot_list_2_driver_2_arasan_sdhci_drv
                0x00000000002e4fa0       0x78 drivers/built-in.o
                0x00000000002e4fa0                _u_boot_list_2_driver_2_arasan_sdhci_drv
 .u_boot_list_2_driver_2_asix_eth
                0x00000000002e5018       0x78 drivers/usb/eth/built-in.o
                0x00000000002e5018                _u_boot_list_2_driver_2_asix_eth
 .u_boot_list_2_driver_2_ax88179_eth
                0x00000000002e5090       0x78 drivers/usb/eth/built-in.o
                0x00000000002e5090                _u_boot_list_2_driver_2_ax88179_eth
 .u_boot_list_2_driver_2_bq25700_charger
                0x00000000002e5108       0x78 drivers/power/charge/built-in.o
                0x00000000002e5108                _u_boot_list_2_driver_2_bq25700_charger
 .u_boot_list_2_driver_2_charge_animation
                0x00000000002e5180       0x78 drivers/power/built-in.o
                0x00000000002e5180                _u_boot_list_2_driver_2_charge_animation
 .u_boot_list_2_driver_2_clk_fixed_rate
                0x00000000002e51f8       0x78 drivers/built-in.o
                0x00000000002e51f8                _u_boot_list_2_driver_2_clk_fixed_rate
 .u_boot_list_2_driver_2_clk_rk3399
                0x00000000002e5270       0x78 drivers/built-in.o
                0x00000000002e5270                _u_boot_list_2_driver_2_clk_rk3399
 .u_boot_list_2_driver_2_dmc_rk3399
                0x00000000002e52e8       0x78 drivers/built-in.o
                0x00000000002e52e8                _u_boot_list_2_driver_2_dmc_rk3399
 .u_boot_list_2_driver_2_dw_mipi_dsi
                0x00000000002e5360       0x78 drivers/built-in.o
                0x00000000002e5360                _u_boot_list_2_driver_2_dw_mipi_dsi
 .u_boot_list_2_driver_2_ehci_generic
                0x00000000002e53d8       0x78 drivers/usb/host/built-in.o
                0x00000000002e53d8                _u_boot_list_2_driver_2_ehci_generic
 .u_boot_list_2_driver_2_eth_designware
                0x00000000002e5450       0x78 drivers/net/built-in.o
                0x00000000002e5450                _u_boot_list_2_driver_2_eth_designware
 .u_boot_list_2_driver_2_eth_gmac_rockchip
                0x00000000002e54c8       0x78 drivers/net/built-in.o
                0x00000000002e54c8                _u_boot_list_2_driver_2_eth_gmac_rockchip
 .u_boot_list_2_driver_2_firmware
                0x00000000002e5540       0x78 drivers/built-in.o
                0x00000000002e5540                _u_boot_list_2_driver_2_firmware
 .u_boot_list_2_driver_2_fixed_regulator
                0x00000000002e55b8       0x78 drivers/power/regulator/built-in.o
                0x00000000002e55b8                _u_boot_list_2_driver_2_fixed_regulator
 .u_boot_list_2_driver_2_generic_syscon
                0x00000000002e5630       0x78 drivers/built-in.o
                0x00000000002e5630                _u_boot_list_2_driver_2_generic_syscon
 .u_boot_list_2_driver_2_gpio_key
                0x00000000002e56a8       0x78 drivers/built-in.o
                0x00000000002e56a8                _u_boot_list_2_driver_2_gpio_key
 .u_boot_list_2_driver_2_gpio_key_bus
                0x00000000002e5720       0x78 drivers/built-in.o
                0x00000000002e5720                _u_boot_list_2_driver_2_gpio_key_bus
 .u_boot_list_2_driver_2_gpio_rockchip
                0x00000000002e5798       0x78 drivers/gpio/built-in.o
                0x00000000002e5798                _u_boot_list_2_driver_2_gpio_rockchip
 .u_boot_list_2_driver_2_i2c_generic_chip_drv
                0x00000000002e5810       0x78 drivers/i2c/built-in.o
                0x00000000002e5810                _u_boot_list_2_driver_2_i2c_generic_chip_drv
 .u_boot_list_2_driver_2_i2c_rockchip
                0x00000000002e5888       0x78 drivers/i2c/built-in.o
                0x00000000002e5888                _u_boot_list_2_driver_2_i2c_rockchip
 .u_boot_list_2_driver_2_io_domain
                0x00000000002e5900       0x78 drivers/power/io-domain/built-in.o
                0x00000000002e5900                _u_boot_list_2_driver_2_io_domain
 .u_boot_list_2_driver_2_mcs7830_eth
                0x00000000002e5978       0x78 drivers/usb/eth/built-in.o
                0x00000000002e5978                _u_boot_list_2_driver_2_mcs7830_eth
 .u_boot_list_2_driver_2_mmc
                0x00000000002e59f0       0x78 drivers/built-in.o
                0x00000000002e59f0                _u_boot_list_2_driver_2_mmc
 .u_boot_list_2_driver_2_mmc_blk
                0x00000000002e5a68       0x78 drivers/built-in.o
                0x00000000002e5a68                _u_boot_list_2_driver_2_mmc_blk
 .u_boot_list_2_driver_2_ns16550_serial
                0x00000000002e5ae0       0x78 drivers/serial/built-in.o
                0x00000000002e5ae0                _u_boot_list_2_driver_2_ns16550_serial
 .u_boot_list_2_driver_2_ohci_generic
                0x00000000002e5b58       0x78 drivers/usb/host/built-in.o
                0x00000000002e5b58                _u_boot_list_2_driver_2_ohci_generic
 .u_boot_list_2_driver_2_pinconfig_generic
                0x00000000002e5bd0       0x78 drivers/built-in.o
                0x00000000002e5bd0                _u_boot_list_2_driver_2_pinconfig_generic
 .u_boot_list_2_driver_2_pinctrl_rockchip
                0x00000000002e5c48       0x78 drivers/built-in.o
                0x00000000002e5c48                _u_boot_list_2_driver_2_pinctrl_rockchip
 .u_boot_list_2_driver_2_pmic_rk8xx
                0x00000000002e5cc0       0x78 drivers/power/pmic/built-in.o
                0x00000000002e5cc0                _u_boot_list_2_driver_2_pmic_rk8xx
 .u_boot_list_2_driver_2_psci
                0x00000000002e5d38       0x78 drivers/built-in.o
                0x00000000002e5d38                _u_boot_list_2_driver_2_psci
 .u_boot_list_2_driver_2_psci_sysreset
                0x00000000002e5db0       0x78 drivers/built-in.o
                0x00000000002e5db0                _u_boot_list_2_driver_2_psci_sysreset
 .u_boot_list_2_driver_2_pwm_backlight
                0x00000000002e5e28       0x78 drivers/built-in.o
                0x00000000002e5e28                _u_boot_list_2_driver_2_pwm_backlight
 .u_boot_list_2_driver_2_pwm_regulator
                0x00000000002e5ea0       0x78 drivers/power/regulator/built-in.o
                0x00000000002e5ea0                _u_boot_list_2_driver_2_pwm_regulator
 .u_boot_list_2_driver_2_r8152_eth
                0x00000000002e5f18       0x78 drivers/usb/eth/built-in.o
                0x00000000002e5f18                _u_boot_list_2_driver_2_r8152_eth
 .u_boot_list_2_driver_2_rk817_fg
                0x00000000002e5f90       0x78 drivers/power/fuel_gauge/built-in.o
                0x00000000002e5f90                _u_boot_list_2_driver_2_rk817_fg
 .u_boot_list_2_driver_2_rk8xx_buck
                0x00000000002e6008       0x78 drivers/power/regulator/built-in.o
                0x00000000002e6008                _u_boot_list_2_driver_2_rk8xx_buck
 .u_boot_list_2_driver_2_rk8xx_ldo
                0x00000000002e6080       0x78 drivers/power/regulator/built-in.o
                0x00000000002e6080                _u_boot_list_2_driver_2_rk8xx_ldo
 .u_boot_list_2_driver_2_rk8xx_switch
                0x00000000002e60f8       0x78 drivers/power/regulator/built-in.o
                0x00000000002e60f8                _u_boot_list_2_driver_2_rk8xx_switch
 .u_boot_list_2_driver_2_rk_key
                0x00000000002e6170       0x78 drivers/built-in.o
                0x00000000002e6170                _u_boot_list_2_driver_2_rk_key
 .u_boot_list_2_driver_2_rk_key_bus
                0x00000000002e61e8       0x78 drivers/built-in.o
                0x00000000002e61e8                _u_boot_list_2_driver_2_rk_key_bus
 .u_boot_list_2_driver_2_rk_pwm
                0x00000000002e6260       0x78 drivers/built-in.o
                0x00000000002e6260                _u_boot_list_2_driver_2_rk_pwm
 .u_boot_list_2_driver_2_rockchip_crypto_v1
                0x00000000002e62d8       0x78 drivers/built-in.o
                0x00000000002e62d8                _u_boot_list_2_driver_2_rockchip_crypto_v1
 .u_boot_list_2_driver_2_rockchip_display
                0x00000000002e6350       0x78 drivers/built-in.o
                0x00000000002e6350                _u_boot_list_2_driver_2_rockchip_display
 .u_boot_list_2_driver_2_rockchip_dw_hdmi
                0x00000000002e63c8       0x78 drivers/built-in.o
                0x00000000002e63c8                _u_boot_list_2_driver_2_rockchip_dw_hdmi
 .u_boot_list_2_driver_2_rockchip_dwmmc_drv
                0x00000000002e6440       0x78 drivers/built-in.o
                0x00000000002e6440                _u_boot_list_2_driver_2_rockchip_dwmmc_drv
 .u_boot_list_2_driver_2_rockchip_efuse
                0x00000000002e64b8       0x78 drivers/built-in.o
                0x00000000002e64b8                _u_boot_list_2_driver_2_rockchip_efuse
 .u_boot_list_2_driver_2_rockchip_panel
                0x00000000002e6530       0x78 drivers/built-in.o
                0x00000000002e6530                _u_boot_list_2_driver_2_rockchip_panel
 .u_boot_list_2_driver_2_rockchip_reset
                0x00000000002e65a8       0x78 drivers/built-in.o
                0x00000000002e65a8                _u_boot_list_2_driver_2_rockchip_reset
 .u_boot_list_2_driver_2_rockchip_rk3399_pmuclk
                0x00000000002e6620       0x78 drivers/built-in.o
                0x00000000002e6620                _u_boot_list_2_driver_2_rockchip_rk3399_pmuclk
 .u_boot_list_2_driver_2_rockchip_saradc
                0x00000000002e6698       0x78 drivers/built-in.o
                0x00000000002e6698                _u_boot_list_2_driver_2_rockchip_saradc
 .u_boot_list_2_driver_2_rockchip_usb2phy
                0x00000000002e6710       0x78 drivers/built-in.o
                0x00000000002e6710                _u_boot_list_2_driver_2_rockchip_usb2phy
 .u_boot_list_2_driver_2_rockchip_usb2phy_port
                0x00000000002e6788       0x78 drivers/built-in.o
                0x00000000002e6788                _u_boot_list_2_driver_2_rockchip_usb2phy_port
 .u_boot_list_2_driver_2_rockchip_vop
                0x00000000002e6800       0x78 drivers/built-in.o
                0x00000000002e6800                _u_boot_list_2_driver_2_rockchip_vop
 .u_boot_list_2_driver_2_root_driver
                0x00000000002e6878       0x78 drivers/built-in.o
                0x00000000002e6878                _u_boot_list_2_driver_2_root_driver
 .u_boot_list_2_driver_2_simple_bus_drv
                0x00000000002e68f0       0x78 drivers/built-in.o
                0x00000000002e68f0                _u_boot_list_2_driver_2_simple_bus_drv
 .u_boot_list_2_driver_2_simple_panel
                0x00000000002e6968       0x78 drivers/built-in.o
                0x00000000002e6968                _u_boot_list_2_driver_2_simple_panel
 .u_boot_list_2_driver_2_smsc95xx_eth
                0x00000000002e69e0       0x78 drivers/usb/eth/built-in.o
                0x00000000002e69e0                _u_boot_list_2_driver_2_smsc95xx_eth
 .u_boot_list_2_driver_2_spi_generic_drv
                0x00000000002e6a58       0x78 drivers/spi/built-in.o
                0x00000000002e6a58                _u_boot_list_2_driver_2_spi_generic_drv
 .u_boot_list_2_driver_2_syscon_rk3399
                0x00000000002e6ad0       0x78 arch/arm/mach-rockchip/built-in.o
                0x00000000002e6ad0                _u_boot_list_2_driver_2_syscon_rk3399
 .u_boot_list_2_driver_2_sysreset_rockchip
                0x00000000002e6b48       0x78 drivers/built-in.o
                0x00000000002e6b48                _u_boot_list_2_driver_2_sysreset_rockchip
 .u_boot_list_2_driver_2_sysreset_syscon_reboot
                0x00000000002e6bc0       0x78 drivers/built-in.o
                0x00000000002e6bc0                _u_boot_list_2_driver_2_sysreset_syscon_reboot
 .u_boot_list_2_driver_2_usb_dev_generic_drv
                0x00000000002e6c38       0x78 drivers/usb/host/built-in.o
                0x00000000002e6c38                _u_boot_list_2_driver_2_usb_dev_generic_drv
 .u_boot_list_2_driver_2_usb_generic_hub
                0x00000000002e6cb0       0x78 common/built-in.o
                0x00000000002e6cb0                _u_boot_list_2_driver_2_usb_generic_hub
 .u_boot_list_2_driver_2_usb_mass_storage
                0x00000000002e6d28       0x78 common/built-in.o
                0x00000000002e6d28                _u_boot_list_2_driver_2_usb_mass_storage
 .u_boot_list_2_driver_2_usb_storage_blk
                0x00000000002e6da0       0x78 common/built-in.o
                0x00000000002e6da0                _u_boot_list_2_driver_2_usb_storage_blk
 .u_boot_list_2_driver_2_vidconsole_normal
                0x00000000002e6e18       0x78 drivers/built-in.o
                0x00000000002e6e18                _u_boot_list_2_driver_2_vidconsole_normal
 .u_boot_list_2_driver_2_xhci_dwc3
                0x00000000002e6e90       0x78 drivers/usb/host/built-in.o
                0x00000000002e6e90                _u_boot_list_2_driver_2_xhci_dwc3
 .u_boot_list_2_driver_3
                0x00000000002e6f08        0x0 drivers/built-in.o
 .u_boot_list_2_driver_info_1
                0x00000000002e6f08        0x0 drivers/built-in.o
 .u_boot_list_2_driver_info_3
                0x00000000002e6f08        0x0 drivers/built-in.o
 .u_boot_list_2_env_clbk_1
                0x00000000002e6f08        0x0 env/built-in.o
 .u_boot_list_2_env_clbk_2_baudrate
                0x00000000002e6f08       0x10 drivers/serial/built-in.o
                0x00000000002e6f08                _u_boot_list_2_env_clbk_2_baudrate
 .u_boot_list_2_env_clbk_2_bootfile
                0x00000000002e6f18       0x10 net/built-in.o
                0x00000000002e6f18                _u_boot_list_2_env_clbk_2_bootfile
 .u_boot_list_2_env_clbk_2_callbacks
                0x00000000002e6f28       0x10 env/built-in.o
                0x00000000002e6f28                _u_boot_list_2_env_clbk_2_callbacks
 .u_boot_list_2_env_clbk_2_console
                0x00000000002e6f38       0x10 common/built-in.o
                0x00000000002e6f38                _u_boot_list_2_env_clbk_2_console
 .u_boot_list_2_env_clbk_2_ethaddr
                0x00000000002e6f48       0x10 net/built-in.o
                0x00000000002e6f48                _u_boot_list_2_env_clbk_2_ethaddr
 .u_boot_list_2_env_clbk_2_flags
                0x00000000002e6f58       0x10 env/built-in.o
                0x00000000002e6f58                _u_boot_list_2_env_clbk_2_flags
 .u_boot_list_2_env_clbk_2_gatewayip
                0x00000000002e6f68       0x10 net/built-in.o
                0x00000000002e6f68                _u_boot_list_2_env_clbk_2_gatewayip
 .u_boot_list_2_env_clbk_2_ipaddr
                0x00000000002e6f78       0x10 net/built-in.o
                0x00000000002e6f78                _u_boot_list_2_env_clbk_2_ipaddr
 .u_boot_list_2_env_clbk_2_loadaddr
                0x00000000002e6f88       0x10 common/built-in.o
                0x00000000002e6f88                _u_boot_list_2_env_clbk_2_loadaddr
 .u_boot_list_2_env_clbk_2_netmask
                0x00000000002e6f98       0x10 net/built-in.o
                0x00000000002e6f98                _u_boot_list_2_env_clbk_2_netmask
 .u_boot_list_2_env_clbk_2_nvlan
                0x00000000002e6fa8       0x10 net/built-in.o
                0x00000000002e6fa8                _u_boot_list_2_env_clbk_2_nvlan
 .u_boot_list_2_env_clbk_2_serialno
                0x00000000002e6fb8       0x10 drivers/usb/gadget/built-in.o
                0x00000000002e6fb8                _u_boot_list_2_env_clbk_2_serialno
 .u_boot_list_2_env_clbk_2_serverip
                0x00000000002e6fc8       0x10 net/built-in.o
                0x00000000002e6fc8                _u_boot_list_2_env_clbk_2_serverip
 .u_boot_list_2_env_clbk_2_vlan
                0x00000000002e6fd8       0x10 net/built-in.o
                0x00000000002e6fd8                _u_boot_list_2_env_clbk_2_vlan
 .u_boot_list_2_env_clbk_3
                0x00000000002e6fe8        0x0 env/built-in.o
 .u_boot_list_2_env_driver_1
                0x00000000002e6fe8        0x0 env/built-in.o
 .u_boot_list_2_env_driver_2_nowhere
                0x00000000002e6fe8       0x30 env/built-in.o
                0x00000000002e6fe8                _u_boot_list_2_env_driver_2_nowhere
 .u_boot_list_2_env_driver_3
                0x00000000002e7018        0x0 env/built-in.o
 .u_boot_list_2_fit_loadable_1
                0x00000000002e7018        0x0 common/built-in.o
 .u_boot_list_2_fit_loadable_3
                0x00000000002e7018        0x0 common/built-in.o
 .u_boot_list_2_g_dnl_bind_callbacks_1
                0x00000000002e7018        0x0 drivers/usb/gadget/built-in.o
 .u_boot_list_2_g_dnl_bind_callbacks_2___usb_function_name_rkusb_ums_dnl
                0x00000000002e7018       0x10 drivers/usb/gadget/built-in.o
                0x00000000002e7018                _u_boot_list_2_g_dnl_bind_callbacks_2___usb_function_name_rkusb_ums_dnl
 .u_boot_list_2_g_dnl_bind_callbacks_2___usb_function_name_usb_dnl_fastboot
                0x00000000002e7028       0x10 drivers/usb/gadget/built-in.o
                0x00000000002e7028                _u_boot_list_2_g_dnl_bind_callbacks_2___usb_function_name_usb_dnl_fastboot
 .u_boot_list_2_g_dnl_bind_callbacks_2___usb_function_name_usb_dnl_ums
                0x00000000002e7038       0x10 drivers/usb/gadget/built-in.o
                0x00000000002e7038                _u_boot_list_2_g_dnl_bind_callbacks_2___usb_function_name_usb_dnl_ums
 .u_boot_list_2_part_driver_1
                0x00000000002e7048        0x0 disk/built-in.o
 .u_boot_list_2_part_driver_2_a_efi
                0x00000000002e7048       0x28 disk/built-in.o
                0x00000000002e7048                _u_boot_list_2_part_driver_2_a_efi
 .u_boot_list_2_part_driver_2_b_rkparm
                0x00000000002e7070       0x28 disk/built-in.o
                0x00000000002e7070                _u_boot_list_2_part_driver_2_b_rkparm
 .u_boot_list_2_part_driver_2_dos
                0x00000000002e7098       0x28 disk/built-in.o
                0x00000000002e7098                _u_boot_list_2_part_driver_2_dos
 .u_boot_list_2_part_driver_3
                0x00000000002e70c0        0x0 disk/built-in.o
 .u_boot_list_2_pci_driver_entry_2_eth_designware
                0x00000000002e70c0       0x10 drivers/net/built-in.o
                0x00000000002e70c0                _u_boot_list_2_pci_driver_entry_2_eth_designware
 .u_boot_list_2_uclass_1
                0x00000000002e70d0        0x0 drivers/built-in.o
 .u_boot_list_2_uclass_2_adc
                0x00000000002e70d0       0x80 drivers/built-in.o
                0x00000000002e70d0                _u_boot_list_2_uclass_2_adc
 .u_boot_list_2_uclass_2_backlight
                0x00000000002e7150       0x80 drivers/built-in.o
                0x00000000002e7150                _u_boot_list_2_uclass_2_backlight
 .u_boot_list_2_uclass_2_blk
                0x00000000002e71d0       0x80 drivers/built-in.o
                0x00000000002e71d0                _u_boot_list_2_uclass_2_blk
 .u_boot_list_2_uclass_2_charge_display
                0x00000000002e7250       0x80 drivers/power/built-in.o
                0x00000000002e7250                _u_boot_list_2_uclass_2_charge_display
 .u_boot_list_2_uclass_2_clk
                0x00000000002e72d0       0x80 drivers/built-in.o
                0x00000000002e72d0                _u_boot_list_2_uclass_2_clk
 .u_boot_list_2_uclass_2_crypto
                0x00000000002e7350       0x80 drivers/built-in.o
                0x00000000002e7350                _u_boot_list_2_uclass_2_crypto
 .u_boot_list_2_uclass_2_display
                0x00000000002e73d0       0x80 drivers/built-in.o
                0x00000000002e73d0                _u_boot_list_2_uclass_2_display
 .u_boot_list_2_uclass_2_ethernet
                0x00000000002e7450       0x80 net/built-in.o
                0x00000000002e7450                _u_boot_list_2_uclass_2_ethernet
 .u_boot_list_2_uclass_2_firmware
                0x00000000002e74d0       0x80 drivers/built-in.o
                0x00000000002e74d0                _u_boot_list_2_uclass_2_firmware
 .u_boot_list_2_uclass_2_fuel_guage
                0x00000000002e7550       0x80 drivers/power/fuel_gauge/built-in.o
                0x00000000002e7550                _u_boot_list_2_uclass_2_fuel_guage
 .u_boot_list_2_uclass_2_gpio
                0x00000000002e75d0       0x80 drivers/gpio/built-in.o
                0x00000000002e75d0                _u_boot_list_2_uclass_2_gpio
 .u_boot_list_2_uclass_2_i2c
                0x00000000002e7650       0x80 drivers/i2c/built-in.o
                0x00000000002e7650                _u_boot_list_2_uclass_2_i2c
 .u_boot_list_2_uclass_2_i2c_generic
                0x00000000002e76d0       0x80 drivers/i2c/built-in.o
                0x00000000002e76d0                _u_boot_list_2_uclass_2_i2c_generic
 .u_boot_list_2_uclass_2_io_domain
                0x00000000002e7750       0x80 drivers/power/io-domain/built-in.o
                0x00000000002e7750                _u_boot_list_2_uclass_2_io_domain
 .u_boot_list_2_uclass_2_key
                0x00000000002e77d0       0x80 drivers/built-in.o
                0x00000000002e77d0                _u_boot_list_2_uclass_2_key
 .u_boot_list_2_uclass_2_misc
                0x00000000002e7850       0x80 drivers/built-in.o
                0x00000000002e7850                _u_boot_list_2_uclass_2_misc
 .u_boot_list_2_uclass_2_mmc
                0x00000000002e78d0       0x80 drivers/built-in.o
                0x00000000002e78d0                _u_boot_list_2_uclass_2_mmc
 .u_boot_list_2_uclass_2_nop
                0x00000000002e7950       0x80 drivers/built-in.o
                0x00000000002e7950                _u_boot_list_2_uclass_2_nop
 .u_boot_list_2_uclass_2_panel
                0x00000000002e79d0       0x80 drivers/built-in.o
                0x00000000002e79d0                _u_boot_list_2_uclass_2_panel
 .u_boot_list_2_uclass_2_phy
                0x00000000002e7a50       0x80 drivers/built-in.o
                0x00000000002e7a50                _u_boot_list_2_uclass_2_phy
 .u_boot_list_2_uclass_2_pinconfig
                0x00000000002e7ad0       0x80 drivers/built-in.o
                0x00000000002e7ad0                _u_boot_list_2_uclass_2_pinconfig
 .u_boot_list_2_uclass_2_pinctrl
                0x00000000002e7b50       0x80 drivers/built-in.o
                0x00000000002e7b50                _u_boot_list_2_uclass_2_pinctrl
 .u_boot_list_2_uclass_2_pmic
                0x00000000002e7bd0       0x80 drivers/power/pmic/built-in.o
                0x00000000002e7bd0                _u_boot_list_2_uclass_2_pmic
 .u_boot_list_2_uclass_2_pwm
                0x00000000002e7c50       0x80 drivers/built-in.o
                0x00000000002e7c50                _u_boot_list_2_uclass_2_pwm
 .u_boot_list_2_uclass_2_ram
                0x00000000002e7cd0       0x80 drivers/built-in.o
                0x00000000002e7cd0                _u_boot_list_2_uclass_2_ram
 .u_boot_list_2_uclass_2_regulator
                0x00000000002e7d50       0x80 drivers/power/regulator/built-in.o
                0x00000000002e7d50                _u_boot_list_2_uclass_2_regulator
 .u_boot_list_2_uclass_2_reset
                0x00000000002e7dd0       0x80 drivers/built-in.o
                0x00000000002e7dd0                _u_boot_list_2_uclass_2_reset
 .u_boot_list_2_uclass_2_rockchip_crtc
                0x00000000002e7e50       0x80 drivers/built-in.o
                0x00000000002e7e50                _u_boot_list_2_uclass_2_rockchip_crtc
 .u_boot_list_2_uclass_2_root
                0x00000000002e7ed0       0x80 drivers/built-in.o
                0x00000000002e7ed0                _u_boot_list_2_uclass_2_root
 .u_boot_list_2_uclass_2_serial
                0x00000000002e7f50       0x80 drivers/serial/built-in.o
                0x00000000002e7f50                _u_boot_list_2_uclass_2_serial
 .u_boot_list_2_uclass_2_simple_bus
                0x00000000002e7fd0       0x80 drivers/built-in.o
                0x00000000002e7fd0                _u_boot_list_2_uclass_2_simple_bus
 .u_boot_list_2_uclass_2_spi
                0x00000000002e8050       0x80 drivers/spi/built-in.o
                0x00000000002e8050                _u_boot_list_2_uclass_2_spi
 .u_boot_list_2_uclass_2_spi_generic
                0x00000000002e80d0       0x80 drivers/spi/built-in.o
                0x00000000002e80d0                _u_boot_list_2_uclass_2_spi_generic
 .u_boot_list_2_uclass_2_spi_nor
                0x00000000002e8150       0x80 drivers/mtd/spi/built-in.o
                0x00000000002e8150                _u_boot_list_2_uclass_2_spi_nor
 .u_boot_list_2_uclass_2_syscon
                0x00000000002e81d0       0x80 drivers/built-in.o
                0x00000000002e81d0                _u_boot_list_2_uclass_2_syscon
 .u_boot_list_2_uclass_2_sysreset
                0x00000000002e8250       0x80 drivers/built-in.o
                0x00000000002e8250                _u_boot_list_2_uclass_2_sysreset
 .u_boot_list_2_uclass_2_usb
                0x00000000002e82d0       0x80 drivers/usb/host/built-in.o
                0x00000000002e82d0                _u_boot_list_2_uclass_2_usb
 .u_boot_list_2_uclass_2_usb_dev_generic
                0x00000000002e8350       0x80 drivers/usb/host/built-in.o
                0x00000000002e8350                _u_boot_list_2_uclass_2_usb_dev_generic
 .u_boot_list_2_uclass_2_usb_gadget_generic
                0x00000000002e83d0       0x80 drivers/usb/gadget/udc/built-in.o
                0x00000000002e83d0                _u_boot_list_2_uclass_2_usb_gadget_generic
 .u_boot_list_2_uclass_2_usb_hub
                0x00000000002e8450       0x80 common/built-in.o
                0x00000000002e8450                _u_boot_list_2_uclass_2_usb_hub
 .u_boot_list_2_uclass_2_usb_mass_storage
                0x00000000002e84d0       0x80 common/built-in.o
                0x00000000002e84d0                _u_boot_list_2_uclass_2_usb_mass_storage
 .u_boot_list_2_uclass_2_vidconsole
                0x00000000002e8550       0x80 drivers/built-in.o
                0x00000000002e8550                _u_boot_list_2_uclass_2_vidconsole
 .u_boot_list_2_uclass_2_video
                0x00000000002e85d0       0x80 drivers/built-in.o
                0x00000000002e85d0                _u_boot_list_2_uclass_2_video
 .u_boot_list_2_uclass_2_video_bridge
                0x00000000002e8650       0x80 drivers/built-in.o
                0x00000000002e8650                _u_boot_list_2_uclass_2_video_bridge
 .u_boot_list_2_uclass_3
                0x00000000002e86d0        0x0 drivers/built-in.o
 .u_boot_list_2_usb_driver_entry_1
                0x00000000002e86d0        0x0 drivers/usb/host/built-in.o
 .u_boot_list_2_usb_driver_entry_2_asix_eth
                0x00000000002e86d0       0x10 drivers/usb/eth/built-in.o
                0x00000000002e86d0                _u_boot_list_2_usb_driver_entry_2_asix_eth
 .u_boot_list_2_usb_driver_entry_2_ax88179_eth
                0x00000000002e86e0       0x10 drivers/usb/eth/built-in.o
                0x00000000002e86e0                _u_boot_list_2_usb_driver_entry_2_ax88179_eth
 .u_boot_list_2_usb_driver_entry_2_mcs7830_eth
                0x00000000002e86f0       0x10 drivers/usb/eth/built-in.o
                0x00000000002e86f0                _u_boot_list_2_usb_driver_entry_2_mcs7830_eth
 .u_boot_list_2_usb_driver_entry_2_r8152_eth
                0x00000000002e8700       0x10 drivers/usb/eth/built-in.o
                0x00000000002e8700                _u_boot_list_2_usb_driver_entry_2_r8152_eth
 .u_boot_list_2_usb_driver_entry_2_smsc95xx_eth
                0x00000000002e8710       0x10 drivers/usb/eth/built-in.o
                0x00000000002e8710                _u_boot_list_2_usb_driver_entry_2_smsc95xx_eth
 .u_boot_list_2_usb_driver_entry_2_usb_generic_hub
                0x00000000002e8720       0x10 common/built-in.o
                0x00000000002e8720                _u_boot_list_2_usb_driver_entry_2_usb_generic_hub
 .u_boot_list_2_usb_driver_entry_2_usb_mass_storage
                0x00000000002e8730       0x10 common/built-in.o
                0x00000000002e8730                _u_boot_list_2_usb_driver_entry_2_usb_mass_storage
 .u_boot_list_2_usb_driver_entry_3
                0x00000000002e8740        0x0 drivers/usb/host/built-in.o
                0x00000000002e8740                . = ALIGN (0x8)

.efi_runtime    0x00000000002e8740        0x0
                0x00000000002e8740                __efi_runtime_start = .
 *(efi_runtime_text)
 *(efi_runtime_data)
                0x00000000002e8740                __efi_runtime_stop = .

.efi_runtime_rel
                0x00000000002e8740        0x0
                0x00000000002e8740                __efi_runtime_rel_start = .
 *(.relaefi_runtime_text)
 *(.relaefi_runtime_data)
                0x00000000002e8740                __efi_runtime_rel_stop = .
                0x00000000002e8740                . = ALIGN (0x8)

.image_copy_end
                0x00000000002e8740        0x0
 *(.__image_copy_end)
 .__image_copy_end
                0x00000000002e8740        0x0 arch/arm/lib/built-in.o
                0x00000000002e8740                . = ALIGN (0x8)

.rel_dyn_start  0x00000000002e8740        0x0
 *(.__rel_dyn_start)
 .__rel_dyn_start
                0x00000000002e8740        0x0 arch/arm/lib/built-in.o

.rela.dyn       0x00000000002e8740    0x12d50
 *(.rela*)
 .rela.got      0x00000000002e8740        0x0 arch/arm/cpu/armv8/start.o
 .rela.plt      0x00000000002e8740        0x0 arch/arm/cpu/armv8/start.o
 .rela.bss      0x00000000002e8740        0x0 arch/arm/cpu/armv8/start.o
 .rela.data.rel.ro
                0x00000000002e8740        0x0 arch/arm/cpu/armv8/start.o
 .rela.ifunc    0x00000000002e8740        0x0 arch/arm/cpu/armv8/start.o
 .rela.text     0x00000000002e8740       0x30 arch/arm/cpu/armv8/start.o
 .rela.rodata   0x00000000002e8770      0x390 arch/arm/cpu/armv8/start.o
 .rela.rodata.plat_mem_attr
                0x00000000002e8b00      0x210 arch/arm/cpu/armv8/start.o
 .rela.rodata.rk3399_syscon_ids
                0x00000000002e8d10       0x78 arch/arm/cpu/armv8/start.o
 .rela.u_boot_list_2_cmd_2_iomem
                0x00000000002e8d88       0x60 arch/arm/cpu/armv8/start.o
 .rela.data.mem_attr
                0x00000000002e8de8       0x18 arch/arm/cpu/armv8/start.o
 .rela.data.entrys_head
                0x00000000002e8e00       0x30 arch/arm/cpu/armv8/start.o
 .rela.data.mem_map
                0x00000000002e8e30       0x18 arch/arm/cpu/armv8/start.o
 .rela.u_boot_list_2_driver_2_syscon_rk3399
                0x00000000002e8e48       0x48 arch/arm/cpu/armv8/start.o
 .rela.u_boot_list_2_cmd_2_dump_atags
                0x00000000002e8e90       0x60 arch/arm/cpu/armv8/start.o
 .rela.rodata.desc_and_len_tbl
                0x00000000002e8ef0       0x90 arch/arm/cpu/armv8/start.o
 .rela.rodata.reg_0_5_desc_tbl
                0x00000000002e8f80       0x90 arch/arm/cpu/armv8/start.o
 .rela.rodata.reg_0_desc_tbl
                0x00000000002e9010       0xf0 arch/arm/cpu/armv8/start.o
 .rela.rodata.reg_1_desc_tbl
                0x00000000002e9100      0x180 arch/arm/cpu/armv8/start.o
 .rela.rodata.reg_2_desc_tbl
                0x00000000002e9280       0x18 arch/arm/cpu/armv8/start.o
 .rela.rodata.reg_3_desc_tbl
                0x00000000002e9298       0x48 arch/arm/cpu/armv8/start.o
 .rela.rodata.reg_4_desc_tbl
                0x00000000002e92e0      0x120 arch/arm/cpu/armv8/start.o
 .rela.rodata.reg_5_desc_tbl
                0x00000000002e9400      0x120 arch/arm/cpu/armv8/start.o
 .rela.rodata.keywords
                0x00000000002e9520      0x1b0 arch/arm/cpu/armv8/start.o
 .rela.rodata.op_adv
                0x00000000002e96d0      0x180 arch/arm/cpu/armv8/start.o
 .rela.rodata.CSWTCH.34
                0x00000000002e9850       0x78 arch/arm/cpu/armv8/start.o
 .rela.u_boot_list_2_cmd_2_go
                0x00000000002e98c8       0x60 arch/arm/cpu/armv8/start.o
 .rela.u_boot_list_2_cmd_2_rbrom
                0x00000000002e9928       0x60 arch/arm/cpu/armv8/start.o
 .rela.u_boot_list_2_cmd_2_reboot
                0x00000000002e9988       0x60 arch/arm/cpu/armv8/start.o
 .rela.u_boot_list_2_cmd_2_reset
                0x00000000002e99e8       0x60 arch/arm/cpu/armv8/start.o
 .rela.data.cmd_bootm_sub
                0x00000000002e9a48      0x288 arch/arm/cpu/armv8/start.o
 .rela.u_boot_list_2_cmd_2_boot
                0x00000000002e9cd0       0x60 arch/arm/cpu/armv8/start.o
 .rela.u_boot_list_2_cmd_2_bootd
                0x00000000002e9d30       0x60 arch/arm/cpu/armv8/start.o
 .rela.u_boot_list_2_cmd_2_bootm
                0x00000000002e9d90       0x60 arch/arm/cpu/armv8/start.o
 .rela.u_boot_list_2_cmd_2_help
                0x00000000002e9df0       0x60 arch/arm/cpu/armv8/start.o
 .rela.u_boot_list_2_cmd_2_question_mark
                0x00000000002e9e50       0x60 arch/arm/cpu/armv8/start.o
 .rela.u_boot_list_2_cmd_2_version
                0x00000000002e9eb0       0x60 arch/arm/cpu/armv8/start.o
 .rela.u_boot_list_2_cmd_2_source
                0x00000000002e9f10       0x60 arch/arm/cpu/armv8/start.o
 .rela.u_boot_list_2_cmd_2_bdinfo
                0x00000000002e9f70       0x60 arch/arm/cpu/armv8/start.o
 .rela.data.cmd_avb
                0x00000000002e9fd0      0x3c0 arch/arm/cpu/armv8/start.o
 .rela.u_boot_list_2_cmd_2_boot_android
                0x00000000002ea390       0x60 arch/arm/cpu/armv8/start.o
 .rela.u_boot_list_2_cmd_2_bootavb
                0x00000000002ea3f0       0x60 arch/arm/cpu/armv8/start.o
 .rela.u_boot_list_2_cmd_2_android_print_hdr
                0x00000000002ea450       0x60 arch/arm/cpu/armv8/start.o
 .rela.u_boot_list_2_cmd_2_bootrkp
                0x00000000002ea4b0       0x60 arch/arm/cpu/armv8/start.o
 .rela.u_boot_list_2_cmd_2_bootz
                0x00000000002ea510       0x60 arch/arm/cpu/armv8/start.o
 .rela.u_boot_list_2_cmd_2_booti
                0x00000000002ea570       0x60 arch/arm/cpu/armv8/start.o
 .rela.u_boot_list_2_cmd_2_coninfo
                0x00000000002ea5d0       0x60 arch/arm/cpu/armv8/start.o
 .rela.u_boot_list_2_cmd_2_charge
                0x00000000002ea630       0x60 arch/arm/cpu/armv8/start.o
 .rela.u_boot_list_2_cmd_2_crypto_sum
                0x00000000002ea690       0x60 arch/arm/cpu/armv8/start.o
 .rela.data.cmd_dtimg_sub
                0x00000000002ea6f0      0x120 arch/arm/cpu/armv8/start.o
 .rela.u_boot_list_2_cmd_2_dtimg
                0x00000000002ea810       0x60 arch/arm/cpu/armv8/start.o
 .rela.u_boot_list_2_cmd_2_echo
                0x00000000002ea870       0x60 arch/arm/cpu/armv8/start.o
 .rela.u_boot_list_2_cmd_2_exit
                0x00000000002ea8d0       0x60 arch/arm/cpu/armv8/start.o
 .rela.u_boot_list_2_cmd_2_ext4load
                0x00000000002ea930       0x60 arch/arm/cpu/armv8/start.o
 .rela.u_boot_list_2_cmd_2_ext4ls
                0x00000000002ea990       0x60 arch/arm/cpu/armv8/start.o
 .rela.u_boot_list_2_cmd_2_ext4size
                0x00000000002ea9f0       0x60 arch/arm/cpu/armv8/start.o
 .rela.u_boot_list_2_cmd_2_ext2load
                0x00000000002eaa50       0x60 arch/arm/cpu/armv8/start.o
 .rela.u_boot_list_2_cmd_2_ext2ls
                0x00000000002eaab0       0x60 arch/arm/cpu/armv8/start.o
 .rela.u_boot_list_2_cmd_2_fatinfo
                0x00000000002eab10       0x60 arch/arm/cpu/armv8/start.o
 .rela.u_boot_list_2_cmd_2_fatload
                0x00000000002eab70       0x60 arch/arm/cpu/armv8/start.o
 .rela.u_boot_list_2_cmd_2_fatls
                0x00000000002eabd0       0x60 arch/arm/cpu/armv8/start.o
 .rela.u_boot_list_2_cmd_2_fatsize
                0x00000000002eac30       0x60 arch/arm/cpu/armv8/start.o
 .rela.u_boot_list_2_cmd_2_fatwrite
                0x00000000002eac90       0x60 arch/arm/cpu/armv8/start.o
 .rela.u_boot_list_2_cmd_2_fdt
                0x00000000002eacf0       0x60 arch/arm/cpu/armv8/start.o
 .rela.u_boot_list_2_cmd_2_fstype
                0x00000000002ead50       0x60 arch/arm/cpu/armv8/start.o
 .rela.u_boot_list_2_cmd_2_load
                0x00000000002eadb0       0x60 arch/arm/cpu/armv8/start.o
 .rela.u_boot_list_2_cmd_2_ls
                0x00000000002eae10       0x60 arch/arm/cpu/armv8/start.o
 .rela.u_boot_list_2_cmd_2_save
                0x00000000002eae70       0x60 arch/arm/cpu/armv8/start.o
 .rela.u_boot_list_2_cmd_2_size
                0x00000000002eaed0       0x60 arch/arm/cpu/armv8/start.o
 .rela.u_boot_list_2_cmd_2_download
                0x00000000002eaf30       0x60 arch/arm/cpu/armv8/start.o
 .rela.u_boot_list_2_cmd_2_base
                0x00000000002eaf90       0x60 arch/arm/cpu/armv8/start.o
 .rela.u_boot_list_2_cmd_2_cmp
                0x00000000002eaff0       0x60 arch/arm/cpu/armv8/start.o
 .rela.u_boot_list_2_cmd_2_cp
                0x00000000002eb050       0x60 arch/arm/cpu/armv8/start.o
 .rela.u_boot_list_2_cmd_2_crc32
                0x00000000002eb0b0       0x60 arch/arm/cpu/armv8/start.o
 .rela.u_boot_list_2_cmd_2_loop
                0x00000000002eb110       0x60 arch/arm/cpu/armv8/start.o
 .rela.u_boot_list_2_cmd_2_md
                0x00000000002eb170       0x60 arch/arm/cpu/armv8/start.o
 .rela.u_boot_list_2_cmd_2_mm
                0x00000000002eb1d0       0x60 arch/arm/cpu/armv8/start.o
 .rela.u_boot_list_2_cmd_2_mw
                0x00000000002eb230       0x60 arch/arm/cpu/armv8/start.o
 .rela.u_boot_list_2_cmd_2_nm
                0x00000000002eb290       0x60 arch/arm/cpu/armv8/start.o
 .rela.u_boot_list_2_cmd_2_mii
                0x00000000002eb2f0       0x60 arch/arm/cpu/armv8/start.o
 .rela.u_boot_list_2_cmd_2_mdio
                0x00000000002eb350       0x60 arch/arm/cpu/armv8/start.o
 .rela.data.cmd_mmc
                0x00000000002eb3b0      0x4e0 arch/arm/cpu/armv8/start.o
 .rela.data.cmd_rpmb
                0x00000000002eb890      0x180 arch/arm/cpu/armv8/start.o
 .rela.u_boot_list_2_cmd_2_mmc
                0x00000000002eba10       0x60 arch/arm/cpu/armv8/start.o
 .rela.u_boot_list_2_cmd_2_mmcinfo
                0x00000000002eba70       0x60 arch/arm/cpu/armv8/start.o
 .rela.u_boot_list_2_cmd_2_bootp
                0x00000000002ebad0       0x60 arch/arm/cpu/armv8/start.o
 .rela.u_boot_list_2_cmd_2_dhcp
                0x00000000002ebb30       0x60 arch/arm/cpu/armv8/start.o
 .rela.u_boot_list_2_cmd_2_nfs
                0x00000000002ebb90       0x60 arch/arm/cpu/armv8/start.o
 .rela.u_boot_list_2_cmd_2_ping
                0x00000000002ebbf0       0x60 arch/arm/cpu/armv8/start.o
 .rela.u_boot_list_2_cmd_2_tftp
                0x00000000002ebc50       0x60 arch/arm/cpu/armv8/start.o
 .rela.u_boot_list_2_cmd_2_part
                0x00000000002ebcb0       0x60 arch/arm/cpu/armv8/start.o
 .rela.data.cmd_pxe_sub
                0x00000000002ebd10       0xc0 arch/arm/cpu/armv8/start.o
 .rela.data.pxe_default_paths
                0x00000000002ebdd0       0x48 arch/arm/cpu/armv8/start.o
 .rela.u_boot_list_2_cmd_2_pxe
                0x00000000002ebe18       0x60 arch/arm/cpu/armv8/start.o
 .rela.u_boot_list_2_cmd_2_sysboot
                0x00000000002ebe78       0x60 arch/arm/cpu/armv8/start.o
 .rela.u_boot_list_2_cmd_2_rockusb
                0x00000000002ebed8       0x60 arch/arm/cpu/armv8/start.o
 .rela.u_boot_list_2_cmd_2_sf
                0x00000000002ebf38       0x60 arch/arm/cpu/armv8/start.o
 .rela.u_boot_list_2_cmd_2_false
                0x00000000002ebf98       0x48 arch/arm/cpu/armv8/start.o
 .rela.u_boot_list_2_cmd_2_test
                0x00000000002ebfe0       0x60 arch/arm/cpu/armv8/start.o
 .rela.u_boot_list_2_cmd_2_true
                0x00000000002ec040       0x48 arch/arm/cpu/armv8/start.o
 .rela.u_boot_list_2_cmd_2_usb
                0x00000000002ec088       0x60 arch/arm/cpu/armv8/start.o
 .rela.u_boot_list_2_cmd_2_usbboot
                0x00000000002ec0e8       0x60 arch/arm/cpu/armv8/start.o
 .rela.u_boot_list_2_cmd_2_fastboot
                0x00000000002ec148       0x60 arch/arm/cpu/armv8/start.o
 .rela.u_boot_list_2_cmd_2_ums
                0x00000000002ec1a8       0x60 arch/arm/cpu/armv8/start.o
 .rela.u_boot_list_2_cmd_2_gpt
                0x00000000002ec208       0x60 arch/arm/cpu/armv8/start.o
 .rela.u_boot_list_2_cmd_2_rkimgtest
                0x00000000002ec268       0x60 arch/arm/cpu/armv8/start.o
 .rela.data.cmd_env_sub
                0x00000000002ec2c8      0x3c0 arch/arm/cpu/armv8/start.o
 .rela.u_boot_list_2_cmd_2_editenv
                0x00000000002ec688       0x78 arch/arm/cpu/armv8/start.o
 .rela.u_boot_list_2_cmd_2_env
                0x00000000002ec700       0x60 arch/arm/cpu/armv8/start.o
 .rela.u_boot_list_2_cmd_2_printenv
                0x00000000002ec760       0x78 arch/arm/cpu/armv8/start.o
 .rela.u_boot_list_2_cmd_2_run
                0x00000000002ec7d8       0x78 arch/arm/cpu/armv8/start.o
 .rela.u_boot_list_2_cmd_2_setenv
                0x00000000002ec850       0x78 arch/arm/cpu/armv8/start.o
 .rela.rodata.init_sequence_f
                0x00000000002ec8c8      0x408 arch/arm/cpu/armv8/start.o
 .rela.rodata.boot_os
                0x00000000002eccd0       0x90 arch/arm/cpu/armv8/start.o
 .rela.rodata.usb_hub_ids
                0x00000000002ecd60       0x18 arch/arm/cpu/armv8/start.o
 .rela.rodata.usb_mass_storage_ids
                0x00000000002ecd78       0x18 arch/arm/cpu/armv8/start.o
 .rela.rodata.usb_storage_ops
                0x00000000002ecd90       0x30 arch/arm/cpu/armv8/start.o
 .rela.rodata.uimage_arch
                0x00000000002ecdc0      0x510 arch/arm/cpu/armv8/start.o
 .rela.rodata.uimage_comp
                0x00000000002ed2d0      0x150 arch/arm/cpu/armv8/start.o
 .rela.rodata.uimage_os
                0x00000000002ed420      0x210 arch/arm/cpu/armv8/start.o
 .rela.rodata.uimage_type
                0x00000000002ed630      0x660 arch/arm/cpu/armv8/start.o
 .rela.rodata.CSWTCH.64
                0x00000000002edc90       0x48 arch/arm/cpu/armv8/start.o
 .rela.rodata.CSWTCH.184
                0x00000000002edcd8      0x2a0 arch/arm/cpu/armv8/start.o
 .rela.data.hash_algo
                0x00000000002edf78      0x168 arch/arm/cpu/armv8/start.o
 .rela.data.reserved_list
                0x00000000002ee0e0      0x108 arch/arm/cpu/armv8/start.o
 .rela.u_boot_list_2_cmd_2_showvar
                0x00000000002ee1e8       0x60 arch/arm/cpu/armv8/start.o
 .rela.data.init_sequence_r
                0x00000000002ee248      0x360 arch/arm/cpu/armv8/start.o
 .rela.data.of_busses
                0x00000000002ee5a8      0x108 arch/arm/cpu/armv8/start.o
 .rela.data.usb_scan_list
                0x00000000002ee6b0       0x30 arch/arm/cpu/armv8/start.o
 .rela.u_boot_list_2_driver_2_usb_generic_hub
                0x00000000002ee6e0       0x30 arch/arm/cpu/armv8/start.o
 .rela.u_boot_list_2_uclass_2_usb_hub
                0x00000000002ee710       0x60 arch/arm/cpu/armv8/start.o
 .rela.u_boot_list_2_usb_driver_entry_2_usb_generic_hub
                0x00000000002ee770       0x30 arch/arm/cpu/armv8/start.o
 .rela.u_boot_list_2_driver_2_usb_mass_storage
                0x00000000002ee7a0       0x48 arch/arm/cpu/armv8/start.o
 .rela.u_boot_list_2_driver_2_usb_storage_blk
                0x00000000002ee7e8       0x30 arch/arm/cpu/armv8/start.o
 .rela.u_boot_list_2_uclass_2_usb_mass_storage
                0x00000000002ee818       0x18 arch/arm/cpu/armv8/start.o
 .rela.u_boot_list_2_usb_driver_entry_2_usb_mass_storage
                0x00000000002ee830       0x30 arch/arm/cpu/armv8/start.o
 .rela.u_boot_list_2_env_clbk_2_console
                0x00000000002ee860       0x30 arch/arm/cpu/armv8/start.o
 .rela.data.av_
                0x00000000002ee890     0x1800 arch/arm/cpu/armv8/start.o
 .rela.u_boot_list_2_env_clbk_2_loadaddr
                0x00000000002f0090       0x30 arch/arm/cpu/armv8/start.o
 .rela.data.stdio_names
                0x00000000002f00c0       0x48 arch/arm/cpu/armv8/start.o
 .rela.rodata.CSWTCH.11
                0x00000000002f0108       0xc0 arch/arm/cpu/armv8/start.o
 .rela.u_boot_list_2_part_driver_2_dos
                0x00000000002f01c8       0x60 arch/arm/cpu/armv8/start.o
 .rela.u_boot_list_2_part_driver_2_a_efi
                0x00000000002f0228       0x60 arch/arm/cpu/armv8/start.o
 .rela.data.parts_head
                0x00000000002f0288       0x30 arch/arm/cpu/armv8/start.o
 .rela.u_boot_list_2_part_driver_2_b_rkparm
                0x00000000002f02b8       0x60 arch/arm/cpu/armv8/start.o
 .rela.rodata.clk_fixed_rate_match
                0x00000000002f0318       0x18 arch/arm/cpu/armv8/start.o
 .rela.rodata.clk_fixed_rate_ops
                0x00000000002f0330       0x18 arch/arm/cpu/armv8/start.o
 .rela.rodata.apll_cfgs
                0x00000000002f0348       0x48 arch/arm/cpu/armv8/start.o
 .rela.rodata.clks_dump
                0x00000000002f0390      0x168 arch/arm/cpu/armv8/start.o
 .rela.rodata.rk3399_clk_ids
                0x00000000002f04f8       0x18 arch/arm/cpu/armv8/start.o
 .rela.rodata.rk3399_pmuclk_ids
                0x00000000002f0510       0x18 arch/arm/cpu/armv8/start.o
 .rela.rodata.root_info
                0x00000000002f0528       0x18 arch/arm/cpu/armv8/start.o
 .rela.rodata.generic_simple_bus_ids
                0x00000000002f0540       0x30 arch/arm/cpu/armv8/start.o
 .rela.rodata.generic_syscon_ids
                0x00000000002f0570       0x18 arch/arm/cpu/armv8/start.o
 .rela.rodata.rockchip_crypto_ids
                0x00000000002f0588       0x90 arch/arm/cpu/armv8/start.o
 .rela.rodata.rockchip_crypto_ops
                0x00000000002f0618       0x78 arch/arm/cpu/armv8/start.o
 .rela.rodata.adc_key_bus_match
                0x00000000002f0690       0x18 arch/arm/cpu/armv8/start.o
 .rela.rodata.gpio_key_bus_match
                0x00000000002f06a8       0x18 arch/arm/cpu/armv8/start.o
 .rela.rodata.rk_key_bus_match
                0x00000000002f06c0       0x18 arch/arm/cpu/armv8/start.o
 .rela.rodata.rk322x_phy_cfgs
                0x00000000002f06d8       0x18 arch/arm/cpu/armv8/start.o
 .rela.rodata.rockchip_usb2phy_ids
                0x00000000002f06f0      0x1b0 arch/arm/cpu/armv8/start.o
 .rela.rodata.px30_pin_ctrl
                0x00000000002f08a0       0xa8 arch/arm/cpu/armv8/start.o
 .rela.rodata.rk1808_pin_ctrl
                0x00000000002f0948       0x90 arch/arm/cpu/armv8/start.o
 .rela.rodata.rk2928_pin_ctrl
                0x00000000002f09d8       0x48 arch/arm/cpu/armv8/start.o
 .rela.rodata.rk3036_pin_ctrl
                0x00000000002f0a20       0x48 arch/arm/cpu/armv8/start.o
 .rela.rodata.rk3066a_pin_ctrl
                0x00000000002f0a68       0x48 arch/arm/cpu/armv8/start.o
 .rela.rodata.rk3066b_pin_ctrl
                0x00000000002f0ab0       0x30 arch/arm/cpu/armv8/start.o
 .rela.rodata.rk3128_pin_ctrl
                0x00000000002f0ae0       0x78 arch/arm/cpu/armv8/start.o
 .rela.rodata.rk3188_pin_ctrl
                0x00000000002f0b58       0x48 arch/arm/cpu/armv8/start.o
 .rela.rodata.rk3228_pin_ctrl
                0x00000000002f0ba0       0x78 arch/arm/cpu/armv8/start.o
 .rela.rodata.rk3288_pin_ctrl
                0x00000000002f0c18       0x78 arch/arm/cpu/armv8/start.o
 .rela.rodata.rk3328_pin_ctrl
                0x00000000002f0c90       0xa8 arch/arm/cpu/armv8/start.o
 .rela.rodata.rk3368_pin_ctrl
                0x00000000002f0d38       0x60 arch/arm/cpu/armv8/start.o
 .rela.rodata.rk3399_pin_ctrl
                0x00000000002f0d98       0x78 arch/arm/cpu/armv8/start.o
 .rela.rodata.rockchip_conf_params
                0x00000000002f0e10      0x1b0 arch/arm/cpu/armv8/start.o
 .rela.rodata.rockchip_pinctrl_dt_match
                0x00000000002f0fc0      0x300 arch/arm/cpu/armv8/start.o
 .rela.rodata.rv1108_pin_ctrl
                0x00000000002f12c0       0x90 arch/arm/cpu/armv8/start.o
 .rela.rodata.rv1126_pin_ctrl
                0x00000000002f1350       0xa8 arch/arm/cpu/armv8/start.o
 .rela.rodata.rk3399_dmc_ids
                0x00000000002f13f8       0x18 arch/arm/cpu/armv8/start.o
 .rela.rodata.rockchip_saradc_ids
                0x00000000002f1410       0x90 arch/arm/cpu/armv8/start.o
 .rela.rodata.rockchip_saradc_ops
                0x00000000002f14a0       0x48 arch/arm/cpu/armv8/start.o
 .rela.rodata.if_typename_str
                0x00000000002f14e8      0x180 arch/arm/cpu/armv8/start.o
 .rela.rodata.psci_of_match
                0x00000000002f1668       0x48 arch/arm/cpu/armv8/start.o
 .rela.rodata.rockchip_efuse_ids
                0x00000000002f16b0      0x180 arch/arm/cpu/armv8/start.o
 .rela.rodata.rockchip_efuse_ops
                0x00000000002f1830       0x30 arch/arm/cpu/armv8/start.o
 .rela.rodata.mmc_blk_ops
                0x00000000002f1860       0x60 arch/arm/cpu/armv8/start.o
 .rela.rodata.dm_dwmci_ops
                0x00000000002f18c0       0x78 arch/arm/cpu/armv8/start.o
 .rela.rodata.rockchip_dwmmc_ids
                0x00000000002f1938       0x30 arch/arm/cpu/armv8/start.o
 .rela.rodata.rpmb_err_msg
                0x00000000002f1968       0xc0 arch/arm/cpu/armv8/start.o
 .rela.rodata.sdhci_ops
                0x00000000002f1a28       0x60 arch/arm/cpu/armv8/start.o
 .rela.rodata.arasan_data
                0x00000000002f1a88       0x48 arch/arm/cpu/armv8/start.o
 .rela.rodata.arasan_sdhci_ids
                0x00000000002f1ad0       0x60 arch/arm/cpu/armv8/start.o
 .rela.rodata.snps_data
                0x00000000002f1b30       0x48 arch/arm/cpu/armv8/start.o
 .rela.rodata.syscon_reboot_match
                0x00000000002f1b78       0x18 arch/arm/cpu/armv8/start.o
 .rela.rodata.syscon_reboot_ops
                0x00000000002f1b90       0x18 arch/arm/cpu/armv8/start.o
 .rela.rodata.simple_panel_ids
                0x00000000002f1ba8       0x60 arch/arm/cpu/armv8/start.o
 .rela.rodata.simple_panel_ops
                0x00000000002f1c08       0x18 arch/arm/cpu/armv8/start.o
 .rela.rodata.pwm_backlight_ids
                0x00000000002f1c20       0x18 arch/arm/cpu/armv8/start.o
 .rela.rodata.pwm_backlight_ops
                0x00000000002f1c38       0x30 arch/arm/cpu/armv8/start.o
 .rela.rodata.rockchip_display_ids
                0x00000000002f1c68       0x18 arch/arm/cpu/armv8/start.o
 .rela.rodata.px30_vop_big_data
                0x00000000002f1c80       0x30 arch/arm/cpu/armv8/start.o
 .rela.rodata.px30_vop_lit_data
                0x00000000002f1cb0       0x30 arch/arm/cpu/armv8/start.o
 .rela.rodata.rk1808_vop_data
                0x00000000002f1ce0       0x30 arch/arm/cpu/armv8/start.o
 .rela.rodata.rk3036_vop_data
                0x00000000002f1d10       0x30 arch/arm/cpu/armv8/start.o
 .rela.rodata.rk322x_vop_data
                0x00000000002f1d40       0x30 arch/arm/cpu/armv8/start.o
 .rela.rodata.rk3288_vop_big_data
                0x00000000002f1d70       0x30 arch/arm/cpu/armv8/start.o
 .rela.rodata.rk3288_vop_lit_data
                0x00000000002f1da0       0x30 arch/arm/cpu/armv8/start.o
 .rela.rodata.rk3308_vop_data
                0x00000000002f1dd0       0x30 arch/arm/cpu/armv8/start.o
 .rela.rodata.rk3328_vop_data
                0x00000000002f1e00       0x30 arch/arm/cpu/armv8/start.o
 .rela.rodata.rk3366_vop_data
                0x00000000002f1e30       0x30 arch/arm/cpu/armv8/start.o
 .rela.rodata.rk3368_vop_data
                0x00000000002f1e60       0x30 arch/arm/cpu/armv8/start.o
 .rela.rodata.rk3399_vop_big_data
                0x00000000002f1e90       0x30 arch/arm/cpu/armv8/start.o
 .rela.rodata.rk3399_vop_lit_data
                0x00000000002f1ec0       0x30 arch/arm/cpu/armv8/start.o
 .rela.rodata.rk3568_vop_data
                0x00000000002f1ef0       0x30 arch/arm/cpu/armv8/start.o
 .rela.rodata.rockchip_vop_ids
                0x00000000002f1f20      0x330 arch/arm/cpu/armv8/start.o
 .rela.rodata.rv1108_vop_data
                0x00000000002f2250       0x30 arch/arm/cpu/armv8/start.o
 .rela.rodata.rv1126_vop_data
                0x00000000002f2280       0x30 arch/arm/cpu/armv8/start.o
 .rela.rodata.rockchip_vop_funcs
                0x00000000002f22b0       0xc0 arch/arm/cpu/armv8/start.o
 .rela.rodata.px30_vop_big
                0x00000000002f2370       0x60 arch/arm/cpu/armv8/start.o
 .rela.rodata.px30_vop_lit
                0x00000000002f23d0       0x60 arch/arm/cpu/armv8/start.o
 .rela.rodata.rk1808_vop
                0x00000000002f2430       0x60 arch/arm/cpu/armv8/start.o
 .rela.rodata.rk3036_vop
                0x00000000002f2490       0x48 arch/arm/cpu/armv8/start.o
 .rela.rodata.rk322x_vop
                0x00000000002f24d8       0x48 arch/arm/cpu/armv8/start.o
 .rela.rodata.rk3288_vop_big
                0x00000000002f2520       0x60 arch/arm/cpu/armv8/start.o
 .rela.rodata.rk3288_vop_lit
                0x00000000002f2580       0x60 arch/arm/cpu/armv8/start.o
 .rela.rodata.rk3288_win01_data
                0x00000000002f25e0       0x18 arch/arm/cpu/armv8/start.o
 .rela.rodata.rk3288_win_full_scl
                0x00000000002f25f8       0x18 arch/arm/cpu/armv8/start.o
 .rela.rodata.rk3308_vop
                0x00000000002f2610       0x48 arch/arm/cpu/armv8/start.o
 .rela.rodata.rk3328_vop
                0x00000000002f2658       0x48 arch/arm/cpu/armv8/start.o
 .rela.rodata.rk3366_vop
                0x00000000002f26a0       0x48 arch/arm/cpu/armv8/start.o
 .rela.rodata.rk3366_win0_data
                0x00000000002f26e8       0x18 arch/arm/cpu/armv8/start.o
 .rela.rodata.rk3368_vop
                0x00000000002f2700       0x60 arch/arm/cpu/armv8/start.o
 .rela.rodata.rk3399_csc_table
                0x00000000002f2760       0x60 arch/arm/cpu/armv8/start.o
 .rela.rodata.rk3399_vop_big
                0x00000000002f27c0       0x78 arch/arm/cpu/armv8/start.o
 .rela.rodata.rk3399_vop_lit
                0x00000000002f2838       0x78 arch/arm/cpu/armv8/start.o
 .rela.rodata.rv1108_vop
                0x00000000002f28b0       0x48 arch/arm/cpu/armv8/start.o
 .rela.rodata.rv1126_vop
                0x00000000002f28f8       0x48 arch/arm/cpu/armv8/start.o
 .rela.rodata.rk3568_vop
                0x00000000002f2940       0x48 arch/arm/cpu/armv8/start.o
 .rela.rodata.rockchip_vop2_funcs
                0x00000000002f2988       0xa8 arch/arm/cpu/armv8/start.o
 .rela.rodata.dw_mipi_dsi_connector_funcs
                0x00000000002f2a30       0x90 arch/arm/cpu/armv8/start.o
 .rela.rodata.dw_mipi_dsi_host_ops
                0x00000000002f2ac0       0x30 arch/arm/cpu/armv8/start.o
 .rela.rodata.dw_mipi_dsi_ids
                0x00000000002f2af0      0x1e0 arch/arm/cpu/armv8/start.o
 .rela.rodata.px30_mipi_dsi_driver_data
                0x00000000002f2cd0       0x30 arch/arm/cpu/armv8/start.o
 .rela.rodata.px30_mipi_dsi_plat_data
                0x00000000002f2d00       0x18 arch/arm/cpu/armv8/start.o
 .rela.rodata.rk1808_mipi_dsi_driver_data
                0x00000000002f2d18       0x30 arch/arm/cpu/armv8/start.o
 .rela.rodata.rk1808_mipi_dsi_plat_data
                0x00000000002f2d48       0x18 arch/arm/cpu/armv8/start.o
 .rela.rodata.rk3128_mipi_dsi_driver_data
                0x00000000002f2d60       0x30 arch/arm/cpu/armv8/start.o
 .rela.rodata.rk3128_mipi_dsi_plat_data
                0x00000000002f2d90       0x18 arch/arm/cpu/armv8/start.o
 .rela.rodata.rk3288_mipi_dsi_driver_data
                0x00000000002f2da8       0x30 arch/arm/cpu/armv8/start.o
 .rela.rodata.rk3288_mipi_dsi_plat_data
                0x00000000002f2dd8       0x30 arch/arm/cpu/armv8/start.o
 .rela.rodata.rk3366_mipi_dsi_driver_data
                0x00000000002f2e08       0x30 arch/arm/cpu/armv8/start.o
 .rela.rodata.rk3366_mipi_dsi_plat_data
                0x00000000002f2e38       0x18 arch/arm/cpu/armv8/start.o
 .rela.rodata.rk3368_mipi_dsi_driver_data
                0x00000000002f2e50       0x30 arch/arm/cpu/armv8/start.o
 .rela.rodata.rk3368_mipi_dsi_plat_data
                0x00000000002f2e80       0x18 arch/arm/cpu/armv8/start.o
 .rela.rodata.rk3399_mipi_dsi_driver_data
                0x00000000002f2e98       0x30 arch/arm/cpu/armv8/start.o
 .rela.rodata.rk3399_mipi_dsi_plat_data
                0x00000000002f2ec8       0x30 arch/arm/cpu/armv8/start.o
 .rela.rodata.rk3568_mipi_dsi_driver_data
                0x00000000002f2ef8       0x30 arch/arm/cpu/armv8/start.o
 .rela.rodata.rk3568_mipi_dsi_plat_data
                0x00000000002f2f28       0x30 arch/arm/cpu/armv8/start.o
 .rela.rodata.rv1108_mipi_dsi_driver_data
                0x00000000002f2f58       0x30 arch/arm/cpu/armv8/start.o
 .rela.rodata.rv1108_mipi_dsi_plat_data
                0x00000000002f2f88       0x18 arch/arm/cpu/armv8/start.o
 .rela.rodata.rv1126_mipi_dsi_driver_data
                0x00000000002f2fa0       0x30 arch/arm/cpu/armv8/start.o
 .rela.rodata.rv1126_mipi_dsi_plat_data
                0x00000000002f2fd0       0x18 arch/arm/cpu/armv8/start.o
 .rela.rodata.inno_dw_hdmi_phy_ops
                0x00000000002f2fe8       0x60 arch/arm/cpu/armv8/start.o
 .rela.rodata.rk3228_dw_hdmi_data
                0x00000000002f3048       0x30 arch/arm/cpu/armv8/start.o
 .rela.rodata.rk3228_hdmi_drv_data
                0x00000000002f3078       0x30 arch/arm/cpu/armv8/start.o
 .rela.rodata.rk3288_dw_hdmi_data
                0x00000000002f30a8       0x30 arch/arm/cpu/armv8/start.o
 .rela.rodata.rk3288_hdmi_drv_data
                0x00000000002f30d8       0x48 arch/arm/cpu/armv8/start.o
 .rela.rodata.rk3328_dw_hdmi_data
                0x00000000002f3120       0x30 arch/arm/cpu/armv8/start.o
 .rela.rodata.rk3328_hdmi_drv_data
                0x00000000002f3150       0x30 arch/arm/cpu/armv8/start.o
 .rela.rodata.rk3368_dw_hdmi_data
                0x00000000002f3180       0x30 arch/arm/cpu/armv8/start.o
 .rela.rodata.rk3368_hdmi_drv_data
                0x00000000002f31b0       0x60 arch/arm/cpu/armv8/start.o
 .rela.rodata.rk3399_dw_hdmi_data
                0x00000000002f3210       0x30 arch/arm/cpu/armv8/start.o
 .rela.rodata.rk3399_hdmi_drv_data
                0x00000000002f3240       0x60 arch/arm/cpu/armv8/start.o
 .rela.rodata.rk3568_dw_hdmi_data
                0x00000000002f32a0       0x30 arch/arm/cpu/armv8/start.o
 .rela.rodata.rk3568_hdmi_drv_data
                0x00000000002f32d0       0x60 arch/arm/cpu/armv8/start.o
 .rela.rodata.rockchip_dw_hdmi_funcs
                0x00000000002f3330       0xd8 arch/arm/cpu/armv8/start.o
 .rela.rodata.rockchip_dw_hdmi_ids
                0x00000000002f3408      0x150 arch/arm/cpu/armv8/start.o
 .rela.rodata.dw_hdmi_phys
                0x00000000002f3558      0x120 arch/arm/cpu/armv8/start.o
 .rela.rodata.dw_hdmi_synopsys_phy_ops
                0x00000000002f3678       0x48 arch/arm/cpu/armv8/start.o
 .rela.rodata.analogix_dp_connector_funcs
                0x00000000002f36c0       0x90 arch/arm/cpu/armv8/start.o
 .rela.rodata.analogix_dp_ids
                0x00000000002f3750       0xc0 arch/arm/cpu/armv8/start.o
 .rela.rodata.rk3288_edp_driver_data
                0x00000000002f3810       0x30 arch/arm/cpu/armv8/start.o
 .rela.rodata.rk3368_edp_driver_data
                0x00000000002f3840       0x30 arch/arm/cpu/armv8/start.o
 .rela.rodata.rk3399_edp_driver_data
                0x00000000002f3870       0x30 arch/arm/cpu/armv8/start.o
 .rela.rodata.rk3568_edp_driver_data
                0x00000000002f38a0       0x30 arch/arm/cpu/armv8/start.o
 .rela.rodata.rockchip_panel_funcs
                0x00000000002f38d0       0x78 arch/arm/cpu/armv8/start.o
 .rela.rodata.rockchip_panel_ids
                0x00000000002f3948       0x30 arch/arm/cpu/armv8/start.o
 .rela.rodata.rk_pwm_ids
                0x00000000002f3978       0xf0 arch/arm/cpu/armv8/start.o
 .rela.rodata.rk_pwm_ops
                0x00000000002f3a68       0x48 arch/arm/cpu/armv8/start.o
 .rela.u_boot_list_2_uclass_2_clk
                0x00000000002f3ab0       0x18 arch/arm/cpu/armv8/start.o
 .rela.u_boot_list_2_driver_2_clk_fixed_rate
                0x00000000002f3ac8       0x60 arch/arm/cpu/armv8/start.o
 .rela.data.rk3399_clk_ops
                0x00000000002f3b28       0x60 arch/arm/cpu/armv8/start.o
 .rela.data.rk3399_pmuclk_ops
                0x00000000002f3b88       0x30 arch/arm/cpu/armv8/start.o
 .rela.u_boot_list_2_driver_2_clk_rk3399
                0x00000000002f3bb8       0x90 arch/arm/cpu/armv8/start.o
 .rela.u_boot_list_2_driver_2_rockchip_rk3399_pmuclk
                0x00000000002f3c48       0x90 arch/arm/cpu/armv8/start.o
 .rela.u_boot_list_2_driver_2_root_driver
                0x00000000002f3cd8       0x18 arch/arm/cpu/armv8/start.o
 .rela.u_boot_list_2_uclass_2_root
                0x00000000002f3cf0       0x18 arch/arm/cpu/armv8/start.o
 .rela.u_boot_list_2_uclass_2_nop
                0x00000000002f3d08       0x18 arch/arm/cpu/armv8/start.o
 .rela.u_boot_list_2_driver_2_simple_bus_drv
                0x00000000002f3d20       0x30 arch/arm/cpu/armv8/start.o
 .rela.u_boot_list_2_uclass_2_simple_bus
                0x00000000002f3d50       0x30 arch/arm/cpu/armv8/start.o
 .rela.u_boot_list_2_driver_2_generic_syscon
                0x00000000002f3d80       0x48 arch/arm/cpu/armv8/start.o
 .rela.u_boot_list_2_uclass_2_syscon
                0x00000000002f3dc8       0x30 arch/arm/cpu/armv8/start.o
 .rela.data.aliases_lookup
                0x00000000002f3df8       0x30 arch/arm/cpu/armv8/start.o
 .rela.u_boot_list_2_uclass_2_crypto
                0x00000000002f3e28       0x18 arch/arm/cpu/armv8/start.o
 .rela.u_boot_list_2_driver_2_rockchip_crypto_v1
                0x00000000002f3e40       0x78 arch/arm/cpu/armv8/start.o
 .rela.u_boot_list_2_uclass_2_key
                0x00000000002f3eb8       0x30 arch/arm/cpu/armv8/start.o
 .rela.u_boot_list_2_driver_2_adc_key
                0x00000000002f3ee8       0x30 arch/arm/cpu/armv8/start.o
 .rela.u_boot_list_2_driver_2_adc_key_bus
                0x00000000002f3f18       0x48 arch/arm/cpu/armv8/start.o
 .rela.u_boot_list_2_driver_2_gpio_key
                0x00000000002f3f60       0x30 arch/arm/cpu/armv8/start.o
 .rela.u_boot_list_2_driver_2_gpio_key_bus
                0x00000000002f3f90       0x48 arch/arm/cpu/armv8/start.o
 .rela.u_boot_list_2_driver_2_rk_key
                0x00000000002f3fd8       0x30 arch/arm/cpu/armv8/start.o
 .rela.u_boot_list_2_driver_2_rk_key_bus
                0x00000000002f4008       0x48 arch/arm/cpu/armv8/start.o
 .rela.u_boot_list_2_uclass_2_phy
                0x00000000002f4050       0x18 arch/arm/cpu/armv8/start.o
 .rela.data.rockchip_usb2phy_ops
                0x00000000002f4068       0x78 arch/arm/cpu/armv8/start.o
 .rela.u_boot_list_2_driver_2_rockchip_usb2phy
                0x00000000002f40e0       0x60 arch/arm/cpu/armv8/start.o
 .rela.u_boot_list_2_driver_2_rockchip_usb2phy_port
                0x00000000002f4140       0x30 arch/arm/cpu/armv8/start.o
 .rela.u_boot_list_2_driver_2_pinconfig_generic
                0x00000000002f4170       0x18 arch/arm/cpu/armv8/start.o
 .rela.u_boot_list_2_uclass_2_pinconfig
                0x00000000002f4188       0x30 arch/arm/cpu/armv8/start.o
 .rela.u_boot_list_2_uclass_2_pinctrl
                0x00000000002f41b8       0x30 arch/arm/cpu/armv8/start.o
 .rela.data.px30_pin_banks
                0x00000000002f41e8       0x60 arch/arm/cpu/armv8/start.o
 .rela.data.rk1808_pin_banks
                0x00000000002f4248       0x78 arch/arm/cpu/armv8/start.o
 .rela.data.rk2928_pin_banks
                0x00000000002f42c0       0x60 arch/arm/cpu/armv8/start.o
 .rela.data.rk3036_pin_banks
                0x00000000002f4320       0x48 arch/arm/cpu/armv8/start.o
 .rela.data.rk3066a_pin_banks
                0x00000000002f4368       0x90 arch/arm/cpu/armv8/start.o
 .rela.data.rk3066b_pin_banks
                0x00000000002f43f8       0x60 arch/arm/cpu/armv8/start.o
 .rela.data.rk3128_pin_banks
                0x00000000002f4458       0x60 arch/arm/cpu/armv8/start.o
 .rela.data.rk3188_pin_banks
                0x00000000002f44b8       0x60 arch/arm/cpu/armv8/start.o
 .rela.data.rk3228_pin_banks
                0x00000000002f4518       0x60 arch/arm/cpu/armv8/start.o
 .rela.data.rk3288_pin_banks
                0x00000000002f4578       0xd8 arch/arm/cpu/armv8/start.o
 .rela.data.rk3308_pin_banks
                0x00000000002f4650       0x78 arch/arm/cpu/armv8/start.o
 .rela.data.rk3308_pin_ctrl
                0x00000000002f46c8       0xa8 arch/arm/cpu/armv8/start.o
 .rela.data.rk3328_pin_banks
                0x00000000002f4770       0x60 arch/arm/cpu/armv8/start.o
 .rela.data.rk3368_pin_banks
                0x00000000002f47d0       0x60 arch/arm/cpu/armv8/start.o
 .rela.data.rk3399_pin_banks
                0x00000000002f4830       0x78 arch/arm/cpu/armv8/start.o
 .rela.data.rockchip_pinctrl_ops
                0x00000000002f48a8       0x48 arch/arm/cpu/armv8/start.o
 .rela.data.rv1108_pin_banks
                0x00000000002f48f0       0x60 arch/arm/cpu/armv8/start.o
 .rela.data.rv1126_pin_banks
                0x00000000002f4950       0x78 arch/arm/cpu/armv8/start.o
 .rela.u_boot_list_2_driver_2_pinctrl_rockchip
                0x00000000002f49c8       0x78 arch/arm/cpu/armv8/start.o
 .rela.u_boot_list_2_uclass_2_ram
                0x00000000002f4a40       0x18 arch/arm/cpu/armv8/start.o
 .rela.data.rk3399_dmc_ops
                0x00000000002f4a58       0x18 arch/arm/cpu/armv8/start.o
 .rela.u_boot_list_2_driver_2_dmc_rk3399
                0x00000000002f4a70       0x60 arch/arm/cpu/armv8/start.o
 .rela.data.gic_irq_chip
                0x00000000002f4ad0       0xd8 arch/arm/cpu/armv8/start.o
 .rela.data.gpio_irq_chip
                0x00000000002f4ba8       0xa8 arch/arm/cpu/armv8/start.o
 .rela.u_boot_list_2_cmd_2_dump_irqs
                0x00000000002f4c50       0x60 arch/arm/cpu/armv8/start.o
 .rela.data.gpio_banks
                0x00000000002f4cb0       0x78 arch/arm/cpu/armv8/start.o
 .rela.data.virq_desc_head
                0x00000000002f4d28       0x30 arch/arm/cpu/armv8/start.o
 .rela.data.virq_generic_chip
                0x00000000002f4d58       0x60 arch/arm/cpu/armv8/start.o
 .rela.u_boot_list_2_uclass_2_adc
                0x00000000002f4db8       0x30 arch/arm/cpu/armv8/start.o
 .rela.u_boot_list_2_driver_2_rockchip_saradc
                0x00000000002f4de8       0x78 arch/arm/cpu/armv8/start.o
 .rela.u_boot_list_2_uclass_2_blk
                0x00000000002f4e60       0x18 arch/arm/cpu/armv8/start.o
 .rela.u_boot_list_2_driver_2_firmware
                0x00000000002f4e78       0x30 arch/arm/cpu/armv8/start.o
 .rela.u_boot_list_2_uclass_2_firmware
                0x00000000002f4ea8       0x18 arch/arm/cpu/armv8/start.o
 .rela.u_boot_list_2_driver_2_psci
                0x00000000002f4ec0       0x60 arch/arm/cpu/armv8/start.o
 .rela.u_boot_list_2_uclass_2_misc
                0x00000000002f4f20       0x18 arch/arm/cpu/armv8/start.o
 .rela.u_boot_list_2_driver_2_rockchip_efuse
                0x00000000002f4f38       0x60 arch/arm/cpu/armv8/start.o
 .rela.u_boot_list_2_driver_2_mmc
                0x00000000002f4f98       0x18 arch/arm/cpu/armv8/start.o
 .rela.u_boot_list_2_driver_2_mmc_blk
                0x00000000002f4fb0       0x48 arch/arm/cpu/armv8/start.o
 .rela.u_boot_list_2_uclass_2_mmc
                0x00000000002f4ff8       0x18 arch/arm/cpu/armv8/start.o
 .rela.u_boot_list_2_driver_2_rockchip_dwmmc_drv
                0x00000000002f5010       0x90 arch/arm/cpu/armv8/start.o
 .rela.data.arasan_sdhci_ops
                0x00000000002f50a0       0x18 arch/arm/cpu/armv8/start.o
 .rela.u_boot_list_2_driver_2_arasan_sdhci_drv
                0x00000000002f50b8       0x90 arch/arm/cpu/armv8/start.o
 .rela.u_boot_list_2_uclass_2_sysreset
                0x00000000002f5148       0x18 arch/arm/cpu/armv8/start.o
 .rela.u_boot_list_2_driver_2_sysreset_syscon_reboot
                0x00000000002f5160       0x48 arch/arm/cpu/armv8/start.o
 .rela.data.psci_sysreset_ops
                0x00000000002f51a8       0x18 arch/arm/cpu/armv8/start.o
 .rela.u_boot_list_2_driver_2_psci_sysreset
                0x00000000002f51c0       0x30 arch/arm/cpu/armv8/start.o
 .rela.data.rockchip_sysreset
                0x00000000002f51f0       0x18 arch/arm/cpu/armv8/start.o
 .rela.u_boot_list_2_driver_2_sysreset_rockchip
                0x00000000002f5208       0x30 arch/arm/cpu/armv8/start.o
 .rela.u_boot_list_2_uclass_2_display
                0x00000000002f5238       0x18 arch/arm/cpu/armv8/start.o
 .rela.u_boot_list_2_uclass_2_backlight
                0x00000000002f5250       0x18 arch/arm/cpu/armv8/start.o
 .rela.u_boot_list_2_uclass_2_panel
                0x00000000002f5268       0x18 arch/arm/cpu/armv8/start.o
 .rela.u_boot_list_2_driver_2_simple_panel
                0x00000000002f5280       0x78 arch/arm/cpu/armv8/start.o
 .rela.u_boot_list_2_uclass_2_video
                0x00000000002f52f8       0x78 arch/arm/cpu/armv8/start.o
 .rela.u_boot_list_2_cmd_2_lcdputs
                0x00000000002f5370       0x60 arch/arm/cpu/armv8/start.o
 .rela.u_boot_list_2_cmd_2_setcurs
                0x00000000002f53d0       0x60 arch/arm/cpu/armv8/start.o
 .rela.u_boot_list_2_uclass_2_vidconsole
                0x00000000002f5430       0x48 arch/arm/cpu/armv8/start.o
 .rela.u_boot_list_2_driver_2_pwm_backlight
                0x00000000002f5478       0x78 arch/arm/cpu/armv8/start.o
 .rela.data.console_normal_ops
                0x00000000002f54f0       0x48 arch/arm/cpu/armv8/start.o
 .rela.u_boot_list_2_driver_2_vidconsole_normal
                0x00000000002f5538       0x48 arch/arm/cpu/armv8/start.o
 .rela.data.logo_cache_list
                0x00000000002f5580       0x30 arch/arm/cpu/armv8/start.o
 .rela.data.rockchip_display_list
                0x00000000002f55b0       0x30 arch/arm/cpu/armv8/start.o
 .rela.u_boot_list_2_cmd_2_rockchip_show_bmp
                0x00000000002f55e0       0x60 arch/arm/cpu/armv8/start.o
 .rela.u_boot_list_2_cmd_2_rockchip_show_logo
                0x00000000002f5640       0x48 arch/arm/cpu/armv8/start.o
 .rela.u_boot_list_2_driver_2_rockchip_display
                0x00000000002f5688       0x60 arch/arm/cpu/armv8/start.o
 .rela.u_boot_list_2_driver_2_rockchip_vop
                0x00000000002f56e8       0x60 arch/arm/cpu/armv8/start.o
 .rela.u_boot_list_2_uclass_2_rockchip_crtc
                0x00000000002f5748       0x18 arch/arm/cpu/armv8/start.o
 .rela.data.rk3568_win_data
                0x00000000002f5760       0x90 arch/arm/cpu/armv8/start.o
 .rela.u_boot_list_2_driver_2_dw_mipi_dsi
                0x00000000002f57f0       0x90 arch/arm/cpu/armv8/start.o
 .rela.u_boot_list_2_driver_2_rockchip_dw_hdmi
                0x00000000002f5880       0x48 arch/arm/cpu/armv8/start.o
 .rela.u_boot_list_2_driver_2_analogix_dp
                0x00000000002f58c8       0x48 arch/arm/cpu/armv8/start.o
 .rela.u_boot_list_2_driver_2_rockchip_panel
                0x00000000002f5910       0x60 arch/arm/cpu/armv8/start.o
 .rela.u_boot_list_2_uclass_2_video_bridge
                0x00000000002f5970       0x30 arch/arm/cpu/armv8/start.o
 .rela.u_boot_list_2_uclass_2_pwm
                0x00000000002f59a0       0x18 arch/arm/cpu/armv8/start.o
 .rela.u_boot_list_2_driver_2_rk_pwm
                0x00000000002f59b8       0x78 arch/arm/cpu/armv8/start.o
 .rela.u_boot_list_2_uclass_2_reset
                0x00000000002f5a30       0x18 arch/arm/cpu/armv8/start.o
 .rela.data.rockchip_reset_ops
                0x00000000002f5a48       0x60 arch/arm/cpu/armv8/start.o
 .rela.u_boot_list_2_driver_2_rockchip_reset
                0x00000000002f5aa8       0x48 arch/arm/cpu/armv8/start.o
 .rela.rodata.gpio_rockchip_ops
                0x00000000002f5af0       0x78 arch/arm/cpu/armv8/start.o
 .rela.rodata.rockchip_gpio_ids
                0x00000000002f5b68       0x18 arch/arm/cpu/armv8/start.o
 .rela.u_boot_list_2_uclass_2_gpio
                0x00000000002f5b80       0x48 arch/arm/cpu/armv8/start.o
 .rela.u_boot_list_2_driver_2_gpio_rockchip
                0x00000000002f5bc8       0x60 arch/arm/cpu/armv8/start.o
 .rela.rodata.rockchip_i2c_ids
                0x00000000002f5c28       0xa8 arch/arm/cpu/armv8/start.o
 .rela.rodata.rockchip_i2c_ops
                0x00000000002f5cd0       0x30 arch/arm/cpu/armv8/start.o
 .rela.u_boot_list_2_driver_2_i2c_generic_chip_drv
                0x00000000002f5d00       0x18 arch/arm/cpu/armv8/start.o
 .rela.u_boot_list_2_uclass_2_i2c
                0x00000000002f5d18       0x60 arch/arm/cpu/armv8/start.o
 .rela.u_boot_list_2_uclass_2_i2c_generic
                0x00000000002f5d78       0x18 arch/arm/cpu/armv8/start.o
 .rela.u_boot_list_2_driver_2_i2c_rockchip
                0x00000000002f5d90       0x78 arch/arm/cpu/armv8/start.o
 .rela.u_boot_list_2_uclass_2_spi_nor
                0x00000000002f5e08       0x30 arch/arm/cpu/armv8/start.o
 .rela.rodata.designware_eth_ids
                0x00000000002f5e38       0x78 arch/arm/cpu/armv8/start.o
 .rela.rodata.designware_eth_ops
                0x00000000002f5eb0       0x90 arch/arm/cpu/armv8/start.o
 .rela.rodata.gmac_rockchip_eth_ops
                0x00000000002f5f40       0x90 arch/arm/cpu/armv8/start.o
 .rela.rodata.px30_gmac_ops
                0x00000000002f5fd0       0x30 arch/arm/cpu/armv8/start.o
 .rela.rodata.rk1808_gmac_ops
                0x00000000002f6000       0x30 arch/arm/cpu/armv8/start.o
 .rela.rodata.rk3228_gmac_ops
                0x00000000002f6030       0x60 arch/arm/cpu/armv8/start.o
 .rela.rodata.rk3288_gmac_ops
                0x00000000002f6090       0x30 arch/arm/cpu/armv8/start.o
 .rela.rodata.rk3308_gmac_ops
                0x00000000002f60c0       0x30 arch/arm/cpu/armv8/start.o
 .rela.rodata.rk3328_gmac_ops
                0x00000000002f60f0       0x60 arch/arm/cpu/armv8/start.o
 .rela.rodata.rk3368_gmac_ops
                0x00000000002f6150       0x30 arch/arm/cpu/armv8/start.o
 .rela.rodata.rk3399_gmac_ops
                0x00000000002f6180       0x30 arch/arm/cpu/armv8/start.o
 .rela.rodata.rockchip_gmac_ids
                0x00000000002f61b0      0x1b0 arch/arm/cpu/armv8/start.o
 .rela.rodata.rv1108_gmac_ops
                0x00000000002f6360       0x30 arch/arm/cpu/armv8/start.o
 .rela.u_boot_list_2_driver_2_eth_designware
                0x00000000002f6390       0xa8 arch/arm/cpu/armv8/start.o
 .rela.u_boot_list_2_pci_driver_entry_2_eth_designware
                0x00000000002f6438       0x30 arch/arm/cpu/armv8/start.o
 .rela.u_boot_list_2_driver_2_eth_gmac_rockchip
                0x00000000002f6468       0x78 arch/arm/cpu/armv8/start.o
 .rela.rodata.phy_interface_strings
                0x00000000002f64e0      0x1b0 arch/arm/cpu/armv8/start.o
 .rela.data.genphy_driver
                0x00000000002f6690       0x60 arch/arm/cpu/armv8/start.o
 .rela.data.phy_drivers
                0x00000000002f66f0       0x30 arch/arm/cpu/armv8/start.o
 .rela.rodata.charge_animation_ids
                0x00000000002f6720       0x18 arch/arm/cpu/armv8/start.o
 .rela.rodata.charge_animation_ops
                0x00000000002f6738       0x18 arch/arm/cpu/armv8/start.o
 .rela.rodata.image
                0x00000000002f6750       0xa8 arch/arm/cpu/armv8/start.o
 .rela.u_boot_list_2_uclass_2_charge_display
                0x00000000002f67f8       0x18 arch/arm/cpu/armv8/start.o
 .rela.u_boot_list_2_driver_2_charge_animation
                0x00000000002f6810       0x78 arch/arm/cpu/armv8/start.o
 .rela.rodata.charger_ids
                0x00000000002f6888       0x30 arch/arm/cpu/armv8/start.o
 .rela.data.charger_ops
                0x00000000002f68b8       0x30 arch/arm/cpu/armv8/start.o
 .rela.u_boot_list_2_driver_2_bq25700_charger
                0x00000000002f68e8       0x78 arch/arm/cpu/armv8/start.o
 .rela.u_boot_list_2_uclass_2_fuel_guage
                0x00000000002f6960       0x18 arch/arm/cpu/armv8/start.o
 .rela.data.fg_ops
                0x00000000002f6978       0x78 arch/arm/cpu/armv8/start.o
 .rela.u_boot_list_2_driver_2_rk817_fg
                0x00000000002f69f0       0x60 arch/arm/cpu/armv8/start.o
 .rela.rodata.rockchip_iodomain_match
                0x00000000002f6a50      0x300 arch/arm/cpu/armv8/start.o
 .rela.rodata.soc_data_px30
                0x00000000002f6d50       0xc0 arch/arm/cpu/armv8/start.o
 .rela.rodata.soc_data_px30_pmu
                0x00000000002f6e10       0x30 arch/arm/cpu/armv8/start.o
 .rela.rodata.soc_data_rk3188
                0x00000000002f6e40       0xc0 arch/arm/cpu/armv8/start.o
 .rela.rodata.soc_data_rk322x
                0x00000000002f6f00       0x60 arch/arm/cpu/armv8/start.o
 .rela.rodata.soc_data_rk3288
                0x00000000002f6f60      0x108 arch/arm/cpu/armv8/start.o
 .rela.rodata.soc_data_rk3308
                0x00000000002f7068       0xa8 arch/arm/cpu/armv8/start.o
 .rela.rodata.soc_data_rk3328
                0x00000000002f7110       0xc0 arch/arm/cpu/armv8/start.o
 .rela.rodata.soc_data_rk3366
                0x00000000002f71d0       0xc0 arch/arm/cpu/armv8/start.o
 .rela.rodata.soc_data_rk3368
                0x00000000002f7290       0xc0 arch/arm/cpu/armv8/start.o
 .rela.rodata.soc_data_rk3368_pmu
                0x00000000002f7350       0x30 arch/arm/cpu/armv8/start.o
 .rela.rodata.soc_data_rk3399
                0x00000000002f7380       0x60 arch/arm/cpu/armv8/start.o
 .rela.rodata.soc_data_rk3399_pmu
                0x00000000002f73e0       0x30 arch/arm/cpu/armv8/start.o
 .rela.rodata.soc_data_rk3568_pmu
                0x00000000002f7410       0xd8 arch/arm/cpu/armv8/start.o
 .rela.rodata.soc_data_rv1108
                0x00000000002f74e8       0x78 arch/arm/cpu/armv8/start.o
 .rela.rodata.soc_data_rv1108_pmu
                0x00000000002f7560       0x18 arch/arm/cpu/armv8/start.o
 .rela.rodata.soc_data_rv1126_pmu
                0x00000000002f7578       0xd8 arch/arm/cpu/armv8/start.o
 .rela.u_boot_list_2_uclass_2_io_domain
                0x00000000002f7650       0x18 arch/arm/cpu/armv8/start.o
 .rela.u_boot_list_2_driver_2_io_domain
                0x00000000002f7668       0x60 arch/arm/cpu/armv8/start.o
 .rela.rodata.fuel_gauge_info
                0x00000000002f76c8       0xd8 arch/arm/cpu/armv8/start.o
 .rela.rodata.pmic_children_info
                0x00000000002f77a0       0x90 arch/arm/cpu/armv8/start.o
 .rela.rodata.power_key_info
                0x00000000002f7830       0x30 arch/arm/cpu/armv8/start.o
 .rela.rodata.rk817_codec_info
                0x00000000002f7860       0x30 arch/arm/cpu/armv8/start.o
 .rela.rodata.rk8xx_ids
                0x00000000002f7890       0x90 arch/arm/cpu/armv8/start.o
 .rela.rodata.rtc_info
                0x00000000002f7920       0x30 arch/arm/cpu/armv8/start.o
 .rela.u_boot_list_2_uclass_2_pmic
                0x00000000002f7950       0x18 arch/arm/cpu/armv8/start.o
 .rela.data.rk805_irq_chip
                0x00000000002f7968       0x48 arch/arm/cpu/armv8/start.o
 .rela.data.rk808_irq_chip
                0x00000000002f79b0       0x48 arch/arm/cpu/armv8/start.o
 .rela.data.rk816_irq_chip
                0x00000000002f79f8       0x48 arch/arm/cpu/armv8/start.o
 .rela.data.rk817_irq_chip
                0x00000000002f7a40       0x48 arch/arm/cpu/armv8/start.o
 .rela.data.rk818_irq_chip
                0x00000000002f7a88       0x48 arch/arm/cpu/armv8/start.o
 .rela.data.rk8xx_ops
                0x00000000002f7ad0       0x90 arch/arm/cpu/armv8/start.o
 .rela.u_boot_list_2_driver_2_pmic_rk8xx
                0x00000000002f7b60       0x90 arch/arm/cpu/armv8/start.o
 .rela.rodata.pwm_regulator_ids
                0x00000000002f7bf0       0x18 arch/arm/cpu/armv8/start.o
 .rela.rodata.pwm_regulator_ops
                0x00000000002f7c08       0x48 arch/arm/cpu/armv8/start.o
 .rela.rodata.fixed_regulator_ids
                0x00000000002f7c50       0x18 arch/arm/cpu/armv8/start.o
 .rela.rodata.fixed_regulator_ops
                0x00000000002f7c68       0x60 arch/arm/cpu/armv8/start.o
 .rela.rodata.rk8xx_buck_ops
                0x00000000002f7cc8       0xd8 arch/arm/cpu/armv8/start.o
 .rela.rodata.rk8xx_ldo_ops
                0x00000000002f7da0       0xc0 arch/arm/cpu/armv8/start.o
 .rela.rodata.rk8xx_switch_ops
                0x00000000002f7e60       0xc0 arch/arm/cpu/armv8/start.o
 .rela.u_boot_list_2_uclass_2_regulator
                0x00000000002f7f20       0x48 arch/arm/cpu/armv8/start.o
 .rela.u_boot_list_2_driver_2_pwm_regulator
                0x00000000002f7f68       0x78 arch/arm/cpu/armv8/start.o
 .rela.u_boot_list_2_driver_2_fixed_regulator
                0x00000000002f7fe0       0x60 arch/arm/cpu/armv8/start.o
 .rela.u_boot_list_2_driver_2_rk8xx_buck
                0x00000000002f8040       0x48 arch/arm/cpu/armv8/start.o
 .rela.u_boot_list_2_driver_2_rk8xx_ldo
                0x00000000002f8088       0x48 arch/arm/cpu/armv8/start.o
 .rela.u_boot_list_2_driver_2_rk8xx_switch
                0x00000000002f80d0       0x48 arch/arm/cpu/armv8/start.o
 .rela.rodata.ns16550_serial_ids
                0x00000000002f8118      0x108 arch/arm/cpu/armv8/start.o
 .rela.rodata.ns16550_serial_ops
                0x00000000002f8220       0x78 arch/arm/cpu/armv8/start.o
 .rela.u_boot_list_2_env_clbk_2_baudrate
                0x00000000002f8298       0x30 arch/arm/cpu/armv8/start.o
 .rela.u_boot_list_2_uclass_2_serial
                0x00000000002f82c8       0x48 arch/arm/cpu/armv8/start.o
 .rela.u_boot_list_2_driver_2_ns16550_serial
                0x00000000002f8310       0x78 arch/arm/cpu/armv8/start.o
 .rela.u_boot_list_2_driver_2_spi_generic_drv
                0x00000000002f8388       0x18 arch/arm/cpu/armv8/start.o
 .rela.u_boot_list_2_uclass_2_spi
                0x00000000002f83a0       0x78 arch/arm/cpu/armv8/start.o
 .rela.u_boot_list_2_uclass_2_spi_generic
                0x00000000002f8418       0x18 arch/arm/cpu/armv8/start.o
 .rela.rodata.usb_dr_modes
                0x00000000002f8430       0x60 arch/arm/cpu/armv8/start.o
 .rela.rodata.dwc3_gadget_ep0_ops
                0x00000000002f8490       0xc0 arch/arm/cpu/armv8/start.o
 .rela.rodata.dwc3_gadget_ep_ops
                0x00000000002f8550       0xc0 arch/arm/cpu/armv8/start.o
 .rela.rodata.dwc3_gadget_ops
                0x00000000002f8610       0x90 arch/arm/cpu/armv8/start.o
 .rela.data.dwc3_list
                0x00000000002f86a0       0x30 arch/arm/cpu/armv8/start.o
 .rela.rodata.asix_eth_ops
                0x00000000002f86d0       0x90 arch/arm/cpu/armv8/start.o
 .rela.rodata.ax88179_eth_ops
                0x00000000002f8760       0x90 arch/arm/cpu/armv8/start.o
 .rela.rodata.mcs7830_eth_ops
                0x00000000002f87f0       0x90 arch/arm/cpu/armv8/start.o
 .rela.rodata.smsc95xx_eth_ops
                0x00000000002f8880       0xa8 arch/arm/cpu/armv8/start.o
 .rela.rodata.r8152_eth_ops
                0x00000000002f8928       0xa8 arch/arm/cpu/armv8/start.o
 .rela.u_boot_list_2_driver_2_asix_eth
                0x00000000002f89d0       0x48 arch/arm/cpu/armv8/start.o
 .rela.u_boot_list_2_usb_driver_entry_2_asix_eth
                0x00000000002f8a18       0x30 arch/arm/cpu/armv8/start.o
 .rela.u_boot_list_2_driver_2_ax88179_eth
                0x00000000002f8a48       0x48 arch/arm/cpu/armv8/start.o
 .rela.u_boot_list_2_usb_driver_entry_2_ax88179_eth
                0x00000000002f8a90       0x30 arch/arm/cpu/armv8/start.o
 .rela.u_boot_list_2_driver_2_mcs7830_eth
                0x00000000002f8ac0       0x48 arch/arm/cpu/armv8/start.o
 .rela.u_boot_list_2_usb_driver_entry_2_mcs7830_eth
                0x00000000002f8b08       0x30 arch/arm/cpu/armv8/start.o
 .rela.u_boot_list_2_driver_2_smsc95xx_eth
                0x00000000002f8b38       0x48 arch/arm/cpu/armv8/start.o
 .rela.u_boot_list_2_usb_driver_entry_2_smsc95xx_eth
                0x00000000002f8b80       0x30 arch/arm/cpu/armv8/start.o
 .rela.u_boot_list_2_driver_2_r8152_eth
                0x00000000002f8bb0       0x48 arch/arm/cpu/armv8/start.o
 .rela.u_boot_list_2_usb_driver_entry_2_r8152_eth
                0x00000000002f8bf8       0x30 arch/arm/cpu/armv8/start.o
 .rela.rodata.cmd_dispatch_info
                0x00000000002f8c28      0x210 arch/arm/cpu/armv8/start.o
 .rela.rodata.getvar_table
                0x00000000002f8e38      0x2a0 arch/arm/cpu/armv8/start.o
 .rela.data.composite_driver
                0x00000000002f90d8       0xa8 arch/arm/cpu/armv8/start.o
 .rela.data.g_dnl_composite_strings
                0x00000000002f9180       0x18 arch/arm/cpu/armv8/start.o
 .rela.data.g_dnl_driver
                0x00000000002f9198       0x60 arch/arm/cpu/armv8/start.o
 .rela.data.g_dnl_string_defs
                0x00000000002f91f8       0x48 arch/arm/cpu/armv8/start.o
 .rela.data.g_dnl_string_tab
                0x00000000002f9240       0x18 arch/arm/cpu/armv8/start.o
 .rela.u_boot_list_2_env_clbk_2_serialno
                0x00000000002f9258       0x30 arch/arm/cpu/armv8/start.o
 .rela.data.fsg_fs_function
                0x00000000002f9288       0x48 arch/arm/cpu/armv8/start.o
 .rela.data.fsg_hs_function
                0x00000000002f92d0       0x48 arch/arm/cpu/armv8/start.o
 .rela.data.fsg_strings
                0x00000000002f9318       0x18 arch/arm/cpu/armv8/start.o
 .rela.data.fsg_strings_array
                0x00000000002f9330       0x18 arch/arm/cpu/armv8/start.o
 .rela.data.fsg_stringtab
                0x00000000002f9348       0x18 arch/arm/cpu/armv8/start.o
 .rela.data.rkusb_fs_function
                0x00000000002f9360       0x48 arch/arm/cpu/armv8/start.o
 .rela.data.rkusb_hs_function
                0x00000000002f93a8       0x48 arch/arm/cpu/armv8/start.o
 .rela.data.rkusb_ss_function
                0x00000000002f93f0       0x78 arch/arm/cpu/armv8/start.o
 .rela.u_boot_list_2_g_dnl_bind_callbacks_2___usb_function_name_rkusb_ums_dnl
                0x00000000002f9468       0x30 arch/arm/cpu/armv8/start.o
 .rela.u_boot_list_2_g_dnl_bind_callbacks_2___usb_function_name_usb_dnl_ums
                0x00000000002f9498       0x30 arch/arm/cpu/armv8/start.o
 .rela.data.fastboot_string_defs
                0x00000000002f94c8       0x18 arch/arm/cpu/armv8/start.o
 .rela.data.fastboot_strings
                0x00000000002f94e0       0x18 arch/arm/cpu/armv8/start.o
 .rela.data.fb_fs_function
                0x00000000002f94f8       0x48 arch/arm/cpu/armv8/start.o
 .rela.data.fb_hs_function
                0x00000000002f9540       0x48 arch/arm/cpu/armv8/start.o
 .rela.data.fb_ss_function
                0x00000000002f9588       0x78 arch/arm/cpu/armv8/start.o
 .rela.data.stringtab_fastboot
                0x00000000002f9600       0x18 arch/arm/cpu/armv8/start.o
 .rela.u_boot_list_2_g_dnl_bind_callbacks_2___usb_function_name_usb_dnl_fastboot
                0x00000000002f9618       0x30 arch/arm/cpu/armv8/start.o
 .rela.data.udc_list
                0x00000000002f9648       0x30 arch/arm/cpu/armv8/start.o
 .rela.u_boot_list_2_uclass_2_usb_gadget_generic
                0x00000000002f9678       0x18 arch/arm/cpu/armv8/start.o
 .rela.rodata.cc_to_string
                0x00000000002f9690      0x180 arch/arm/cpu/armv8/start.o
 .rela.rodata.ohci_usb_ids
                0x00000000002f9810       0x18 arch/arm/cpu/armv8/start.o
 .rela.rodata.CSWTCH.91
                0x00000000002f9828       0x48 arch/arm/cpu/armv8/start.o
 .rela.rodata.ehci_usb_ids
                0x00000000002f9870       0x18 arch/arm/cpu/armv8/start.o
 .rela.rodata.CSWTCH.31
                0x00000000002f9888       0x48 arch/arm/cpu/armv8/start.o
 .rela.rodata.xhci_dwc3_ids
                0x00000000002f98d0       0x18 arch/arm/cpu/armv8/start.o
 .rela.u_boot_list_2_driver_2_usb_dev_generic_drv
                0x00000000002f98e8       0x18 arch/arm/cpu/armv8/start.o
 .rela.u_boot_list_2_uclass_2_usb
                0x00000000002f9900       0x60 arch/arm/cpu/armv8/start.o
 .rela.u_boot_list_2_uclass_2_usb_dev_generic
                0x00000000002f9960       0x18 arch/arm/cpu/armv8/start.o
 .rela.data.ohci_usb_ops
                0x00000000002f9978       0x90 arch/arm/cpu/armv8/start.o
 .rela.u_boot_list_2_driver_2_ohci_generic
                0x00000000002f9a08       0x78 arch/arm/cpu/armv8/start.o
 .rela.data.ehci_usb_ops
                0x00000000002f9a80       0xa8 arch/arm/cpu/armv8/start.o
 .rela.u_boot_list_2_driver_2_ehci_generic
                0x00000000002f9b28       0x78 arch/arm/cpu/armv8/start.o
 .rela.data.xhci_usb_ops
                0x00000000002f9ba0       0x90 arch/arm/cpu/armv8/start.o
 .rela.u_boot_list_2_driver_2_xhci_dwc3
                0x00000000002f9c30       0x78 arch/arm/cpu/armv8/start.o
 .rela.data.env_htab
                0x00000000002f9ca8       0x18 arch/arm/cpu/armv8/start.o
 .rela.u_boot_list_2_env_clbk_2_callbacks
                0x00000000002f9cc0       0x30 arch/arm/cpu/armv8/start.o
 .rela.u_boot_list_2_env_clbk_2_flags
                0x00000000002f9cf0       0x30 arch/arm/cpu/armv8/start.o
 .rela.u_boot_list_2_env_driver_2_nowhere
                0x00000000002f9d20       0x30 arch/arm/cpu/armv8/start.o
 .rela.data.fstypes
                0x00000000002f9d50      0x300 arch/arm/cpu/armv8/start.o
 .rela.rodata.fdt_errtable
                0x00000000002fa050      0x198 arch/arm/cpu/armv8/start.o
 .rela.rodata.CSWTCH.5
                0x00000000002fa1e8       0x90 arch/arm/cpu/armv8/start.o
 .rela.u_boot_list_2_cmd_2_sysmem_dump
                0x00000000002fa278       0x60 arch/arm/cpu/armv8/start.o
 .rela.u_boot_list_2_cmd_2_sysmem_search
                0x00000000002fa2d8       0x60 arch/arm/cpu/armv8/start.o
 .rela.u_boot_list_2_cmd_2_bidram_dump
                0x00000000002fa338       0x60 arch/arm/cpu/armv8/start.o
 .rela.data.algorithm_data
                0x00000000002fa398       0x90 arch/arm/cpu/armv8/start.o
 .rela.u_boot_list_2_env_clbk_2_ethaddr
                0x00000000002fa428       0x30 arch/arm/cpu/armv8/start.o
 .rela.u_boot_list_2_uclass_2_ethernet
                0x00000000002fa458       0x78 arch/arm/cpu/armv8/start.o
 .rela.u_boot_list_2_env_clbk_2_bootfile
                0x00000000002fa4d0       0x30 arch/arm/cpu/armv8/start.o
 .rela.u_boot_list_2_env_clbk_2_gatewayip
                0x00000000002fa500       0x30 arch/arm/cpu/armv8/start.o
 .rela.u_boot_list_2_env_clbk_2_ipaddr
                0x00000000002fa530       0x30 arch/arm/cpu/armv8/start.o
 .rela.u_boot_list_2_env_clbk_2_netmask
                0x00000000002fa560       0x30 arch/arm/cpu/armv8/start.o
 .rela.u_boot_list_2_env_clbk_2_nvlan
                0x00000000002fa590       0x30 arch/arm/cpu/armv8/start.o
 .rela.u_boot_list_2_env_clbk_2_serverip
                0x00000000002fa5c0       0x30 arch/arm/cpu/armv8/start.o
 .rela.u_boot_list_2_env_clbk_2_vlan
                0x00000000002fa5f0       0x30 arch/arm/cpu/armv8/start.o
 .rela.rodata.cmd_groups
                0x00000000002fa620       0xa8 arch/arm/cpu/armv8/start.o
 .rela.rodata.cmd_grp_name
                0x00000000002fa6c8       0xf0 arch/arm/cpu/armv8/start.o
 .rela.rodata.cmd_grp_boot
                0x00000000002fa7b8       0x30 arch/arm/cpu/armv8/start.o
 .rela.rodata.cmd_grp_download
                0x00000000002fa7e8       0x30 arch/arm/cpu/armv8/start.o
 .rela.rodata.cmd_grp_display
                0x00000000002fa818       0x30 arch/arm/cpu/armv8/start.o
 .rela.rodata.cmd_grp_misc
                0x00000000002fa848       0x30 arch/arm/cpu/armv8/start.o
 .rela.rodata.cmd_grp_power
                0x00000000002fa878       0x30 arch/arm/cpu/armv8/start.o
 .rela.rodata.cmd_grp_storage
                0x00000000002fa8a8       0x30 arch/arm/cpu/armv8/start.o
 .rela.u_boot_list_2_cmd_2_rktest
                0x00000000002fa8d8       0x48 arch/arm/cpu/armv8/start.o
 .rela.data.sub_cmd
                0x00000000002fa920      0x960 arch/arm/cpu/armv8/start.o
 .rela.data.cmd_grp_net
                0x00000000002fb280       0x30 arch/arm/cpu/armv8/start.o
 .rela.data.test_commands
                0x00000000002fb2b0      0x180 arch/arm/cpu/armv8/start.o
 .rela.u_boot_list_2_cmd_2_dm
                0x00000000002fb430       0x60 arch/arm/cpu/armv8/start.o

.rel_dyn_end    0x00000000002fb490        0x0
 *(.__rel_dyn_end)
 .__rel_dyn_end
                0x00000000002fb490        0x0 arch/arm/lib/built-in.o
                0x00000000002fb490                _end = .
                0x00000000002fb490                . = ALIGN (0x8)

.bss_start      0x00000000002fb490        0x0
 *(.__bss_start)
 .__bss_start   0x00000000002fb490        0x0 arch/arm/lib/built-in.o
                0x00000000002fb490                __bss_start

.bss            0x00000000002fb4c0    0x86c88
 *(.bss*)
 .bss.params    0x00000000002fb4c0        0x8 arch/arm/lib/built-in.o
 .bss.bcb_recovery_msg
                0x00000000002fb4c8        0x4 arch/arm/mach-rockchip/built-in.o
 .bss.appended.8627
                0x00000000002fb4cc        0x4 arch/arm/mach-rockchip/built-in.o
 .bss.dev_desc  0x00000000002fb4d0        0x8 arch/arm/mach-rockchip/built-in.o
 .bss.done.8617
                0x00000000002fb4d8        0x4 arch/arm/mach-rockchip/built-in.o
 *fill*         0x00000000002fb4dc        0x4 
 .bss._flash_read
                0x00000000002fb4e0        0x8 arch/arm/mach-rockchip/built-in.o
 .bss._flash_write
                0x00000000002fb4e8        0x8 arch/arm/mach-rockchip/built-in.o
 .bss.bootdev_type
                0x00000000002fb4f0        0x4 arch/arm/mach-rockchip/built-in.o
 *fill*         0x00000000002fb4f4        0x4 
 .bss.vendor_info
                0x00000000002fb4f8       0x28 arch/arm/mach-rockchip/built-in.o
 .bss.data.5961
                0x00000000002fb520      0x400 cmd/built-in.o
 .bss.working_fdt
                0x00000000002fb920        0x8 cmd/built-in.o
                0x00000000002fb920                working_fdt
 .bss.base_address
                0x00000000002fb928        0x8 cmd/built-in.o
 .bss.dp_last_addr
                0x00000000002fb930        0x8 cmd/built-in.o
 .bss.dp_last_size
                0x00000000002fb938        0x8 cmd/built-in.o
 .bss.mm_last_addr
                0x00000000002fb940        0x8 cmd/built-in.o
 .bss.mm_last_size
                0x00000000002fb948        0x8 cmd/built-in.o
 .bss.last_addr_hi
                0x00000000002fb950        0x8 cmd/built-in.o
 .bss.last_addr_lo
                0x00000000002fb958        0x8 cmd/built-in.o
 .bss.last_data
                0x00000000002fb960        0x8 cmd/built-in.o
 .bss.last_mask
                0x00000000002fb968        0x4 cmd/built-in.o
 .bss.last_op   0x00000000002fb96c        0x4 cmd/built-in.o
 .bss.last_reg_hi
                0x00000000002fb970        0x8 cmd/built-in.o
 .bss.last_reg_lo
                0x00000000002fb978        0x8 cmd/built-in.o
 .bss.last_devad_hi
                0x00000000002fb980        0x4 cmd/built-in.o
 .bss.last_devad_lo
                0x00000000002fb984        0x4 cmd/built-in.o
 .bss.temp_original_part
                0x00000000002fb988        0x1 cmd/built-in.o
                0x00000000002fb988                temp_original_part
 *fill*         0x00000000002fb989        0x7 
 .bss.do_getfile
                0x00000000002fb990        0x8 cmd/built-in.o
 .bss.fs_argv   0x00000000002fb998       0x28 cmd/built-in.o
 .bss.is_pxe    0x00000000002fb9c0        0x1 cmd/built-in.o
 *fill*         0x00000000002fb9c1        0x7 
 .bss.g_rkusb   0x00000000002fb9c8        0x8 cmd/built-in.o
 .bss.rkusb     0x00000000002fb9d0       0x10 cmd/built-in.o
 .bss.flash     0x00000000002fb9e0        0x8 cmd/built-in.o
 .bss.ums       0x00000000002fb9e8        0x8 cmd/built-in.o
 .bss.ums_count
                0x00000000002fb9f0        0x4 cmd/built-in.o
 .bss.buf.6379  0x00000000002fb9f4       0x28 common/built-in.o
 .bss.do_repeat
                0x00000000002fba1c        0x4 common/built-in.o
 .bss.flag_repeat
                0x00000000002fba20        0x4 common/built-in.o
 *fill*         0x00000000002fba24        0x4 
 .bss.ifs       0x00000000002fba28        0x8 common/built-in.o
 .bss.last_return_code
                0x00000000002fba30        0x4 common/built-in.o
 .bss.map       0x00000000002fba34      0x100 common/built-in.o
 .bss.the_command.6179
                0x00000000002fbb34      0x401 common/built-in.o
 *fill*         0x00000000002fbf35        0x3 
 .bss.top_vars  0x00000000002fbf38        0x8 common/built-in.o
 .bss.stored_bootdelay
                0x00000000002fbf40        0x4 common/built-in.o
 *fill*         0x00000000002fbf44        0x4 
 .bss.monitor_flash_len
                0x00000000002fbf48        0x8 common/built-in.o
                0x00000000002fbf48                monitor_flash_len
 .bss.images    0x00000000002fbf50      0x380 common/built-in.o
                0x00000000002fbf50                images
 .bss.current_mii
                0x00000000002fc2d0        0x8 common/built-in.o
 .bss.mii_devs  0x00000000002fc2d8       0x10 common/built-in.o
 .bss.usb_started
                0x00000000002fc2e8        0x1 common/built-in.o
                0x00000000002fc2e8                usb_started
 *fill*         0x00000000002fc2e9        0x3 
 .bss.running.8248
                0x00000000002fc2ec        0x4 common/built-in.o
 .bss.CBWTag    0x00000000002fc2f0        0x4 common/built-in.o
 *fill*         0x00000000002fc2f4        0xc 
 .bss.usb_ccb   0x00000000002fc300      0x100 common/built-in.o
 .bss.usb_max_devs
                0x00000000002fc400        0x4 common/built-in.o
 .bss.console_buffer
                0x00000000002fc404      0x401 common/built-in.o
                0x00000000002fc404                console_buffer
 *fill*         0x00000000002fc805        0x3 
 .bss.hist_add_idx
                0x00000000002fc808        0x4 common/built-in.o
 .bss.hist_lines
                0x00000000002fc80c     0x5014 common/built-in.o
 .bss.hist_list
                0x0000000000301820       0xa0 common/built-in.o
 .bss.hist_max  0x00000000003018c0        0x4 common/built-in.o
 .bss.hist_num  0x00000000003018c4        0x4 common/built-in.o
 .bss.initted.5973
                0x00000000003018c8        0x4 common/built-in.o
 .bss.cd_count  0x00000000003018cc        0xc common/built-in.o
                0x00000000003018cc                cd_count
 .bss.console_devices
                0x00000000003018d8       0x18 common/built-in.o
                0x00000000003018d8                console_devices
 .bss.ctrlc_disabled
                0x00000000003018f0        0x4 common/built-in.o
 .bss.ctrlc_was_pressed
                0x00000000003018f4        0x4 common/built-in.o
 .bss.tstcdev   0x00000000003018f8        0x8 common/built-in.o
 .bss.current_mallinfo
                0x0000000000301900       0x28 common/built-in.o
 .bss.max_sbrked_mem
                0x0000000000301928        0x8 common/built-in.o
 .bss.max_total_mem
                0x0000000000301930        0x8 common/built-in.o
 .bss.mem_malloc_brk
                0x0000000000301938        0x8 common/built-in.o
                0x0000000000301938                mem_malloc_brk
 .bss.mem_malloc_end
                0x0000000000301940        0x8 common/built-in.o
                0x0000000000301940                mem_malloc_end
 .bss.mem_malloc_start
                0x0000000000301948        0x8 common/built-in.o
                0x0000000000301948                mem_malloc_start
 .bss.top_pad   0x0000000000301950        0x8 common/built-in.o
 .bss.andr_tmp_str
                0x0000000000301958      0x201 common/built-in.o
 *fill*         0x0000000000301b59        0x3 
 .bss.android_kernel_comp_type
                0x0000000000301b5c        0x4 common/built-in.o
 .bss.rsv_done.6693
                0x0000000000301b60        0x4 common/built-in.o
 .bss.rsv_done.6714
                0x0000000000301b64        0x4 common/built-in.o
 .bss.devs      0x0000000000301b68       0x78 common/built-in.o
 .bss.stdio_devices
                0x0000000000301be0       0x18 common/built-in.o
                0x0000000000301be0                stdio_devices
 .bss.timer     0x0000000000301bf8        0x8 common/built-in.o
 .bss.tmp_buf   0x0000000000301c00      0x400 common/built-in.o
 .bss.tmp_buf.5938
                0x0000000000302000      0x200 common/built-in.o
 .bss.gpt_head.6633
                0x0000000000302200        0x8 disk/built-in.o
 .bss.gpt_pte.6632
                0x0000000000302208        0x8 disk/built-in.o
 .bss.name.6577
                0x0000000000302210       0x25 disk/built-in.o
 *fill*         0x0000000000302235        0x3 
 .bss.of_aliases
                0x0000000000302238        0x8 drivers/built-in.o
 .bss.of_chosen
                0x0000000000302240        0x8 drivers/built-in.o
 .bss.of_stdout
                0x0000000000302248        0x8 drivers/built-in.o
 .bss.of_stdout_options
                0x0000000000302250        0x8 drivers/built-in.o
 .bss.gicc_save
                0x0000000000302258        0x8 drivers/built-in.o
 .bss.gicd_save
                0x0000000000302260      0xa7c drivers/built-in.o
 .bss.intr_setup
                0x0000000000302cdc        0x1 drivers/built-in.o
 *fill*         0x0000000000302cdd        0x3 
 .bss.irq_desc  0x0000000000302ce0     0x2100 drivers/built-in.o
 .bss.irqchip   0x0000000000304de0       0x50 drivers/built-in.o
 .bss.gpio_alias
                0x0000000000304e30       0x28 drivers/built-in.o
 .bss.invoke_psci_fn
                0x0000000000304e58        0x8 drivers/built-in.o
                0x0000000000304e58                invoke_psci_fn
 .bss.init.7542
                0x0000000000304e60        0x1 drivers/built-in.o
 *fill*         0x0000000000304e61        0x3 
 .bss.initialized.7851
                0x0000000000304e64        0x4 drivers/built-in.o
 .bss.initialized.8163
                0x0000000000304e68        0x4 drivers/built-in.o
 .bss.mmc_ext_csd
                0x0000000000304e6c      0x200 drivers/built-in.o
 *fill*         0x000000000030506c        0x4 
 .bss.aligned_buffer
                0x0000000000305070        0x8 drivers/built-in.o
                0x0000000000305070                aligned_buffer
 .bss.__print_once.9415
                0x0000000000305078        0x1 drivers/built-in.o
 *fill*         0x0000000000305079        0x3 
 .bss.base_parameter
                0x000000000030507c    0x483c8 drivers/built-in.o
 .bss.crc32_table
                0x000000000034d444      0x400 drivers/built-in.o
 *fill*         0x000000000034d844        0x4 
 .bss.cubic_lut_memory_start
                0x000000000034d848        0x8 drivers/built-in.o
 .bss.get_plane_mask_from_dts.9658
                0x000000000034d850        0x1 drivers/built-in.o
 *fill*         0x000000000034d851        0x7 
 .bss.memory_end
                0x000000000034d858        0x8 drivers/built-in.o
 .bss.memory_start
                0x000000000034d860        0x8 drivers/built-in.o
 .bss.rockchip_vop2
                0x000000000034d868        0x8 drivers/built-in.o
 .bss.vop_fix_dts.9058
                0x000000000034d870        0x1 drivers/built-in.o
 *fill*         0x000000000034d871        0x3 
 .bss.gpio.7983
                0x000000000034d874        0x4 drivers/gpio/built-in.o
 .bss.count.8586
                0x000000000034d878        0x8 drivers/power/built-in.o
 .bss.timer_initialized.8634
                0x000000000034d880        0x4 drivers/power/built-in.o
 .bss.old_cap.8069
                0x000000000034d884        0x4 drivers/power/fuel_gauge/built-in.o
 .bss.seconds.8257
                0x000000000034d888        0x8 drivers/power/fuel_gauge/built-in.o
 .bss.__warned.8658
                0x000000000034d890        0x1 drivers/usb/dwc3/built-in.o
 .bss.__warned.8683
                0x000000000034d891        0x1 drivers/usb/dwc3/built-in.o
 .bss.__warned.8898
                0x000000000034d892        0x1 drivers/usb/dwc3/built-in.o
 .bss.__warned.8956
                0x000000000034d893        0x1 drivers/usb/dwc3/built-in.o
 .bss.__warned.8979
                0x000000000034d894        0x1 drivers/usb/dwc3/built-in.o
 .bss.__warned.8815
                0x000000000034d895        0x1 drivers/usb/dwc3/built-in.o
 .bss.__warned.8829
                0x000000000034d896        0x1 drivers/usb/dwc3/built-in.o
 *fill*         0x000000000034d897        0x1 
 .bss.epnum     0x000000000034d898        0x4 drivers/usb/gadget/built-in.o
 *fill*         0x000000000034d89c        0x4 
 .bss.composite
                0x000000000034d8a0        0x8 drivers/usb/gadget/built-in.o
 .bss.g_dnl_detach_request
                0x000000000034d8a8        0x1 drivers/usb/gadget/built-in.o
 .bss.g_dnl_serial
                0x000000000034d8a9      0x100 drivers/usb/gadget/built-in.o
 *fill*         0x000000000034d9a9        0x3 
 .bss.rkusb_rst_code
                0x000000000034d9ac        0x4 drivers/usb/gadget/built-in.o
 .bss.state.8276
                0x000000000034d9b0        0x4 drivers/usb/gadget/built-in.o
 *fill*         0x000000000034d9b4        0x4 
 .bss.the_fsg_common
                0x000000000034d9b8        0x8 drivers/usb/gadget/built-in.o
 .bss.ums       0x000000000034d9c0        0x8 drivers/usb/gadget/built-in.o
 .bss.ums_count
                0x000000000034d9c8        0x4 drivers/usb/gadget/built-in.o
 .bss.unknown.10566
                0x000000000034d9cc       0x10 drivers/usb/gadget/built-in.o
 .bss.download_bytes
                0x000000000034d9dc        0x4 drivers/usb/gadget/built-in.o
 .bss.download_size
                0x000000000034d9e0        0x4 drivers/usb/gadget/built-in.o
 *fill*         0x000000000034d9e4        0x4 
 .bss.fastboot_func
                0x000000000034d9e8        0x8 drivers/usb/gadget/built-in.o
 .bss.intthread_wakeup_needed
                0x000000000034d9f0        0x4 drivers/usb/gadget/built-in.o
 .bss.start_upload
                0x000000000034d9f4        0x1 drivers/usb/gadget/built-in.o
 *fill*         0x000000000034d9f5        0x3 
 .bss.state.9220
                0x000000000034d9f8        0x4 drivers/usb/gadget/built-in.o
 .bss.upload_bytes
                0x000000000034d9fc        0x4 drivers/usb/gadget/built-in.o
 .bss.upload_size
                0x000000000034da00        0x4 drivers/usb/gadget/built-in.o
 .bss.asynch_allowed
                0x000000000034da04        0x1 drivers/usb/host/built-in.o
 *fill*         0x000000000034da05        0x3 
 .bss.callback_list
                0x000000000034da08        0x8 env/built-in.o
 .bss.flags_list
                0x000000000034da10        0x8 env/built-in.o
 .bss.fs_dev_desc
                0x000000000034da18        0x8 fs/built-in.o
 .bss.fs_dev_part
                0x000000000034da20        0x4 fs/built-in.o
 *fill*         0x000000000034da24        0x4 
 .bss.fs_partition
                0x000000000034da28       0x88 fs/built-in.o
 .bss.fs_type   0x000000000034dab0        0x4 fs/built-in.o
 *fill*         0x000000000034dab4        0x4 
 .bss.ext_fs    0x000000000034dab8       0x68 fs/built-in.o
                0x000000000034dab8                ext_fs
 .bss.ext4fs_file
                0x000000000034db20        0x8 fs/built-in.o
                0x000000000034db20                ext4fs_file
 .bss.ext4fs_indir1_block
                0x000000000034db28        0x8 fs/built-in.o
                0x000000000034db28                ext4fs_indir1_block
 .bss.ext4fs_indir1_size
                0x000000000034db30        0x4 fs/built-in.o
                0x000000000034db30                ext4fs_indir1_size
 *fill*         0x000000000034db34        0x4 
 .bss.ext4fs_indir2_block
                0x000000000034db38        0x8 fs/built-in.o
                0x000000000034db38                ext4fs_indir2_block
 .bss.ext4fs_indir2_size
                0x000000000034db40        0x4 fs/built-in.o
                0x000000000034db40                ext4fs_indir2_size
 *fill*         0x000000000034db44        0x4 
 .bss.ext4fs_indir3_block
                0x000000000034db48        0x8 fs/built-in.o
                0x000000000034db48                ext4fs_indir3_block
 .bss.ext4fs_indir3_size
                0x000000000034db50        0x4 fs/built-in.o
                0x000000000034db50                ext4fs_indir3_size
 *fill*         0x000000000034db54        0x4 
 .bss.ext4fs_root
                0x000000000034db58        0x8 fs/built-in.o
                0x000000000034db58                ext4fs_root
 .bss.symlinknest
                0x000000000034db60        0x4 fs/built-in.o
 *fill*         0x000000000034db64        0x4 
 .bss.part_info
                0x000000000034db68        0x8 fs/built-in.o
 .bss.part_offset
                0x000000000034db70        0x8 fs/built-in.o
                0x000000000034db70                part_offset
 .bss.cur_dev   0x000000000034db78        0x8 fs/built-in.o
 .bss.cur_part_info
                0x000000000034db80       0x88 fs/built-in.o
 .bss.dir_curclust
                0x000000000034dc08        0x4 fs/built-in.o
 *fill*         0x000000000034dc0c       0x34 
 .bss.do_fat_read_at_block
                0x000000000034dc40    0x10000 fs/built-in.o
                0x000000000034dc40                do_fat_read_at_block
 .bss.empty_dentptr
                0x000000000035dc40        0x8 fs/built-in.o
 *fill*         0x000000000035dc48       0x38 
 .bss.get_contents_vfatname_block
                0x000000000035dc80    0x10000 fs/built-in.o
                0x000000000035dc80                get_contents_vfatname_block
 .bss.get_dentfromdir_block
                0x000000000036dc80    0x10000 fs/built-in.o
                0x000000000036dc80                get_dentfromdir_block
 .bss.num_of_fats
                0x000000000037dc80        0x1 fs/built-in.o
 *fill*         0x000000000037dc81        0x3 
 .bss.total_sector
                0x000000000037dc84        0x4 fs/built-in.o
 .bss.depth.6131
                0x000000000037dc88        0x4 lib/built-in.o
 *fill*         0x000000000037dc8c        0x4 
 .bss.alloc_flags
                0x000000000037dc90      0x320 lib/built-in.o
                0x000000000037dc90                alloc_flags
 .bss.my_count  0x000000000037dfb0        0x4 lib/built-in.o
                0x000000000037dfb0                my_count
 *fill*         0x000000000037dfb4        0x4 
 .bss.my_flag   0x000000000037dfb8        0x8 lib/built-in.o
                0x000000000037dfb8                my_flag
 .bss.my_mem_start
                0x000000000037dfc0        0x8 lib/built-in.o
                0x000000000037dfc0                my_mem_start
 .bss.optee_is_init
                0x000000000037dfc8        0x1 lib/built-in.o
 *fill*         0x000000000037dfc9        0x1 
 .bss.global_block_count
                0x000000000037dfca        0x2 lib/built-in.o
                0x000000000037dfca                global_block_count
 .bss.rkss_version
                0x000000000037dfcc        0x4 lib/built-in.o
 .bss.dev_desc  0x000000000037dfd0       0x10 lib/built-in.o
 .bss.dir_cache
                0x000000000037dfe0      0xabc lib/built-in.o
 .bss.dir_num   0x000000000037ea9c        0x8 lib/built-in.o
 .bss.dir_seek  0x000000000037eaa4        0x8 lib/built-in.o
 .bss.file_seek
                0x000000000037eaac        0x8 lib/built-in.o
 *fill*         0x000000000037eab4        0x4 
 .bss.part_info
                0x000000000037eab8      0x110 lib/built-in.o
 .bss.rkss_buffer
                0x000000000037ebc8       0x40 lib/built-in.o
 .bss.rkss_info
                0x000000000037ec08      0x140 lib/built-in.o
 .bss.last_unlock_challenge
                0x000000000037ed48       0x10 lib/built-in.o
 .bss.last_unlock_challenge_set
                0x000000000037ed58        0x1 lib/built-in.o
 *fill*         0x000000000037ed59        0x3 
 .bss.errno     0x000000000037ed5c        0x4 lib/built-in.o
                0x000000000037ed5c                errno
 .bss.___strtok
                0x000000000037ed60        0x8 lib/built-in.o
                0x000000000037ed60                ___strtok
 .bss.local.6732
                0x000000000037ed68       0x16 lib/built-in.o
 *fill*         0x000000000037ed7e        0x2 
 .bss.arp_tx_packet
                0x000000000037ed80        0x8 net/built-in.o
 .bss.arp_tx_packet_buf
                0x000000000037ed88      0x640 net/built-in.o
 .bss.arp_wait_packet_ethaddr
                0x000000000037f3c8        0x8 net/built-in.o
                0x000000000037f3c8                arp_wait_packet_ethaddr
 .bss.arp_wait_timer_start
                0x000000000037f3d0        0x8 net/built-in.o
                0x000000000037f3d0                arp_wait_timer_start
 .bss.arp_wait_try
                0x000000000037f3d8        0x4 net/built-in.o
                0x000000000037f3d8                arp_wait_try
 .bss.arp_wait_tx_packet_size
                0x000000000037f3dc        0x4 net/built-in.o
                0x000000000037f3dc                arp_wait_tx_packet_size
 .bss.net_arp_wait_packet_ip
                0x000000000037f3e0        0x4 net/built-in.o
                0x000000000037f3e0                net_arp_wait_packet_ip
 .bss.net_arp_wait_reply_ip
                0x000000000037f3e4        0x4 net/built-in.o
 .bss.bootp_ids
                0x000000000037f3e8       0x10 net/built-in.o
                0x000000000037f3e8                bootp_ids
 .bss.bootp_num_ids
                0x000000000037f3f8        0x4 net/built-in.o
                0x000000000037f3f8                bootp_num_ids
 *fill*         0x000000000037f3fc        0x4 
 .bss.bootp_start
                0x000000000037f400        0x8 net/built-in.o
                0x000000000037f400                bootp_start
 .bss.bootp_timeout
                0x000000000037f408        0x8 net/built-in.o
                0x000000000037f408                bootp_timeout
 .bss.bootp_try
                0x000000000037f410        0x4 net/built-in.o
                0x000000000037f410                bootp_try
 .bss.dhcp_leasetime
                0x000000000037f414        0x4 net/built-in.o
 .bss.dhcp_option_overload
                0x000000000037f418        0x1 net/built-in.o
 *fill*         0x000000000037f419        0x3 
 .bss.dhcp_server_ip
                0x000000000037f41c        0x4 net/built-in.o
 .bss.dhcp_state
                0x000000000037f420        0x4 net/built-in.o
 .bss.net_hostname
                0x000000000037f424       0x20 net/built-in.o
                0x000000000037f424                net_hostname
 .bss.net_nis_domain
                0x000000000037f444       0x20 net/built-in.o
                0x000000000037f444                net_nis_domain
 .bss.net_root_path
                0x000000000037f464       0x40 net/built-in.o
                0x000000000037f464                net_root_path
 *fill*         0x000000000037f4a4        0x4 
 .bss.time_taken_max
                0x000000000037f4a8        0x8 net/built-in.o
 .bss.eth_errno
                0x000000000037f4b0        0x4 net/built-in.o
 *fill*         0x000000000037f4b4        0x4 
 .bss.act.7803  0x000000000037f4b8        0x8 net/built-in.o
 .bss.env_changed_id.7804
                0x000000000037f4c0        0x4 net/built-in.o
 *fill*         0x000000000037f4c4        0x4 
 .bss.first_failed.7798
                0x000000000037f4c8        0x8 net/built-in.o
 .bss.arp_packet_handler
                0x000000000037f4d0        0x8 net/built-in.o
 .bss.net_boot_file_expected_size_in_blocks
                0x000000000037f4d8        0x4 net/built-in.o
                0x000000000037f4d8                net_boot_file_expected_size_in_blocks
 .bss.net_boot_file_name
                0x000000000037f4dc      0x400 net/built-in.o
                0x000000000037f4dc                net_boot_file_name
 .bss.net_boot_file_size
                0x000000000037f8dc        0x4 net/built-in.o
                0x000000000037f8dc                net_boot_file_size
 .bss.net_dev_exists
                0x000000000037f8e0        0x4 net/built-in.o
 .bss.net_dns_server
                0x000000000037f8e4        0x4 net/built-in.o
                0x000000000037f8e4                net_dns_server
 .bss.net_ethaddr
                0x000000000037f8e8        0x6 net/built-in.o
                0x000000000037f8e8                net_ethaddr
 *fill*         0x000000000037f8ee        0x2 
 .bss.net_gateway
                0x000000000037f8f0        0x4 net/built-in.o
                0x000000000037f8f0                net_gateway
 .bss.net_ip    0x000000000037f8f4        0x4 net/built-in.o
                0x000000000037f8f4                net_ip
 .bss.net_ip_id
                0x000000000037f8f8        0x4 net/built-in.o
 .bss.net_netmask
                0x000000000037f8fc        0x4 net/built-in.o
                0x000000000037f8fc                net_netmask
 .bss.net_pkt_buf
                0x000000000037f900     0x1e40 net/built-in.o
 .bss.net_restart_wrap
                0x0000000000381740        0x4 net/built-in.o
                0x0000000000381740                net_restart_wrap
 .bss.net_restarted
                0x0000000000381744        0x4 net/built-in.o
 .bss.net_rx_packet
                0x0000000000381748        0x8 net/built-in.o
                0x0000000000381748                net_rx_packet
 .bss.net_rx_packet_len
                0x0000000000381750        0x4 net/built-in.o
                0x0000000000381750                net_rx_packet_len
 *fill*         0x0000000000381754        0x4 
 .bss.net_rx_packets
                0x0000000000381758       0x20 net/built-in.o
                0x0000000000381758                net_rx_packets
 .bss.net_server_ethaddr
                0x0000000000381778        0x6 net/built-in.o
                0x0000000000381778                net_server_ethaddr
 *fill*         0x000000000038177e        0x2 
 .bss.net_server_ip
                0x0000000000381780        0x4 net/built-in.o
                0x0000000000381780                net_server_ip
 .bss.net_state
                0x0000000000381784        0x4 net/built-in.o
                0x0000000000381784                net_state
 .bss.net_try_count
                0x0000000000381788        0x4 net/built-in.o
 *fill*         0x000000000038178c        0x4 
 .bss.net_tx_packet
                0x0000000000381790        0x8 net/built-in.o
                0x0000000000381790                net_tx_packet
 .bss.time_delta
                0x0000000000381798        0x8 net/built-in.o
 .bss.time_handler
                0x00000000003817a0        0x8 net/built-in.o
 .bss.time_start
                0x00000000003817a8       0x10 net/built-in.o
 .bss.udp_packet_handler
                0x00000000003817b8        0x8 net/built-in.o
 .bss.dirfh     0x00000000003817c0       0x20 net/built-in.o
 .bss.filefh    0x00000000003817e0       0x40 net/built-in.o
 .bss.filefh3_length
                0x0000000000381820        0x4 net/built-in.o
 .bss.fs_mounted
                0x0000000000381824        0x4 net/built-in.o
 .bss.nfs_download_state
                0x0000000000381828        0x4 net/built-in.o
 *fill*         0x000000000038182c        0x4 
 .bss.nfs_filename
                0x0000000000381830        0x8 net/built-in.o
 .bss.nfs_len   0x0000000000381838        0x4 net/built-in.o
 .bss.nfs_our_port
                0x000000000038183c        0x4 net/built-in.o
 .bss.nfs_path  0x0000000000381840        0x8 net/built-in.o
 .bss.nfs_path_buff
                0x0000000000381848      0x800 net/built-in.o
 .bss.nfs_server_ip
                0x0000000000382048        0x4 net/built-in.o
 .bss.nfs_server_mount_port
                0x000000000038204c        0x4 net/built-in.o
 .bss.nfs_server_port
                0x0000000000382050        0x4 net/built-in.o
 .bss.nfs_state
                0x0000000000382054        0x4 net/built-in.o
 .bss.nfs_timeout_count
                0x0000000000382058        0x4 net/built-in.o
 *fill*         0x000000000038205c        0x4 
 .bss.rpc_id    0x0000000000382060        0x8 net/built-in.o
 .bss.net_ping_ip
                0x0000000000382068        0x4 net/built-in.o
                0x0000000000382068                net_ping_ip
 .bss.ping_seq_number
                0x000000000038206c        0x2 net/built-in.o
 .bss.default_filename
                0x000000000038206e        0xd net/built-in.o
 *fill*         0x000000000038207b        0x5 
 .bss.tftp_block_wrap
                0x0000000000382080        0x8 net/built-in.o
 .bss.tftp_block_wrap_offset
                0x0000000000382088        0x8 net/built-in.o
 .bss.tftp_cur_block
                0x0000000000382090        0x8 net/built-in.o
 .bss.tftp_filename
                0x0000000000382098       0x80 net/built-in.o
 .bss.tftp_our_port
                0x0000000000382118        0x4 net/built-in.o
 *fill*         0x000000000038211c        0x4 
 .bss.tftp_prev_block
                0x0000000000382120        0x8 net/built-in.o
 .bss.tftp_remote_ip
                0x0000000000382128        0x4 net/built-in.o
 .bss.tftp_remote_port
                0x000000000038212c        0x4 net/built-in.o
 .bss.tftp_state
                0x0000000000382130        0x4 net/built-in.o
 .bss.timeout_count
                0x0000000000382134        0x4 net/built-in.o
 .bss.irq_exit  0x0000000000382138        0x4 test/built-in.o
 *fill*         0x000000000038213c        0x4 
 .bss.seconds   0x0000000000382140        0x8 test/built-in.o
                0x0000000000382148                . = ALIGN (0x8)

.dynbss         0x0000000000382148        0x0
 .dynbss        0x0000000000382148        0x0 arch/arm/cpu/armv8/start.o

.bss_end        0x0000000000382148        0x0
 *(.__bss_end)
 .__bss_end     0x0000000000382148        0x0 arch/arm/lib/built-in.o
                0x0000000000382148                __bss_end

/DISCARD/
 *(.dynsym)
 *(.dynstr*)
 *(.dynamic*)
 *(.plt*)
 *(.interp*)
 *(.gnu*)
LOAD arch/arm/cpu/armv8/start.o
START GROUP
LOAD arch/arm/cpu/built-in.o
LOAD arch/arm/cpu/armv8/built-in.o
LOAD arch/arm/lib/built-in.o
LOAD arch/arm/mach-rockchip/built-in.o
LOAD board/rockchip/evb_rk3399/built-in.o
LOAD cmd/built-in.o
LOAD common/built-in.o
LOAD disk/built-in.o
LOAD drivers/built-in.o
LOAD drivers/cpu/built-in.o
LOAD drivers/dma/built-in.o
LOAD drivers/gpio/built-in.o
LOAD drivers/i2c/built-in.o
LOAD drivers/mtd/built-in.o
LOAD drivers/mtd/onenand/built-in.o
LOAD drivers/mtd/spi/built-in.o
LOAD drivers/net/built-in.o
LOAD drivers/net/phy/built-in.o
LOAD drivers/pci/built-in.o
LOAD drivers/power/built-in.o
LOAD drivers/power/battery/built-in.o
LOAD drivers/power/charge/built-in.o
LOAD drivers/power/domain/built-in.o
LOAD drivers/power/dvfs/built-in.o
LOAD drivers/power/fuel_gauge/built-in.o
LOAD drivers/power/io-domain/built-in.o
LOAD drivers/power/mfd/built-in.o
LOAD drivers/power/pmic/built-in.o
LOAD drivers/power/regulator/built-in.o
LOAD drivers/serial/built-in.o
LOAD drivers/spi/built-in.o
LOAD drivers/usb/cdns3/built-in.o
LOAD drivers/usb/common/built-in.o
LOAD drivers/usb/dwc3/built-in.o
LOAD drivers/usb/emul/built-in.o
LOAD drivers/usb/eth/built-in.o
LOAD drivers/usb/gadget/built-in.o
LOAD drivers/usb/gadget/udc/built-in.o
LOAD drivers/usb/host/built-in.o
LOAD drivers/usb/musb-new/built-in.o
LOAD drivers/usb/musb/built-in.o
LOAD drivers/usb/phy/built-in.o
LOAD drivers/usb/ulpi/built-in.o
LOAD env/built-in.o
LOAD fs/built-in.o
LOAD lib/built-in.o
LOAD net/built-in.o
LOAD test/built-in.o
LOAD test/dm/built-in.o
END GROUP
LOAD /usr/lib/gcc/aarch64-linux-gnu/8/libgcc.a
OUTPUT(u-boot elf64-littleaarch64)

.debug_line     0x0000000000000000    0xd8832
 .debug_line    0x0000000000000000       0xbd arch/arm/cpu/armv8/start.o
 .debug_line    0x00000000000000bd     0x2025 arch/arm/cpu/armv8/built-in.o
 .debug_line    0x00000000000020e2     0x193f arch/arm/lib/built-in.o
 .debug_line    0x0000000000003a21     0x67b7 arch/arm/mach-rockchip/built-in.o
 .debug_line    0x000000000000a1d8      0x555 board/rockchip/evb_rk3399/built-in.o
 .debug_line    0x000000000000a72d     0xf9f9 cmd/built-in.o
 .debug_line    0x000000000001a126    0x1fb09 common/built-in.o
 .debug_line    0x0000000000039c2f     0x3027 disk/built-in.o
 .debug_line    0x000000000003cc56    0x3b337 drivers/built-in.o
 .debug_line    0x0000000000077f8d     0x17f0 drivers/gpio/built-in.o
 .debug_line    0x000000000007977d     0x1326 drivers/i2c/built-in.o
 .debug_line    0x000000000007aaa3     0x1a95 drivers/mtd/built-in.o
 .debug_line    0x000000000007c538      0x401 drivers/mtd/spi/built-in.o
 .debug_line    0x000000000007c939     0x1a12 drivers/net/built-in.o
 .debug_line    0x000000000007e34b     0x13e9 drivers/net/phy/built-in.o
 .debug_line    0x000000000007f734     0x12e0 drivers/power/built-in.o
 .debug_line    0x0000000000080a14      0x4ef drivers/power/charge/built-in.o
 .debug_line    0x0000000000080f03     0x1c82 drivers/power/fuel_gauge/built-in.o
 .debug_line    0x0000000000082b85      0x96b drivers/power/io-domain/built-in.o
 .debug_line    0x00000000000834f0     0x1075 drivers/power/pmic/built-in.o
 .debug_line    0x0000000000084565     0x2a1f drivers/power/regulator/built-in.o
 .debug_line    0x0000000000086f84     0x1682 drivers/serial/built-in.o
 .debug_line    0x0000000000088606      0xa0a drivers/spi/built-in.o
 .debug_line    0x0000000000089010      0x345 drivers/usb/common/built-in.o
 .debug_line    0x0000000000089355     0x5f7c drivers/usb/dwc3/built-in.o
 .debug_line    0x000000000008f2d1     0x4bae drivers/usb/eth/built-in.o
 .debug_line    0x0000000000093e7f     0x88bd drivers/usb/gadget/built-in.o
 .debug_line    0x000000000009c73c      0x9db drivers/usb/gadget/udc/built-in.o
 .debug_line    0x000000000009d117     0x8da0 drivers/usb/host/built-in.o
 .debug_line    0x00000000000a5eb7     0x1aaf env/built-in.o
 .debug_line    0x00000000000a7966     0x5541 fs/built-in.o
 .debug_line    0x00000000000acea7    0x2376b lib/built-in.o
 .debug_line    0x00000000000d0612     0x5c59 net/built-in.o
 .debug_line    0x00000000000d626b     0x22a1 test/built-in.o
 .debug_line    0x00000000000d850c      0x326 test/dm/built-in.o

.debug_info     0x0000000000000000   0x38c1ed
 .debug_info    0x0000000000000000       0x2e arch/arm/cpu/armv8/start.o
 .debug_info    0x000000000000002e     0x788d arch/arm/cpu/armv8/built-in.o
 .debug_info    0x00000000000078bb     0xa120 arch/arm/lib/built-in.o
 .debug_info    0x00000000000119db    0x23691 arch/arm/mach-rockchip/built-in.o
 .debug_info    0x000000000003506c     0x21b3 board/rockchip/evb_rk3399/built-in.o
 .debug_info    0x000000000003721f    0x5148f cmd/built-in.o
 .debug_info    0x00000000000886ae    0x75b25 common/built-in.o
 .debug_info    0x00000000000fe1d3     0xa818 disk/built-in.o
 .debug_info    0x00000000001089eb   0x108209 drivers/built-in.o
 .debug_info    0x0000000000210bf4     0x6525 drivers/gpio/built-in.o
 .debug_info    0x0000000000217119     0x5bda drivers/i2c/built-in.o
 .debug_info    0x000000000021ccf3     0x691b drivers/mtd/built-in.o
 .debug_info    0x000000000022360e     0x290d drivers/mtd/spi/built-in.o
 .debug_info    0x0000000000225f1b     0xbd47 drivers/net/built-in.o
 .debug_info    0x0000000000231c62     0x3dac drivers/net/phy/built-in.o
 .debug_info    0x0000000000235a0e     0x6510 drivers/power/built-in.o
 .debug_info    0x000000000023bf1e     0x1dc2 drivers/power/charge/built-in.o
 .debug_info    0x000000000023dce0     0x685c drivers/power/fuel_gauge/built-in.o
 .debug_info    0x000000000024453c     0x3ea4 drivers/power/io-domain/built-in.o
 .debug_info    0x00000000002483e0     0x527e drivers/power/pmic/built-in.o
 .debug_info    0x000000000024d65e     0xac7b drivers/power/regulator/built-in.o
 .debug_info    0x00000000002582d9     0x636f drivers/serial/built-in.o
 .debug_info    0x000000000025e648     0x2a87 drivers/spi/built-in.o
 .debug_info    0x00000000002610cf     0x19a5 drivers/usb/common/built-in.o
 .debug_info    0x0000000000262a74    0x154cf drivers/usb/dwc3/built-in.o
 .debug_info    0x0000000000277f43    0x19944 drivers/usb/eth/built-in.o
 .debug_info    0x0000000000291887    0x1d107 drivers/usb/gadget/built-in.o
 .debug_info    0x00000000002ae98e     0x42d1 drivers/usb/gadget/udc/built-in.o
 .debug_info    0x00000000002b2c5f    0x25f4f drivers/usb/host/built-in.o
 .debug_info    0x00000000002d8bae     0x8b56 env/built-in.o
 .debug_info    0x00000000002e1704    0x11244 fs/built-in.o
 .debug_info    0x00000000002f2948    0x74b0f lib/built-in.o
 .debug_info    0x0000000000367457    0x14712 net/built-in.o
 .debug_info    0x000000000037bb69     0xec1f test/built-in.o
 .debug_info    0x000000000038a788     0x1a65 test/dm/built-in.o

.debug_abbrev   0x0000000000000000    0x669af
 .debug_abbrev  0x0000000000000000       0x14 arch/arm/cpu/armv8/start.o
 .debug_abbrev  0x0000000000000014     0x12d6 arch/arm/cpu/armv8/built-in.o
 .debug_abbrev  0x00000000000012ea     0x1976 arch/arm/lib/built-in.o
 .debug_abbrev  0x0000000000002c60     0x4719 arch/arm/mach-rockchip/built-in.o
 .debug_abbrev  0x0000000000007379      0x40f board/rockchip/evb_rk3399/built-in.o
 .debug_abbrev  0x0000000000007788     0xa741 cmd/built-in.o
 .debug_abbrev  0x0000000000011ec9     0xce45 common/built-in.o
 .debug_abbrev  0x000000000001ed0e     0x15d8 disk/built-in.o
 .debug_abbrev  0x00000000000202e6    0x1ac94 drivers/built-in.o
 .debug_abbrev  0x000000000003af7a      0xa54 drivers/gpio/built-in.o
 .debug_abbrev  0x000000000003b9ce      0xaf0 drivers/i2c/built-in.o
 .debug_abbrev  0x000000000003c4be      0xb63 drivers/mtd/built-in.o
 .debug_abbrev  0x000000000003d021      0x3bd drivers/mtd/spi/built-in.o
 .debug_abbrev  0x000000000003d3de      0xbcf drivers/net/built-in.o
 .debug_abbrev  0x000000000003dfad      0x68d drivers/net/phy/built-in.o
 .debug_abbrev  0x000000000003e63a      0xb33 drivers/power/built-in.o
 .debug_abbrev  0x000000000003f16d      0x4ef drivers/power/charge/built-in.o
 .debug_abbrev  0x000000000003f65c      0x84a drivers/power/fuel_gauge/built-in.o
 .debug_abbrev  0x000000000003fea6      0x85d drivers/power/io-domain/built-in.o
 .debug_abbrev  0x0000000000040703      0x945 drivers/power/pmic/built-in.o
 .debug_abbrev  0x0000000000041048     0x1237 drivers/power/regulator/built-in.o
 .debug_abbrev  0x000000000004227f      0xc79 drivers/serial/built-in.o
 .debug_abbrev  0x0000000000042ef8      0x542 drivers/spi/built-in.o
 .debug_abbrev  0x000000000004343a      0x32d drivers/usb/common/built-in.o
 .debug_abbrev  0x0000000000043767     0x162a drivers/usb/dwc3/built-in.o
 .debug_abbrev  0x0000000000044d91     0x2707 drivers/usb/eth/built-in.o
 .debug_abbrev  0x0000000000047498     0x22d2 drivers/usb/gadget/built-in.o
 .debug_abbrev  0x000000000004976a      0x903 drivers/usb/gadget/udc/built-in.o
 .debug_abbrev  0x000000000004a06d     0x37d0 drivers/usb/host/built-in.o
 .debug_abbrev  0x000000000004d83d     0x1742 env/built-in.o
 .debug_abbrev  0x000000000004ef7f     0x1c46 fs/built-in.o
 .debug_abbrev  0x0000000000050bc5    0x10fbc lib/built-in.o
 .debug_abbrev  0x0000000000061b81     0x2c59 net/built-in.o
 .debug_abbrev  0x00000000000647da     0x1e6a test/built-in.o
 .debug_abbrev  0x0000000000066644      0x36b test/dm/built-in.o

.debug_aranges  0x0000000000000000    0x11bf0
 .debug_aranges
                0x0000000000000000       0x30 arch/arm/cpu/armv8/start.o
 .debug_aranges
                0x0000000000000030      0x4e0 arch/arm/cpu/armv8/built-in.o
 .debug_aranges
                0x0000000000000510      0x3c0 arch/arm/lib/built-in.o
 .debug_aranges
                0x00000000000008d0      0x860 arch/arm/mach-rockchip/built-in.o
 .debug_aranges
                0x0000000000001130       0x70 board/rockchip/evb_rk3399/built-in.o
 .debug_aranges
                0x00000000000011a0     0x1250 cmd/built-in.o
 .debug_aranges
                0x00000000000023f0     0x2a30 common/built-in.o
 .debug_aranges
                0x0000000000004e20      0x340 disk/built-in.o
 .debug_aranges
                0x0000000000005160     0x47d0 drivers/built-in.o
 .debug_aranges
                0x0000000000009930      0x340 drivers/gpio/built-in.o
 .debug_aranges
                0x0000000000009c70      0x1d0 drivers/i2c/built-in.o
 .debug_aranges
                0x0000000000009e40      0x350 drivers/mtd/built-in.o
 .debug_aranges
                0x000000000000a190       0xa0 drivers/mtd/spi/built-in.o
 .debug_aranges
                0x000000000000a230      0x320 drivers/net/built-in.o
 .debug_aranges
                0x000000000000a550      0x180 drivers/net/phy/built-in.o
 .debug_aranges
                0x000000000000a6d0      0x110 drivers/power/built-in.o
 .debug_aranges
                0x000000000000a7e0       0x90 drivers/power/charge/built-in.o
 .debug_aranges
                0x000000000000a870      0x2c0 drivers/power/fuel_gauge/built-in.o
 .debug_aranges
                0x000000000000ab30      0x100 drivers/power/io-domain/built-in.o
 .debug_aranges
                0x000000000000ac30      0x190 drivers/power/pmic/built-in.o
 .debug_aranges
                0x000000000000adc0      0x4e0 drivers/power/regulator/built-in.o
 .debug_aranges
                0x000000000000b2a0      0x390 drivers/serial/built-in.o
 .debug_aranges
                0x000000000000b630      0x150 drivers/spi/built-in.o
 .debug_aranges
                0x000000000000b780       0x50 drivers/usb/common/built-in.o
 .debug_aranges
                0x000000000000b7d0      0x4c0 drivers/usb/dwc3/built-in.o
 .debug_aranges
                0x000000000000bc90      0x850 drivers/usb/eth/built-in.o
 .debug_aranges
                0x000000000000c4e0      0x720 drivers/usb/gadget/built-in.o
 .debug_aranges
                0x000000000000cc00      0x110 drivers/usb/gadget/udc/built-in.o
 .debug_aranges
                0x000000000000cd10      0x890 drivers/usb/host/built-in.o
 .debug_aranges
                0x000000000000d5a0      0x2e0 env/built-in.o
 .debug_aranges
                0x000000000000d880      0x630 fs/built-in.o
 .debug_aranges
                0x000000000000deb0     0x3260 lib/built-in.o
 .debug_aranges
                0x0000000000011110      0x7c0 net/built-in.o
 .debug_aranges
                0x00000000000118d0      0x2b0 test/built-in.o
 .debug_aranges
                0x0000000000011b80       0x70 test/dm/built-in.o

.debug_str      0x0000000000000000    0x3fb64
 .debug_str     0x0000000000000000       0x44 arch/arm/cpu/armv8/start.o
 .debug_str     0x0000000000000044     0x15a4 arch/arm/cpu/armv8/built-in.o
                                       0x5910 (size before relaxing)
 .debug_str     0x00000000000015e8     0x1506 arch/arm/lib/built-in.o
                                       0x8dbc (size before relaxing)
 .debug_str     0x0000000000002aee     0x437d arch/arm/mach-rockchip/built-in.o
                                      0x1a2ab (size before relaxing)
 .debug_str     0x0000000000006e6b      0x69b board/rockchip/evb_rk3399/built-in.o
                                       0x1c82 (size before relaxing)
 .debug_str     0x0000000000007506     0x4fb2 cmd/built-in.o
                                      0x378fb (size before relaxing)
 .debug_str     0x000000000000c4b8     0x88b2 common/built-in.o
                                      0x42a84 (size before relaxing)
 .debug_str     0x0000000000014d6a      0x754 disk/built-in.o
                                       0x59f3 (size before relaxing)
 .debug_str     0x00000000000154be    0x136cb drivers/built-in.o
                                      0x9c190 (size before relaxing)
 .debug_str     0x0000000000028b89      0x54f drivers/gpio/built-in.o
                                       0x37e5 (size before relaxing)
 .debug_str     0x00000000000290d8      0x4c0 drivers/i2c/built-in.o
                                       0x30c0 (size before relaxing)
 .debug_str     0x0000000000029598      0xb5b drivers/mtd/built-in.o
                                       0x393d (size before relaxing)
 .debug_str     0x000000000002a0f3       0xbe drivers/mtd/spi/built-in.o
                                       0x1ca9 (size before relaxing)
 .debug_str     0x000000000002a1b1     0x2b10 drivers/net/built-in.o
                                       0x6dc4 (size before relaxing)
 .debug_str     0x000000000002ccc1      0x1cf drivers/net/phy/built-in.o
                                       0x1aed (size before relaxing)
 .debug_str     0x000000000002ce90      0x433 drivers/power/built-in.o
                                       0x4578 (size before relaxing)
 .debug_str     0x000000000002d2c3      0x1f7 drivers/power/charge/built-in.o
                                       0x1661 (size before relaxing)
 .debug_str     0x000000000002d4ba      0x96b drivers/power/fuel_gauge/built-in.o
                                       0x3532 (size before relaxing)
 .debug_str     0x000000000002de25      0x372 drivers/power/io-domain/built-in.o
                                       0x2dab (size before relaxing)
 .debug_str     0x000000000002e197      0xd13 drivers/power/pmic/built-in.o
                                       0x3a5e (size before relaxing)
 .debug_str     0x000000000002eeaa      0xa20 drivers/power/regulator/built-in.o
                                       0x72bc (size before relaxing)
 .debug_str     0x000000000002f8ca      0x54d drivers/serial/built-in.o
                                       0x3306 (size before relaxing)
 .debug_str     0x000000000002fe17      0x1c7 drivers/spi/built-in.o
                                       0x18bf (size before relaxing)
 .debug_str     0x000000000002ffde       0x79 drivers/usb/common/built-in.o
                                       0x161b (size before relaxing)
 .debug_str     0x0000000000030057     0x15b9 drivers/usb/dwc3/built-in.o
                                       0x7aa4 (size before relaxing)
 .debug_str     0x0000000000031610     0x138e drivers/usb/eth/built-in.o
                                       0xc897 (size before relaxing)
 .debug_str     0x000000000003299e     0x23f6 drivers/usb/gadget/built-in.o
                                       0xbb17 (size before relaxing)
 .debug_str     0x0000000000034d94      0x143 drivers/usb/gadget/udc/built-in.o
                                       0x30c8 (size before relaxing)
 .debug_str     0x0000000000034ed7     0x218e drivers/usb/host/built-in.o
                                      0x123d6 (size before relaxing)
 .debug_str     0x0000000000037065      0x6cd env/built-in.o
                                       0x6a5c (size before relaxing)
 .debug_str     0x0000000000037732      0xf82 fs/built-in.o
                                       0x8d17 (size before relaxing)
 .debug_str     0x00000000000386b4     0x5af5 lib/built-in.o
                                      0x447b3 (size before relaxing)
 .debug_str     0x000000000003e1a9     0x1301 net/built-in.o
                                       0xdf09 (size before relaxing)
 .debug_str     0x000000000003f4aa      0x62e test/built-in.o
                                       0xaa46 (size before relaxing)
 .debug_str     0x000000000003fad8       0x8c test/dm/built-in.o
                                       0x1590 (size before relaxing)

.comment        0x0000000000000000       0x1c
 .comment       0x0000000000000000       0x1c arch/arm/cpu/armv8/built-in.o
                                         0xae (size before relaxing)
 .comment       0x000000000000001c      0x105 arch/arm/lib/built-in.o
 .comment       0x000000000000001c      0x20a arch/arm/mach-rockchip/built-in.o
 .comment       0x000000000000001c       0x1d board/rockchip/evb_rk3399/built-in.o
 .comment       0x000000000000001c      0x4fc cmd/built-in.o
 .comment       0x000000000000001c      0x4fc common/built-in.o
 .comment       0x000000000000001c       0x74 disk/built-in.o
 .comment       0x000000000000001c      0xae0 drivers/built-in.o
 .comment       0x000000000000001c       0x3a drivers/gpio/built-in.o
 .comment       0x000000000000001c       0x3a drivers/i2c/built-in.o
 .comment       0x000000000000001c       0x3a drivers/mtd/built-in.o
 .comment       0x000000000000001c       0x1d drivers/mtd/spi/built-in.o
 .comment       0x000000000000001c       0x3a drivers/net/built-in.o
 .comment       0x000000000000001c       0x1d drivers/net/phy/built-in.o
 .comment       0x000000000000001c       0x57 drivers/power/built-in.o
 .comment       0x000000000000001c       0x1d drivers/power/charge/built-in.o
 .comment       0x000000000000001c       0x3a drivers/power/fuel_gauge/built-in.o
 .comment       0x000000000000001c       0x3a drivers/power/io-domain/built-in.o
 .comment       0x000000000000001c       0x3a drivers/power/pmic/built-in.o
 .comment       0x000000000000001c       0x74 drivers/power/regulator/built-in.o
 .comment       0x000000000000001c       0x3a drivers/serial/built-in.o
 .comment       0x000000000000001c       0x1d drivers/spi/built-in.o
 .comment       0x000000000000001c       0x1d drivers/usb/common/built-in.o
 .comment       0x000000000000001c       0x57 drivers/usb/dwc3/built-in.o
 .comment       0x000000000000001c       0xcb drivers/usb/eth/built-in.o
 .comment       0x000000000000001c       0xae drivers/usb/gadget/built-in.o
 .comment       0x000000000000001c       0x3a drivers/usb/gadget/udc/built-in.o
 .comment       0x000000000000001c      0x105 drivers/usb/host/built-in.o
 .comment       0x000000000000001c       0xae env/built-in.o
 .comment       0x000000000000001c       0xae fs/built-in.o
 .comment       0x000000000000001c      0x9be lib/built-in.o
 .comment       0x000000000000001c      0x105 net/built-in.o
 .comment       0x000000000000001c       0xe8 test/built-in.o
 .comment       0x000000000000001c       0x1d test/dm/built-in.o

.note.GNU-stack
                0x0000000000000000        0x0
 .note.GNU-stack
                0x0000000000000000        0x0 arch/arm/cpu/armv8/built-in.o
 .note.GNU-stack
                0x0000000000000000        0x0 arch/arm/lib/built-in.o
 .note.GNU-stack
                0x0000000000000000        0x0 arch/arm/mach-rockchip/built-in.o
 .note.GNU-stack
                0x0000000000000000        0x0 board/rockchip/evb_rk3399/built-in.o
 .note.GNU-stack
                0x0000000000000000        0x0 cmd/built-in.o
 .note.GNU-stack
                0x0000000000000000        0x0 common/built-in.o
 .note.GNU-stack
                0x0000000000000000        0x0 disk/built-in.o
 .note.GNU-stack
                0x0000000000000000        0x0 drivers/built-in.o
 .note.GNU-stack
                0x0000000000000000        0x0 drivers/gpio/built-in.o
 .note.GNU-stack
                0x0000000000000000        0x0 drivers/i2c/built-in.o
 .note.GNU-stack
                0x0000000000000000        0x0 drivers/mtd/built-in.o
 .note.GNU-stack
                0x0000000000000000        0x0 drivers/mtd/spi/built-in.o
 .note.GNU-stack
                0x0000000000000000        0x0 drivers/net/built-in.o
 .note.GNU-stack
                0x0000000000000000        0x0 drivers/net/phy/built-in.o
 .note.GNU-stack
                0x0000000000000000        0x0 drivers/power/built-in.o
 .note.GNU-stack
                0x0000000000000000        0x0 drivers/power/charge/built-in.o
 .note.GNU-stack
                0x0000000000000000        0x0 drivers/power/fuel_gauge/built-in.o
 .note.GNU-stack
                0x0000000000000000        0x0 drivers/power/io-domain/built-in.o
 .note.GNU-stack
                0x0000000000000000        0x0 drivers/power/pmic/built-in.o
 .note.GNU-stack
                0x0000000000000000        0x0 drivers/power/regulator/built-in.o
 .note.GNU-stack
                0x0000000000000000        0x0 drivers/serial/built-in.o
 .note.GNU-stack
                0x0000000000000000        0x0 drivers/spi/built-in.o
 .note.GNU-stack
                0x0000000000000000        0x0 drivers/usb/common/built-in.o
 .note.GNU-stack
                0x0000000000000000        0x0 drivers/usb/dwc3/built-in.o
 .note.GNU-stack
                0x0000000000000000        0x0 drivers/usb/eth/built-in.o
 .note.GNU-stack
                0x0000000000000000        0x0 drivers/usb/gadget/built-in.o
 .note.GNU-stack
                0x0000000000000000        0x0 drivers/usb/gadget/udc/built-in.o
 .note.GNU-stack
                0x0000000000000000        0x0 drivers/usb/host/built-in.o
 .note.GNU-stack
                0x0000000000000000        0x0 env/built-in.o
 .note.GNU-stack
                0x0000000000000000        0x0 fs/built-in.o
 .note.GNU-stack
                0x0000000000000000        0x0 lib/built-in.o
 .note.GNU-stack
                0x0000000000000000        0x0 net/built-in.o
 .note.GNU-stack
                0x0000000000000000        0x0 test/built-in.o
 .note.GNU-stack
                0x0000000000000000        0x0 test/dm/built-in.o

.debug_loc      0x0000000000000000   0x235518
 .debug_loc     0x0000000000000000     0x2e03 arch/arm/cpu/armv8/built-in.o
 .debug_loc     0x0000000000002e03     0x1389 arch/arm/lib/built-in.o
 .debug_loc     0x000000000000418c     0x91c0 arch/arm/mach-rockchip/built-in.o
 .debug_loc     0x000000000000d34c      0x317 board/rockchip/evb_rk3399/built-in.o
 .debug_loc     0x000000000000d663    0x25fb7 cmd/built-in.o
 .debug_loc     0x000000000003361a    0x52439 common/built-in.o
 .debug_loc     0x0000000000085a53     0x7318 disk/built-in.o
 .debug_loc     0x000000000008cd6b    0xa8085 drivers/built-in.o
 .debug_loc     0x0000000000134df0     0x44aa drivers/gpio/built-in.o
 .debug_loc     0x000000000013929a     0x3cfa drivers/i2c/built-in.o
 .debug_loc     0x000000000013cf94     0x5a22 drivers/mtd/built-in.o
 .debug_loc     0x00000000001429b6      0x6f6 drivers/mtd/spi/built-in.o
 .debug_loc     0x00000000001430ac     0x4902 drivers/net/built-in.o
 .debug_loc     0x00000000001479ae     0x36ae drivers/net/phy/built-in.o
 .debug_loc     0x000000000014b05c     0x21f7 drivers/power/built-in.o
 .debug_loc     0x000000000014d253      0x637 drivers/power/charge/built-in.o
 .debug_loc     0x000000000014d88a     0x39be drivers/power/fuel_gauge/built-in.o
 .debug_loc     0x0000000000151248      0xe45 drivers/power/io-domain/built-in.o
 .debug_loc     0x000000000015208d     0x29d3 drivers/power/pmic/built-in.o
 .debug_loc     0x0000000000154a60     0x6997 drivers/power/regulator/built-in.o
 .debug_loc     0x000000000015b3f7     0x32b6 drivers/serial/built-in.o
 .debug_loc     0x000000000015e6ad     0x1a8b drivers/spi/built-in.o
 .debug_loc     0x0000000000160138      0x262 drivers/usb/common/built-in.o
 .debug_loc     0x000000000016039a    0x12db5 drivers/usb/dwc3/built-in.o
 .debug_loc     0x000000000017314f     0xd3b0 drivers/usb/eth/built-in.o
 .debug_loc     0x00000000001804ff    0x16379 drivers/usb/gadget/built-in.o
 .debug_loc     0x0000000000196878      0xf4f drivers/usb/gadget/udc/built-in.o
 .debug_loc     0x00000000001977c7    0x1c269 drivers/usb/host/built-in.o
 .debug_loc     0x00000000001b3a30     0x2d43 env/built-in.o
 .debug_loc     0x00000000001b6773     0xef85 fs/built-in.o
 .debug_loc     0x00000000001c56f8    0x60782 lib/built-in.o
 .debug_loc     0x0000000000225e7a     0xaccd net/built-in.o
 .debug_loc     0x0000000000230b47     0x43dd test/built-in.o
 .debug_loc     0x0000000000234f24      0x5f4 test/dm/built-in.o

.debug_ranges   0x0000000000000000    0x47070
 .debug_ranges  0x0000000000000000      0xc80 arch/arm/cpu/armv8/built-in.o
 .debug_ranges  0x0000000000000c80      0x3f0 arch/arm/lib/built-in.o
 .debug_ranges  0x0000000000001070     0x10f0 arch/arm/mach-rockchip/built-in.o
 .debug_ranges  0x0000000000002160       0xb0 board/rockchip/evb_rk3399/built-in.o
 .debug_ranges  0x0000000000002210     0x3d40 cmd/built-in.o
 .debug_ranges  0x0000000000005f50     0x95c0 common/built-in.o
 .debug_ranges  0x000000000000f510      0xde0 disk/built-in.o
 .debug_ranges  0x00000000000102f0    0x1a000 drivers/built-in.o
 .debug_ranges  0x000000000002a2f0      0x520 drivers/gpio/built-in.o
 .debug_ranges  0x000000000002a810      0x780 drivers/i2c/built-in.o
 .debug_ranges  0x000000000002af90      0x720 drivers/mtd/built-in.o
 .debug_ranges  0x000000000002b6b0       0x90 drivers/mtd/spi/built-in.o
 .debug_ranges  0x000000000002b740      0xa60 drivers/net/built-in.o
 .debug_ranges  0x000000000002c1a0      0x9f0 drivers/net/phy/built-in.o
 .debug_ranges  0x000000000002cb90      0x290 drivers/power/built-in.o
 .debug_ranges  0x000000000002ce20       0xe0 drivers/power/charge/built-in.o
 .debug_ranges  0x000000000002cf00      0x7d0 drivers/power/fuel_gauge/built-in.o
 .debug_ranges  0x000000000002d6d0      0x170 drivers/power/io-domain/built-in.o
 .debug_ranges  0x000000000002d840      0x310 drivers/power/pmic/built-in.o
 .debug_ranges  0x000000000002db50      0x860 drivers/power/regulator/built-in.o
 .debug_ranges  0x000000000002e3b0      0xa20 drivers/serial/built-in.o
 .debug_ranges  0x000000000002edd0      0x220 drivers/spi/built-in.o
 .debug_ranges  0x000000000002eff0       0x40 drivers/usb/common/built-in.o
 .debug_ranges  0x000000000002f030     0x2660 drivers/usb/dwc3/built-in.o
 .debug_ranges  0x0000000000031690     0x1440 drivers/usb/eth/built-in.o
 .debug_ranges  0x0000000000032ad0     0x4080 drivers/usb/gadget/built-in.o
 .debug_ranges  0x0000000000036b50      0x2a0 drivers/usb/gadget/udc/built-in.o
 .debug_ranges  0x0000000000036df0     0x42e0 drivers/usb/host/built-in.o
 .debug_ranges  0x000000000003b0d0      0x590 env/built-in.o
 .debug_ranges  0x000000000003b660     0x18f0 fs/built-in.o
 .debug_ranges  0x000000000003cf50     0x7ed0 lib/built-in.o
 .debug_ranges  0x0000000000044e20     0x1ba0 net/built-in.o
 .debug_ranges  0x00000000000469c0      0x650 test/built-in.o
 .debug_ranges  0x0000000000047010       0x60 test/dm/built-in.o
